 0000                   cpu LMM
                        .module main.c
                        .area data(ram, con, rel)
 0000           _Cam1::
 0000 00                .byte 0
 0001                   .dbfile ./terminal.h
 0001                   .dbsym e Cam1 _Cam1 c
                        .area data(ram, con, rel)
 0000                   .dbfile ./terminal.h
                        .area data(ram, con, rel)
 0000                   .dbfile ./terminal.h
 0000           _Cam2::
 0000 00                .byte 0
 0001                   .dbsym e Cam2 _Cam2 c
                        .area data(ram, con, rel)
 0000                   .dbfile ./terminal.h
                        .area data(ram, con, rel)
 0000                   .dbfile ./terminal.h
 0000           _Ent1::
 0000 00                .byte 0
 0001                   .dbsym e Ent1 _Ent1 c
                        .area data(ram, con, rel)
 0000                   .dbfile ./terminal.h
                        .area data(ram, con, rel)
 0000                   .dbfile ./terminal.h
 0000           _Ent2::
 0000 00                .byte 0
 0001                   .dbsym e Ent2 _Ent2 c
                        .area data(ram, con, rel)
 0000                   .dbfile ./terminal.h
                        .area data(ram, con, rel)
 0000                   .dbfile ./terminal.h
 0000           _Ent3::
 0000 00                .byte 0
 0001                   .dbsym e Ent3 _Ent3 c
                        .area data(ram, con, rel)
 0000                   .dbfile ./terminal.h
                        .area data(ram, con, rel)
 0000                   .dbfile ./terminal.h
 0000           _Ent4::
 0000 00                .byte 0
 0001                   .dbsym e Ent4 _Ent4 c
                        .area data(ram, con, rel)
 0000                   .dbfile ./terminal.h
                        .area data(ram, con, rel)
 0000                   .dbfile ./terminal.h
 0000           _Fla1::
 0000 00                .byte 0
 0001                   .dbsym e Fla1 _Fla1 c
                        .area data(ram, con, rel)
 0000                   .dbfile ./terminal.h
                        .area data(ram, con, rel)
 0000                   .dbfile ./terminal.h
 0000           _Fla2::
 0000 00                .byte 0
 0001                   .dbsym e Fla2 _Fla2 c
                        .area data(ram, con, rel)
 0000                   .dbfile ./terminal.h
                        .area data(ram, con, rel)
 0000                   .dbfile ./terminal.h
 0000           _Fla3::
 0000 00                .byte 0
 0001                   .dbsym e Fla3 _Fla3 c
                        .area data(ram, con, rel)
 0000                   .dbfile ./terminal.h
                        .area data(ram, con, rel)
 0000                   .dbfile ./terminal.h
 0000           _Fla4::
 0000 00                .byte 0
 0001                   .dbsym e Fla4 _Fla4 c
                        .area data(ram, con, rel)
 0000                   .dbfile ./terminal.h
                        .area data(ram, con, rel)
 0000                   .dbfile ./terminal.h
 0000           _Int1_Tdisp::
 0000 00                .byte 0
 0001                   .dbsym e Int1_Tdisp _Int1_Tdisp c
                        .area data(ram, con, rel)
 0000                   .dbfile ./terminal.h
                        .area data(ram, con, rel)
 0000                   .dbfile ./terminal.h
 0000           _Int1_Tdisp_Uni::
 0000 00                .byte 0
 0001                   .dbsym e Int1_Tdisp_Uni _Int1_Tdisp_Uni c
                        .area data(ram, con, rel)
 0000                   .dbfile ./terminal.h
                        .area data(ram, con, rel)
 0000                   .dbfile ./terminal.h
 0000           _Int1_Ndisp::
 0000 00                .byte 0
 0001                   .dbsym e Int1_Ndisp _Int1_Ndisp c
                        .area data(ram, con, rel)
 0000                   .dbfile ./terminal.h
                        .area data(ram, con, rel)
 0000                   .dbfile ./terminal.h
 0000           _Int2_Tdisp::
 0000 00                .byte 0
 0001                   .dbsym e Int2_Tdisp _Int2_Tdisp c
                        .area data(ram, con, rel)
 0000                   .dbfile ./terminal.h
                        .area data(ram, con, rel)
 0000                   .dbfile ./terminal.h
 0000           _Int2_Tdisp_Uni::
 0000 00                .byte 0
 0001                   .dbsym e Int2_Tdisp_Uni _Int2_Tdisp_Uni c
                        .area data(ram, con, rel)
 0000                   .dbfile ./terminal.h
                        .area data(ram, con, rel)
 0000                   .dbfile ./terminal.h
 0000           _Int2_Ndisp::
 0000 00                .byte 0
 0001                   .dbsym e Int2_Ndisp _Int2_Ndisp c
                        .area data(ram, con, rel)
 0000                   .dbfile ./terminal.h
                        .area data(ram, con, rel)
 0000                   .dbfile ./terminal.h
 0000           _TL1_Treal::
 0000 00                .byte 0
 0001                   .dbsym e TL1_Treal _TL1_Treal c
                        .area data(ram, con, rel)
 0000                   .dbfile ./terminal.h
                        .area data(ram, con, rel)
 0000                   .dbfile ./terminal.h
 0000           _TL1_Treal_Uni::
 0000 00                .byte 0
 0001                   .dbsym e TL1_Treal_Uni _TL1_Treal_Uni c
                        .area data(ram, con, rel)
 0000                   .dbfile ./terminal.h
                        .area data(ram, con, rel)
 0000                   .dbfile ./terminal.h
 0000           _TL1_Tfilm::
 0000 00                .byte 0
 0001                   .dbsym e TL1_Tfilm _TL1_Tfilm c
                        .area data(ram, con, rel)
 0000                   .dbfile ./terminal.h
                        .area data(ram, con, rel)
 0000                   .dbfile ./terminal.h
 0000           _TL1_Tfilm_Uni::
 0000 00                .byte 0
 0001                   .dbsym e TL1_Tfilm_Uni _TL1_Tfilm_Uni c
                        .area data(ram, con, rel)
 0000                   .dbfile ./terminal.h
                        .area data(ram, con, rel)
 0000                   .dbfile ./terminal.h
 0000           _TL2_Treal::
 0000 00                .byte 0
 0001                   .dbsym e TL2_Treal _TL2_Treal c
                        .area data(ram, con, rel)
 0000                   .dbfile ./terminal.h
                        .area data(ram, con, rel)
 0000                   .dbfile ./terminal.h
 0000           _TL2_Treal_Uni::
 0000 00                .byte 0
 0001                   .dbsym e TL2_Treal_Uni _TL2_Treal_Uni c
                        .area data(ram, con, rel)
 0000                   .dbfile ./terminal.h
                        .area data(ram, con, rel)
 0000                   .dbfile ./terminal.h
 0000           _TL2_Tfilm::
 0000 00                .byte 0
 0001                   .dbsym e TL2_Tfilm _TL2_Tfilm c
                        .area data(ram, con, rel)
 0000                   .dbfile ./terminal.h
                        .area data(ram, con, rel)
 0000                   .dbfile ./terminal.h
 0000           _TL2_Tfilm_Uni::
 0000 00                .byte 0
 0001                   .dbsym e TL2_Tfilm_Uni _TL2_Tfilm_Uni c
                        .area data(ram, con, rel)
 0000                   .dbfile ./terminal.h
                        .area data(ram, con, rel)
 0000                   .dbfile ./terminal.h
 0000           _Luz_LCD::
 0000 00                .byte 0
 0001                   .dbsym e Luz_LCD _Luz_LCD c
                        .area data(ram, con, rel)
 0000                   .dbfile ./terminal.h
                        .area data(ram, con, rel)
 0000                   .dbfile ./terminal.h
 0000           _Buzzer::
 0000 00                .byte 0
 0001                   .dbsym e Buzzer _Buzzer c
                        .area data(ram, con, rel)
 0000                   .dbfile ./terminal.h
                        .area data(ram, con, rel)
 0000                   .dbfile ./terminal.h
 0000           _Alimentacion::
 0000 00                .byte 0
 0001                   .dbsym e Alimentacion _Alimentacion c
                        .area data(ram, con, rel)
 0000                   .dbfile ./terminal.h
                        .area text(rom, con, rel)
 0000                   .dbfile ./terminal.h
 0000                   .dbfunc e Inicializacion _Inicializacion fV
 0000           _Inicializacion::
 0000                   .dbline -1
 0000                   .dbline 78
 0000           ; //----------------------------------------------------------------//
 0000           ; //     Proyecto de GS Desarrollo Productos Electronicos EPSS    //
 0000           ; //                   By Albert Sagol & Xavi Vicient                         //
 0000           ; //                 PhotoSoC - Controlador fotográfico                   //
 0000           ; //----------------------------------------------------------------//
 0000           ; //              Programa principal del PSoC terminal                    //
 0000           ; //----------------------------------------------------------------//
 0000           ; 
 0000           ; #include <m8c.h>                      // part specific constants and macros
 0000           ; #include "PSoCAPI.h"                  // PSoC API definitions for all User Modules
 0000           ; #include "stdlib.h"
 0000           ; #include "terminal.h"                 // Libreria creada por Albert y Xavi para el proyecto
 0000           ; #include "comunicaciones.h"   // Libreria de comunicaciones creada por Albert y Xavi para el proyecto
 0000           ; 
 0000           ; void main()
 0000           ; {     //char x;
 0000           ;       //int xx;
 0000           ;       
 0000           ;       Inicializacion();                       //Rutina de inicialización de los perifericos
 0000           ;       Bienvenida();                           //Rutina que muestra el mensaje de bienvenida
 0000           ;       for (;;) Principal();           //Programa principal del PSoC terminal del PhotoSOC
 0000           ;               
 0000           ; 
 0000           ; /* Elementos de testeo o para utilizar
 0000           ; 
 0000           ; - implementar como realimentacion del LCD
 0000           ; PRT2DR=PRT2DR | 0x80;         //reali del LCD
 0000           ; 
 0000           ; - Comprovacion de comunicacion con UART y que lo muestre por el LCD
 0000           ; UART_CPutString("");  //Para cadenas de carateres 
 0000           ; UART_PutChar();                       //Para valores tipo char
 0000           ; x=UART_cGetChar();  //Esta se espera a que llegue un byte. Ver tambien UART_cReadChar()
 0000           ; LCD_WriteData(x);
 0000           ; 
 0000           ; - Saber si ha llegado a cierto punto
 0000           ; LCD_Control(0x01);
 0000           ; LCD_PrCString("prueba");
 0000           ; for(x=0;x<50000;x++);
 0000           ; 
 0000           ; - Detectar cierto numero y que lo muestre por el LCD          
 0000           ; LCD_Control(0x01);
 0000           ; LCD_WriteData(+48);
 0000           ; for(x=0;x<50000;x++);
 0000           ; */            
 0000           ; }
 0000           ; }
 0000           ; }
 0000           ; }
 0000           ; }
 0000           ; }
 0000           ; }
 0000           ; }
 0000           ; }
 0000           ; }
 0000           ; }
 0000           ; }
 0000           ; }
 0000           ; }
 0000           ; }
 0000           ; }
 0000           ; }
 0000           ; }
 0000           ; }
 0000           ; }
 0000           ; }
 0000           ; }
 0000           ; }
 0000           ; }
 0000           ; }
 0000           ; }
 0000           ; }
 0000           ; }
 0000           ; }
 0000           ; }
 0000           ; }
 0000           ; }
 0000           ; }
 0000           ; }
 0000                   .dbline 80
 0000           ; }
 0000           ; }
 0000 10                push X
 0001 509C              mov A,-100
 0003 7C0000            xcall _Timer8_WritePeriod
 0006                   .dbline 81
 0006           ; }
 0006 504E              mov A,78
 0008 7C0000            xcall _Timer8_WriteCompareValue
 000B                   .dbline 82
 000B           ; }
 000B 7C0000            xcall _Timer8_Start
 000E                   .dbline 85
 000E           ; }
 000E           ; }
 000E           ; }
 000E 5000              mov A,0
 0010 7C0000            xcall _UART_Start
 0013                   .dbline 88
 0013           ; }
 0013           ; }
 0013           ; }
 0013 7C0000            xcall _LCD_Start
 0016                   .dbline 89
 0016           ; }
 0016 7C0000            xcall _LCD_Init
 0019 20                pop X
 001A                   .dbline 92
 001A           ; }
 001A           ; }
 001A           ; }
 001A 6200A0            mov REG[ 0],-96
 001D                   .dbline -2
 001D                   .dbline 93
 001D           ; }
 001D           L1:
 001D                   .dbline 0 ; func end
 001D 7F                ret
 001E                   .dbend
 001E                   .dbfunc e Bienvenida _Bienvenida fV
 001E           _Bienvenida::
 001E                   .dbline -1
 001E                   .dbline 111
 001E           ; }
 001E           ; }
 001E           ; }
 001E           ; }
 001E           ; }
 001E           ; }
 001E           ; }
 001E           ; }
 001E           ; }
 001E           ; }
 001E           ; }
 001E           ; }
 001E           ; }
 001E           ; }
 001E           ; }
 001E           ; }
 001E           ; }
 001E           ; }
 001E                   .dbline 112
 001E           ; }
 001E 10                push X
 001F 5001              mov A,1
 0021 7C0000            xcall _LCD_Control
 0024                   .dbline 113
 0024           ; }
 0024 5701              mov X,1
 0026 5000              mov A,0
 0028 7C0000            xcall _LCD_Position
 002B                   .dbline 114
 002B           ; }
 002B 501C              mov A,>L3
 002D 08                push A
 002E 501C              mov A,<L3
 0030 5C                mov X,A
 0031 18                pop A
 0032 7C0000            xcall _LCD_PrCString
 0035                   .dbline 115
 0035           ; }
 0035 5703              mov X,3
 0037 5001              mov A,1
 0039 7C0000            xcall _LCD_Position
 003C                   .dbline 116
 003C           ; }
 003C 5010              mov A,>L4
 003E 08                push A
 003F 5010              mov A,<L4
 0041 5C                mov X,A
 0042 18                pop A
 0043 7C0000            xcall _LCD_PrCString
 0046 20                pop X
 0047                   .dbline 117
 0047           ; }
 0047 9001              xcall _bucle_temp
 0049                   .dbline -2
 0049                   .dbline 118
 0049           ; }
 0049           L2:
 0049                   .dbline 0 ; func end
 0049 7F                ret
 004A                   .dbend
 004A                   .dbfunc e bucle_temp _bucle_temp fV
 004A           ;              x -> X+0
 004A           _bucle_temp::
 004A                   .dbline -1
 004A 10                push X
 004B 4F                mov X,SP
 004C 3802              add SP,2
 004E                   .dbline 127
 004E           ; }
 004E           ; }
 004E           ; }
 004E           ; }
 004E           ; }
 004E           ; }
 004E           ; }
 004E           ; }
 004E           ; }
 004E                   .dbline 130
 004E 560100            mov [X+1],0
 0051 560000            mov [X+0],0
 0054 8006              xjmp L9
 0056           L6:
 0056                   .dbline 130
 0056           L7:
 0056                   .dbline 130
 0056 7701              inc [X+1]
 0058 0F0000            adc [X+0],0
 005B           L9:
 005B                   .dbline 130
 005B           ; }
 005B           ; }
 005B           ; }
 005B 62D000            mov REG[0xd0],>__r0
 005E 5201              mov A,[X+1]
 0060 5300              mov [__r3],A
 0062 5200              mov A,[X+0]
 0064 5300              mov [__r2],A
 0066 5100              mov A,[__r3]
 0068 11B8              sub A,-72
 006A 5100              mov A,[__r2]
 006C 1988              sbb A,-120
 006E 5000              mov A,0
 0070 1900              sbb A,0
 0072 5000              mov A,0
 0074 3180              xor A,-128
 0076 1980              sbb A,(0 ^ 0x80)
 0078 CFDD              jc L6
 007A           X0:
 007A                   .dbline -2
 007A                   .dbline 131
 007A           ; }
 007A           L5:
 007A 38FE              add SP,-2
 007C 20                pop X
 007D                   .dbline 0 ; func end
 007D 7F                ret
 007E                   .dbsym l x 0 i
 007E                   .dbend
 007E                   .dbfunc e Principal _Principal fV
 007E           ;              x -> X+1
 007E           ;          boton -> X+0
 007E           _Principal::
 007E                   .dbline -1
 007E 10                push X
 007F 4F                mov X,SP
 0080 3803              add SP,3
 0082                   .dbline 143
 0082           ; }
 0082           ; }
 0082           ; }
 0082           ; }
 0082           ; }
 0082           ; }
 0082           ; }
 0082           ; }
 0082           ; }
 0082           ; }
 0082           ; }
 0082           ; }
 0082                   .dbline 147
 0082           ; }
 0082           ; }
 0082           ; }
 0082           ; }
 0082 9068              xcall _Pulsador
 0084 5400              mov [X+0],A
 0086                   .dbline 148
 0086           ; }
 0086 62D000            mov REG[0xd0],>_Buzzer
 0089 3C0001            cmp [_Buzzer],1
 008C B003              jnz L11
 008E                   .dbline 148
 008E 900B              xcall _Pitido
 0090           L11:
 0090                   .dbline 149
 0090 3D0000            cmp [X+0],0
 0093 A003              jz L13
 0095                   .dbline 150
 0095                   .dbline 151
 0095 90F7              xcall _Menu
 0097                   .dbline 152
 0097           L13:
 0097                   .dbline -2
 0097                   .dbline 153
 0097           ; }
 0097           ; }
 0097           ; }
 0097           ; }
 0097           ; }
 0097           L10:
 0097 38FD              add SP,-3
 0099 20                pop X
 009A                   .dbline 0 ; func end
 009A 7F                ret
 009B                   .dbsym l x 1 i
 009B                   .dbsym l boton 0 c
 009B                   .dbend
 009B                   .dbfunc e Pitido _Pitido fV
 009B           ;             xx -> X+0
 009B           _Pitido::
 009B                   .dbline -1
 009B 10                push X
 009C 4F                mov X,SP
 009D 3802              add SP,2
 009F                   .dbline 164
 009F           ; }
 009F           ; }
 009F           ; }
 009F           ; }
 009F           ; }
 009F           ; }
 009F           ; }
 009F           ; }
 009F           ; }
 009F           ; }
 009F           ; }
 009F                   .dbline 167
 009F           ; }
 009F           ; }
 009F           ; }
 009F 430008            or REG[ 0],8
 00A2                   .dbline 168
 00A2 560100            mov [X+1],0
 00A5 560000            mov [X+0],0
 00A8           L16:
 00A8                   .dbline 168
 00A8 5D00              mov A,REG[ 0]
 00AA 62D000            mov REG[0xd0],>__r0
 00AD 6000              mov REG[ 0],A
 00AF           L17:
 00AF                   .dbline 168
 00AF           ; }
 00AF 7701              inc [X+1]
 00B1 0F0000            adc [X+0],0
 00B4                   .dbline 168
 00B4 5201              mov A,[X+1]
 00B6 11A0              sub A,-96
 00B8 5200              mov A,[X+0]
 00BA 3180              xor A,-128
 00BC 198F              sbb A,(15 ^ 0x80)
 00BE CFE9              jc L16
 00C0           X1:
 00C0                   .dbline 169
 00C0           ; }
 00C0 4100F7            and REG[ 0],-9
 00C3                   .dbline -2
 00C3                   .dbline 170
 00C3           ; }
 00C3           L15:
 00C3 38FE              add SP,-2
 00C5 20                pop X
 00C6                   .dbline 0 ; func end
 00C6 7F                ret
 00C7                   .dbsym l xx 0 I
 00C7                   .dbend
 00C7                   .dbfunc e Reset_PdT _Reset_PdT fV
 00C7           ;              x -> X+0
 00C7           _Reset_PdT::
 00C7                   .dbline -1
 00C7 10                push X
 00C8 4F                mov X,SP
 00C9 3802              add SP,2
 00CB                   .dbline 186
 00CB           ; }
 00CB           ; }
 00CB           ; }
 00CB           ; }
 00CB           ; }
 00CB           ; }
 00CB           ; }
 00CB           ; }
 00CB           ; }
 00CB           ; }
 00CB           ; }
 00CB           ; }
 00CB           ; }
 00CB           ; }
 00CB           ; }
 00CB           ; }
 00CB                   .dbline 189
 00CB           ; }
 00CB           ; }
 00CB           ; }
 00CB 430004            or REG[ 0],4
 00CE                   .dbline 190
 00CE 560100            mov [X+1],0
 00D1 560000            mov [X+0],0
 00D4           L21:
 00D4                   .dbline 190
 00D4           L22:
 00D4                   .dbline 190
 00D4           ; }
 00D4 7701              inc [X+1]
 00D6 0F0000            adc [X+0],0
 00D9                   .dbline 190
 00D9 5201              mov A,[X+1]
 00DB 11F4              sub A,-12
 00DD 5200              mov A,[X+0]
 00DF 3180              xor A,-128
 00E1 1981              sbb A,(1 ^ 0x80)
 00E3 CFF0              jc L21
 00E5           X2:
 00E5                   .dbline 191
 00E5           ; }
 00E5 4100FB            and REG[ 0],-5
 00E8                   .dbline -2
 00E8                   .dbline 192
 00E8           ; }
 00E8           L20:
 00E8 38FE              add SP,-2
 00EA 20                pop X
 00EB                   .dbline 0 ; func end
 00EB 7F                ret
 00EC                   .dbsym l x 0 I
 00EC                   .dbend
 00EC                   .dbfunc e Pulsador _Pulsador fc
 00EC           ;          aviso -> X+3
 00EC           ;        pulsado -> X+2
 00EC           ;              x -> X+0
 00EC           _Pulsador::
 00EC                   .dbline -1
 00EC 10                push X
 00ED 4F                mov X,SP
 00EE 3804              add SP,4
 00F0                   .dbline 206
 00F0           ; }
 00F0           ; }
 00F0           ; }
 00F0           ; }
 00F0           ; }
 00F0           ; }
 00F0           ; }
 00F0           ; }
 00F0           ; }
 00F0           ; }
 00F0           ; }
 00F0           ; }
 00F0           ; }
 00F0           ; }
 00F0                   .dbline 210
 00F0           ; }
 00F0           ; }
 00F0           ; }
 00F0           ; }
 00F0 560200            mov [X+2],0
 00F3           L26:
 00F3                   .dbline 214
 00F3           ; }
 00F3           ; }
 00F3           ; }
 00F3           ; }
 00F3                   .dbline 215
 00F3           ; }
 00F3 10                push X
 00F4 7C0000            xcall _UART_cReadChar
 00F7 62D000            mov REG[0xd0],>__r0
 00FA 20                pop X
 00FB 5403              mov [X+3],A
 00FD                   .dbline 216
 00FD           ; }
 00FD 3D03FF            cmp [X+3],-1
 0100 B001              jnz L29
 0102                   .dbline 216
 0102           L29:
 0102                   .dbline 217
 0102           ; }
 0102 5D00              mov A,REG[ 0]
 0104 62D000            mov REG[0xd0],>__r0
 0107 5300              mov [__r0],A
 0109 2600A0            and [__r0],-96
 010C 3C0020            cmp [__r0],32
 010F B004              jnz L31
 0111                   .dbline 217
 0111 560201            mov [X+2],1
 0114           L31:
 0114                   .dbline 218
 0114           ; }
 0114 5D00              mov A,REG[ 0]
 0116 62D000            mov REG[0xd0],>__r0
 0119 5300              mov [__r0],A
 011B 2600A0            and [__r0],-96
 011E 3C0080            cmp [__r0],-128
 0121 B004              jnz L33
 0123                   .dbline 218
 0123 560202            mov [X+2],2
 0126           L33:
 0126                   .dbline 219
 0126           ; }
 0126 3D0200            cmp [X+2],0
 0129 A048              jz L35
 012B                   .dbline 220
 012B           ; }
 012B                   .dbline 221
 012B 560100            mov [X+1],0
 012E 560000            mov [X+0],0
 0131 8006              xjmp L40
 0133           L37:
 0133                   .dbline 221
 0133           L38:
 0133                   .dbline 221
 0133 7701              inc [X+1]
 0135 0F0000            adc [X+0],0
 0138           L40:
 0138                   .dbline 221
 0138           ; }
 0138 5201              mov A,[X+1]
 013A 1164              sub A,100
 013C 5200              mov A,[X+0]
 013E 1900              sbb A,0
 0140 CFF2              jc L37
 0142           X3:
 0142                   .dbline 222
 0142           ; }
 0142 560100            mov [X+1],0
 0145 560000            mov [X+0],0
 0148 801C              xjmp L44
 014A           L41:
 014A                   .dbline 223
 014A           ; }
 014A                   .dbline 224
 014A           ; }
 014A 5D00              mov A,REG[ 0]
 014C 62D000            mov REG[0xd0],>__r0
 014F 5300              mov [__r0],A
 0151 2600A0            and [__r0],-96
 0154 3C00A0            cmp [__r0],-96
 0157 B005              jnz L45
 0159                   .dbline 224
 0159 5202              mov A,[X+2]
 015B 802E              xjmp L25
 015D           L45:
 015D                   .dbline 225
 015D 4300A0            or REG[ 0],-96
 0160                   .dbline 226
 0160           L42:
 0160                   .dbline 222
 0160 7701              inc [X+1]
 0162 0F0000            adc [X+0],0
 0165           L44:
 0165                   .dbline 222
 0165 5201              mov A,[X+1]
 0167 1130              sub A,48
 0169 5200              mov A,[X+0]
 016B 1975              sbb A,117
 016D CFDC              jc L41
 016F           X4:
 016F                   .dbline 227
 016F           ; }
 016F           ; }
 016F           ; }
 016F 070202            add [X+2],2
 0172                   .dbline 228
 0172           ; }
 0172           L35:
 0172                   .dbline 229
 0172           ; }
 0172 10                push X
 0173 7C0000            xcall _UART_cReadChar
 0176 62D000            mov REG[0xd0],>__r0
 0179 20                pop X
 017A 39FB              cmp A,-5
 017C B003              jnz L47
 017E                   .dbline 229
 017E 9EFE              xcall _Principal
 0180           L47:
 0180                   .dbline 230
 0180           L27:
 0180                   .dbline 230
 0180           ; }
 0180 3D0200            cmp [X+2],0
 0183 AF6F              jz L26
 0185                   .dbline 231
 0185           ; }
 0185 5202              mov A,[X+2]
 0187 62D000            mov REG[0xd0],>__r0
 018A                   .dbline -2
 018A           L25:
 018A 38FC              add SP,-4
 018C 20                pop X
 018D                   .dbline 0 ; func end
 018D 7F                ret
 018E                   .dbsym l aviso 3 c
 018E                   .dbsym l pulsado 2 c
 018E                   .dbsym l x 0 i
 018E                   .dbend
 018E                   .dbfunc e Menu _Menu fV
 018E           ;              x -> X+2
 018E           ;         pulsat -> X+1
 018E           ;          index -> X+0
 018E           _Menu::
 018E                   .dbline -1
 018E 10                push X
 018F 4F                mov X,SP
 0190 3804              add SP,4
 0192                   .dbline 242
 0192           ; }
 0192           ; }
 0192           ; }
 0192           ; }
 0192           ; }
 0192           ; }
 0192           ; }
 0192           ; }
 0192           ; }
 0192           ; }
 0192           ; }
 0192                   .dbline 243
 0192           ; }
 0192 560001            mov [X+0],1
 0195           L50:
 0195                   .dbline 247
 0195           ; }
 0195           ; }
 0195           ; }
 0195           ; }
 0195                   .dbline 248
 0195           ; }
 0195 10                push X
 0196 5001              mov A,1
 0198 7C0000            xcall _LCD_Control
 019B                   .dbline 249
 019B           ; }
 019B 5000              mov A,>L53
 019D 08                push A
 019E 5000              mov A,<L53
 01A0 5C                mov X,A
 01A1 18                pop A
 01A2 7C0000            xcall _LCD_PrCString
 01A5                   .dbline 250
 01A5           ; }
 01A5 5700              mov X,0
 01A7 5001              mov A,1
 01A9 7C0000            xcall _LCD_Position
 01AC 20                pop X
 01AD                   .dbline 251
 01AD           ; }
 01AD 3D0001            cmp [X+0],1
 01B0 B00F              jnz L54
 01B2                   .dbline 251
 01B2 10                push X
 01B3 50EF              mov A,>L56
 01B5 08                push A
 01B6 50EF              mov A,<L56
 01B8 5C                mov X,A
 01B9 18                pop A
 01BA 7C0000            xcall _LCD_PrCString
 01BD 20                pop X
 01BE 804B              xjmp L55
 01C0           L54:
 01C0                   .dbline 252
 01C0           ; }
 01C0 3D0002            cmp [X+0],2
 01C3 B00F              jnz L57
 01C5                   .dbline 252
 01C5 10                push X
 01C6 50DF              mov A,>L59
 01C8 08                push A
 01C9 50DF              mov A,<L59
 01CB 5C                mov X,A
 01CC 18                pop A
 01CD 7C0000            xcall _LCD_PrCString
 01D0 20                pop X
 01D1 8038              xjmp L58
 01D3           L57:
 01D3                   .dbline 253
 01D3           ; }
 01D3 3D0003            cmp [X+0],3
 01D6 B00F              jnz L60
 01D8                   .dbline 253
 01D8 10                push X
 01D9 50CF              mov A,>L62
 01DB 08                push A
 01DC 50CF              mov A,<L62
 01DE 5C                mov X,A
 01DF 18                pop A
 01E0 7C0000            xcall _LCD_PrCString
 01E3 20                pop X
 01E4 8025              xjmp L61
 01E6           L60:
 01E6                   .dbline 254
 01E6           ; }
 01E6 3D0004            cmp [X+0],4
 01E9 B00F              jnz L63
 01EB                   .dbline 254
 01EB 10                push X
 01EC 50C4              mov A,>L65
 01EE 08                push A
 01EF 50C4              mov A,<L65
 01F1 5C                mov X,A
 01F2 18                pop A
 01F3 7C0000            xcall _LCD_PrCString
 01F6 20                pop X
 01F7 8012              xjmp L64
 01F9           L63:
 01F9                   .dbline 255
 01F9           ; }
 01F9 3D0005            cmp [X+0],5
 01FC B00D              jnz L66
 01FE                   .dbline 255
 01FE 10                push X
 01FF 50B4              mov A,>L68
 0201 08                push A
 0202 50B4              mov A,<L68
 0204 5C                mov X,A
 0205 18                pop A
 0206 7C0000            xcall _LCD_PrCString
 0209 20                pop X
 020A           L66:
 020A           L64:
 020A           L61:
 020A           L58:
 020A           L55:
 020A                   .dbline 256
 020A           ; }
 020A 9E3E              xcall _bucle_temp
 020C                   .dbline 257
 020C           ; }
 020C 9EDE              xcall _Pulsador
 020E 5401              mov [X+1],A
 0210                   .dbline 258
 0210           ; }
 0210 62D000            mov REG[0xd0],>_Buzzer
 0213 3C0001            cmp [_Buzzer],1
 0216 B003              jnz L69
 0218                   .dbline 258
 0218 9E81              xcall _Pitido
 021A           L69:
 021A                   .dbline 259
 021A           ; }
 021A 3D0101            cmp [X+1],1
 021D B019              jnz L71
 021F                   .dbline 260
 021F           ; }
 021F                   .dbline 261
 021F           ; }
 021F 62D000            mov REG[0xd0],>__r0
 0222 5200              mov A,[X+0]
 0224 0101              add A,1
 0226 5300              mov [__r0],A
 0228 5005              mov A,5
 022A 3A00              cmp A,[__r0]
 022C D006              jnc L73
 022E           X5:
 022E                   .dbline 261
 022E 560001            mov [X+0],1
 0231 8050              xjmp L72
 0233           L73:
 0233                   .dbline 262
 0233           ; }
 0233 7700              inc [X+0]
 0235                   .dbline 263
 0235           ; }
 0235 804C              xjmp L72
 0237           L71:
 0237                   .dbline 264
 0237           ; }
 0237 3D0103            cmp [X+1],3
 023A B030              jnz L75
 023C                   .dbline 265
 023C           ; }
 023C                   .dbline 266
 023C           ; }
 023C 3D0001            cmp [X+0],1
 023F B005              jnz L77
 0241                   .dbline 266
 0241 9048              xcall _Sensors
 0243 803E              xjmp L76
 0245           L77:
 0245                   .dbline 267
 0245           ; }
 0245 3D0002            cmp [X+0],2
 0248 B005              jnz L79
 024A                   .dbline 267
 024A 9326              xcall _Flashes
 024C 8035              xjmp L76
 024E           L79:
 024E                   .dbline 268
 024E           ; }
 024E 3D0003            cmp [X+0],3
 0251 B005              jnz L81
 0253                   .dbline 268
 0253 968E              xcall _Dispar
 0255 802C              xjmp L76
 0257           L81:
 0257                   .dbline 269
 0257           ; }
 0257 3D0004            cmp [X+0],4
 025A B006              jnz L83
 025C                   .dbline 269
 025C 7C0F98            xcall _Executar
 025F 8022              xjmp L76
 0261           L83:
 0261                   .dbline 270
 0261           ; }
 0261 3D0005            cmp [X+0],5
 0264 B01D              jnz L76
 0266                   .dbline 270
 0266 7C12FA            xcall _Sistema
 0269                   .dbline 271
 0269           ; }
 0269 8018              xjmp L76
 026B           L75:
 026B                   .dbline 272
 026B           ; }
 026B 3D0102            cmp [X+1],2
 026E B013              jnz L87
 0270                   .dbline 273
 0270           ; }
 0270                   .dbline 274
 0270           ; }
 0270 62D000            mov REG[0xd0],>__r0
 0273 5200              mov A,[X+0]
 0275 1101              sub A,1
 0277 3901              cmp A,1
 0279 D006              jnc L89
 027B           X6:
 027B                   .dbline 274
 027B 560005            mov [X+0],5
 027E 8003              xjmp L90
 0280           L89:
 0280                   .dbline 275
 0280           ; }
 0280 7B00              dec [X+0]
 0282           L90:
 0282                   .dbline 276
 0282           ; }
 0282           L87:
 0282           L76:
 0282           L72:
 0282                   .dbline 277
 0282           L51:
 0282                   .dbline 277
 0282           ; }
 0282 3D0104            cmp [X+1],4
 0285 BF0F              jnz L50
 0287                   .dbline -2
 0287                   .dbline 278
 0287           ; }
 0287           L49:
 0287 38FC              add SP,-4
 0289 20                pop X
 028A                   .dbline 0 ; func end
 028A 7F                ret
 028B                   .dbsym l x 2 i
 028B                   .dbsym l pulsat 1 c
 028B                   .dbsym l index 0 c
 028B                   .dbend
 028B                   .dbfunc e Sensors _Sensors fV
 028B           ;              x -> X+2
 028B           ;           menu -> X+1
 028B           ;         pulsat -> X+0
 028B           _Sensors::
 028B                   .dbline -1
 028B 10                push X
 028C 4F                mov X,SP
 028D 3804              add SP,4
 028F                   .dbline 288
 028F           ; }
 028F           ; }
 028F           ; }
 028F           ; }
 028F           ; }
 028F           ; }
 028F           ; }
 028F           ; }
 028F           ; }
 028F           ; }
 028F                   .dbline 289
 028F           ; }
 028F 560101            mov [X+1],1
 0292           L92:
 0292                   .dbline 293
 0292           ; }
 0292           ; }
 0292           ; }
 0292           ; }
 0292                   .dbline 294
 0292           ; }
 0292 10                push X
 0293 5001              mov A,1
 0295 7C0000            xcall _LCD_Control
 0298                   .dbline 295
 0298           ; }
 0298 50A4              mov A,>L95
 029A 08                push A
 029B 50A4              mov A,<L95
 029D 5C                mov X,A
 029E 18                pop A
 029F 7C0000            xcall _LCD_PrCString
 02A2                   .dbline 296
 02A2           ; }
 02A2 5700              mov X,0
 02A4 5001              mov A,1
 02A6 7C0000            xcall _LCD_Position
 02A9 20                pop X
 02AA                   .dbline 297
 02AA           ; }
 02AA 3D0101            cmp [X+1],1
 02AD B00F              jnz L96
 02AF                   .dbline 297
 02AF 10                push X
 02B0 5094              mov A,>L98
 02B2 08                push A
 02B3 5094              mov A,<L98
 02B5 5C                mov X,A
 02B6 18                pop A
 02B7 7C0000            xcall _LCD_PrCString
 02BA 20                pop X
 02BB 8038              xjmp L97
 02BD           L96:
 02BD                   .dbline 298
 02BD           ; }
 02BD 3D0102            cmp [X+1],2
 02C0 B00F              jnz L99
 02C2                   .dbline 298
 02C2 10                push X
 02C3 5084              mov A,>L101
 02C5 08                push A
 02C6 5084              mov A,<L101
 02C8 5C                mov X,A
 02C9 18                pop A
 02CA 7C0000            xcall _LCD_PrCString
 02CD 20                pop X
 02CE 8025              xjmp L100
 02D0           L99:
 02D0                   .dbline 299
 02D0           ; }
 02D0 3D0103            cmp [X+1],3
 02D3 B00F              jnz L102
 02D5                   .dbline 299
 02D5 10                push X
 02D6 5075              mov A,>L104
 02D8 08                push A
 02D9 5075              mov A,<L104
 02DB 5C                mov X,A
 02DC 18                pop A
 02DD 7C0000            xcall _LCD_PrCString
 02E0 20                pop X
 02E1 8012              xjmp L103
 02E3           L102:
 02E3                   .dbline 300
 02E3           ; }
 02E3 3D0104            cmp [X+1],4
 02E6 B00D              jnz L105
 02E8                   .dbline 300
 02E8 10                push X
 02E9 5066              mov A,>L107
 02EB 08                push A
 02EC 5066              mov A,<L107
 02EE 5C                mov X,A
 02EF 18                pop A
 02F0 7C0000            xcall _LCD_PrCString
 02F3 20                pop X
 02F4           L105:
 02F4           L103:
 02F4           L100:
 02F4           L97:
 02F4                   .dbline 301
 02F4           ; }
 02F4 9D54              xcall _bucle_temp
 02F6                   .dbline 302
 02F6           ; }
 02F6 9DF4              xcall _Pulsador
 02F8 5400              mov [X+0],A
 02FA                   .dbline 303
 02FA           ; }
 02FA 62D000            mov REG[0xd0],>_Buzzer
 02FD 3C0001            cmp [_Buzzer],1
 0300 B003              jnz L108
 0302                   .dbline 303
 0302 9D97              xcall _Pitido
 0304           L108:
 0304                   .dbline 304
 0304           ; }
 0304 3D0001            cmp [X+0],1
 0307 B019              jnz L110
 0309                   .dbline 305
 0309           ; }
 0309                   .dbline 306
 0309           ; }
 0309 62D000            mov REG[0xd0],>__r0
 030C 5201              mov A,[X+1]
 030E 0101              add A,1
 0310 5300              mov [__r0],A
 0312 5004              mov A,4
 0314 3A00              cmp A,[__r0]
 0316 D006              jnc L112
 0318           X7:
 0318                   .dbline 306
 0318 560101            mov [X+1],1
 031B 8045              xjmp L111
 031D           L112:
 031D                   .dbline 307
 031D           ; }
 031D 7701              inc [X+1]
 031F                   .dbline 308
 031F           ; }
 031F 8041              xjmp L111
 0321           L110:
 0321                   .dbline 309
 0321           ; }
 0321 3D0003            cmp [X+0],3
 0324 B025              jnz L114
 0326                   .dbline 310
 0326           ; }
 0326                   .dbline 311
 0326           ; }
 0326 3D0101            cmp [X+1],1
 0329 B005              jnz L116
 032B                   .dbline 311
 032B 903D              xcall _Entrada1
 032D 8033              xjmp L115
 032F           L116:
 032F                   .dbline 312
 032F           ; }
 032F 3D0102            cmp [X+1],2
 0332 B005              jnz L118
 0334                   .dbline 312
 0334 90B6              xcall _Entrada2
 0336 802A              xjmp L115
 0338           L118:
 0338                   .dbline 313
 0338           ; }
 0338 3D0103            cmp [X+1],3
 033B B005              jnz L120
 033D                   .dbline 313
 033D 912F              xcall _Entrada3
 033F 8021              xjmp L115
 0341           L120:
 0341                   .dbline 314
 0341           ; }
 0341 3D0104            cmp [X+1],4
 0344 B01C              jnz L115
 0346                   .dbline 314
 0346 91A8              xcall _Entrada4
 0348                   .dbline 315
 0348           ; }
 0348 8018              xjmp L115
 034A           L114:
 034A                   .dbline 316
 034A           ; }
 034A 3D0002            cmp [X+0],2
 034D B013              jnz L124
 034F                   .dbline 317
 034F           ; }
 034F                   .dbline 318
 034F           ; }
 034F 62D000            mov REG[0xd0],>__r0
 0352 5201              mov A,[X+1]
 0354 1101              sub A,1
 0356 3901              cmp A,1
 0358 D006              jnc L126
 035A           X8:
 035A                   .dbline 318
 035A 560104            mov [X+1],4
 035D 8003              xjmp L127
 035F           L126:
 035F                   .dbline 319
 035F           ; }
 035F 7B01              dec [X+1]
 0361           L127:
 0361                   .dbline 320
 0361           ; }
 0361           L124:
 0361           L115:
 0361           L111:
 0361                   .dbline 321
 0361           L93:
 0361                   .dbline 321
 0361           ; }
 0361 3D0004            cmp [X+0],4
 0364 BF2D              jnz L92
 0366                   .dbline -2
 0366                   .dbline 322
 0366           ; }
 0366           L91:
 0366 38FC              add SP,-4
 0368 20                pop X
 0369                   .dbline 0 ; func end
 0369 7F                ret
 036A                   .dbsym l x 2 i
 036A                   .dbsym l menu 1 c
 036A                   .dbsym l pulsat 0 c
 036A                   .dbend
 036A                   .dbfunc e Entrada1 _Entrada1 fV
 036A           ;              x -> X+1
 036A           ;         pulsat -> X+0
 036A           _Entrada1::
 036A                   .dbline -1
 036A 10                push X
 036B 4F                mov X,SP
 036C 3803              add SP,3
 036E                   .dbline 332
 036E           ; }
 036E           ; }
 036E           ; }
 036E           ; }
 036E           ; }
 036E           ; }
 036E           ; }
 036E           ; }
 036E           ; }
 036E           ; }
 036E           L129:
 036E                   .dbline 337
 036E           ; }
 036E           ; }
 036E           ; }
 036E           ; }
 036E           ; }
 036E                   .dbline 338
 036E           ; }
 036E 10                push X
 036F 5001              mov A,1
 0371 7C0000            xcall _LCD_Control
 0374                   .dbline 339
 0374           ; }
 0374 5057              mov A,>L132
 0376 08                push A
 0377 5057              mov A,<L132
 0379 5C                mov X,A
 037A 18                pop A
 037B 7C0000            xcall _LCD_PrCString
 037E                   .dbline 340
 037E           ; }
 037E 5700              mov X,0
 0380 5001              mov A,1
 0382 7C0000            xcall _LCD_Position
 0385 20                pop X
 0386                   .dbline 341
 0386           ; }
 0386 62D000            mov REG[0xd0],>_Ent1
 0389 3C0000            cmp [_Ent1],0
 038C B00F              jnz L133
 038E                   .dbline 341
 038E 10                push X
 038F 5053              mov A,>L135
 0391 08                push A
 0392 5053              mov A,<L135
 0394 5C                mov X,A
 0395 18                pop A
 0396 7C0000            xcall _LCD_PrCString
 0399 20                pop X
 039A 800D              xjmp L134
 039C           L133:
 039C                   .dbline 342
 039C           ; }
 039C 10                push X
 039D 5050              mov A,>L136
 039F 08                push A
 03A0 5050              mov A,<L136
 03A2 5C                mov X,A
 03A3 18                pop A
 03A4 7C0000            xcall _LCD_PrCString
 03A7 20                pop X
 03A8           L134:
 03A8                   .dbline 343
 03A8           ; }
 03A8 9CA0              xcall _bucle_temp
 03AA                   .dbline 344
 03AA           ; }
 03AA 9D40              xcall _Pulsador
 03AC 5400              mov [X+0],A
 03AE                   .dbline 345
 03AE           ; }
 03AE 62D000            mov REG[0xd0],>_Buzzer
 03B1 3C0001            cmp [_Buzzer],1
 03B4 B003              jnz L137
 03B6                   .dbline 345
 03B6 9CE3              xcall _Pitido
 03B8           L137:
 03B8                   .dbline 346
 03B8           ; }
 03B8 3D0001            cmp [X+0],1
 03BB A006              jz L141
 03BD 3D0002            cmp [X+0],2
 03C0 B00A              jnz L139
 03C2           L141:
 03C2                   .dbline 347
 03C2           ; }
 03C2                   .dbline 348
 03C2           ; }
 03C2 5D00              mov A,REG[ 0]
 03C4 62D000            mov REG[0xd0],>__r0
 03C7 6000              mov REG[ 0],A
 03C9                   .dbline 349
 03C9           ; }
 03C9 8019              xjmp L140
 03CB           L139:
 03CB                   .dbline 350
 03CB           ; }
 03CB 3D0003            cmp [X+0],3
 03CE B014              jnz L142
 03D0                   .dbline 351
 03D0           ; }
 03D0                   .dbline 352
 03D0           ; }
 03D0 62D000            mov REG[0xd0],>_Ent1
 03D3 3C0000            cmp [_Ent1],0
 03D6 B006              jnz L144
 03D8                   .dbline 352
 03D8 550001            mov [_Ent1],1
 03DB 8007              xjmp L145
 03DD           L144:
 03DD                   .dbline 353
 03DD           ; }
 03DD 62D000            mov REG[0xd0],>_Ent1
 03E0 550000            mov [_Ent1],0
 03E3           L145:
 03E3                   .dbline 354
 03E3           ; }
 03E3           L142:
 03E3           L140:
 03E3                   .dbline 355
 03E3           L130:
 03E3                   .dbline 355
 03E3           ; }
 03E3 3D0004            cmp [X+0],4
 03E6 BF87              jnz L129
 03E8                   .dbline -2
 03E8                   .dbline 356
 03E8           ; }
 03E8           L128:
 03E8 38FD              add SP,-3
 03EA 20                pop X
 03EB                   .dbline 0 ; func end
 03EB 7F                ret
 03EC                   .dbsym l x 1 i
 03EC                   .dbsym l pulsat 0 c
 03EC                   .dbend
 03EC                   .dbfunc e Entrada2 _Entrada2 fV
 03EC           ;              x -> X+1
 03EC           ;         pulsat -> X+0
 03EC           _Entrada2::
 03EC                   .dbline -1
 03EC 10                push X
 03ED 4F                mov X,SP
 03EE 3803              add SP,3
 03F0                   .dbline 366
 03F0           ; }
 03F0           ; }
 03F0           ; }
 03F0           ; }
 03F0           ; }
 03F0           ; }
 03F0           ; }
 03F0           ; }
 03F0           ; }
 03F0           ; }
 03F0           L147:
 03F0                   .dbline 371
 03F0           ; }
 03F0           ; }
 03F0           ; }
 03F0           ; }
 03F0           ; }
 03F0                   .dbline 372
 03F0           ; }
 03F0 10                push X
 03F1 5001              mov A,1
 03F3 7C0000            xcall _LCD_Control
 03F6                   .dbline 373
 03F6           ; }
 03F6 5041              mov A,>L150
 03F8 08                push A
 03F9 5041              mov A,<L150
 03FB 5C                mov X,A
 03FC 18                pop A
 03FD 7C0000            xcall _LCD_PrCString
 0400                   .dbline 374
 0400           ; }
 0400 5700              mov X,0
 0402 5001              mov A,1
 0404 7C0000            xcall _LCD_Position
 0407 20                pop X
 0408                   .dbline 375
 0408           ; }
 0408 62D000            mov REG[0xd0],>_Ent2
 040B 3C0000            cmp [_Ent2],0
 040E B00F              jnz L151
 0410                   .dbline 375
 0410 10                push X
 0411 5053              mov A,>L135
 0413 08                push A
 0414 5053              mov A,<L135
 0416 5C                mov X,A
 0417 18                pop A
 0418 7C0000            xcall _LCD_PrCString
 041B 20                pop X
 041C 800D              xjmp L152
 041E           L151:
 041E                   .dbline 376
 041E           ; }
 041E 10                push X
 041F 5050              mov A,>L136
 0421 08                push A
 0422 5050              mov A,<L136
 0424 5C                mov X,A
 0425 18                pop A
 0426 7C0000            xcall _LCD_PrCString
 0429 20                pop X
 042A           L152:
 042A                   .dbline 377
 042A           ; }
 042A 9C1E              xcall _bucle_temp
 042C                   .dbline 378
 042C           ; }
 042C 9CBE              xcall _Pulsador
 042E 5400              mov [X+0],A
 0430                   .dbline 379
 0430           ; }
 0430 62D000            mov REG[0xd0],>_Buzzer
 0433 3C0001            cmp [_Buzzer],1
 0436 B003              jnz L153
 0438                   .dbline 379
 0438 9C61              xcall _Pitido
 043A           L153:
 043A                   .dbline 380
 043A           ; }
 043A 3D0001            cmp [X+0],1
 043D A006              jz L157
 043F 3D0002            cmp [X+0],2
 0442 B00A              jnz L155
 0444           L157:
 0444                   .dbline 381
 0444           ; }
 0444                   .dbline 382
 0444           ; }
 0444 5D00              mov A,REG[ 0]
 0446 62D000            mov REG[0xd0],>__r0
 0449 6000              mov REG[ 0],A
 044B                   .dbline 383
 044B           ; }
 044B 8019              xjmp L156
 044D           L155:
 044D                   .dbline 384
 044D           ; }
 044D 3D0003            cmp [X+0],3
 0450 B014              jnz L158
 0452                   .dbline 385
 0452           ; }
 0452                   .dbline 386
 0452           ; }
 0452 62D000            mov REG[0xd0],>_Ent2
 0455 3C0000            cmp [_Ent2],0
 0458 B006              jnz L160
 045A                   .dbline 386
 045A 550001            mov [_Ent2],1
 045D 8007              xjmp L161
 045F           L160:
 045F                   .dbline 387
 045F           ; }
 045F 62D000            mov REG[0xd0],>_Ent2
 0462 550000            mov [_Ent2],0
 0465           L161:
 0465                   .dbline 388
 0465           ; }
 0465           L158:
 0465           L156:
 0465                   .dbline 389
 0465           L148:
 0465                   .dbline 389
 0465           ; }
 0465 3D0004            cmp [X+0],4
 0468 BF87              jnz L147
 046A                   .dbline -2
 046A                   .dbline 390
 046A           ; }
 046A           L146:
 046A 38FD              add SP,-3
 046C 20                pop X
 046D                   .dbline 0 ; func end
 046D 7F                ret
 046E                   .dbsym l x 1 i
 046E                   .dbsym l pulsat 0 c
 046E                   .dbend
 046E                   .dbfunc e Entrada3 _Entrada3 fV
 046E           ;              x -> X+1
 046E           ;         pulsat -> X+0
 046E           _Entrada3::
 046E                   .dbline -1
 046E 10                push X
 046F 4F                mov X,SP
 0470 3803              add SP,3
 0472                   .dbline 400
 0472           ; }
 0472           ; }
 0472           ; }
 0472           ; }
 0472           ; }
 0472           ; }
 0472           ; }
 0472           ; }
 0472           ; }
 0472           ; }
 0472           L163:
 0472                   .dbline 405
 0472           ; }
 0472           ; }
 0472           ; }
 0472           ; }
 0472           ; }
 0472                   .dbline 406
 0472           ; }
 0472 10                push X
 0473 5001              mov A,1
 0475 7C0000            xcall _LCD_Control
 0478                   .dbline 407
 0478           ; }
 0478 5033              mov A,>L166
 047A 08                push A
 047B 5033              mov A,<L166
 047D 5C                mov X,A
 047E 18                pop A
 047F 7C0000            xcall _LCD_PrCString
 0482                   .dbline 408
 0482           ; }
 0482 5700              mov X,0
 0484 5001              mov A,1
 0486 7C0000            xcall _LCD_Position
 0489 20                pop X
 048A                   .dbline 409
 048A           ; }
 048A 62D000            mov REG[0xd0],>_Ent3
 048D 3C0000            cmp [_Ent3],0
 0490 B00F              jnz L167
 0492                   .dbline 409
 0492 10                push X
 0493 5053              mov A,>L135
 0495 08                push A
 0496 5053              mov A,<L135
 0498 5C                mov X,A
 0499 18                pop A
 049A 7C0000            xcall _LCD_PrCString
 049D 20                pop X
 049E 800D              xjmp L168
 04A0           L167:
 04A0                   .dbline 410
 04A0           ; }
 04A0 10                push X
 04A1 5050              mov A,>L136
 04A3 08                push A
 04A4 5050              mov A,<L136
 04A6 5C                mov X,A
 04A7 18                pop A
 04A8 7C0000            xcall _LCD_PrCString
 04AB 20                pop X
 04AC           L168:
 04AC                   .dbline 411
 04AC           ; }
 04AC 9B9C              xcall _bucle_temp
 04AE                   .dbline 412
 04AE           ; }
 04AE 9C3C              xcall _Pulsador
 04B0 5400              mov [X+0],A
 04B2                   .dbline 413
 04B2           ; }
 04B2 62D000            mov REG[0xd0],>_Buzzer
 04B5 3C0001            cmp [_Buzzer],1
 04B8 B003              jnz L169
 04BA                   .dbline 413
 04BA 9BDF              xcall _Pitido
 04BC           L169:
 04BC                   .dbline 414
 04BC           ; }
 04BC 3D0001            cmp [X+0],1
 04BF A006              jz L173
 04C1 3D0002            cmp [X+0],2
 04C4 B00A              jnz L171
 04C6           L173:
 04C6                   .dbline 415
 04C6           ; }
 04C6                   .dbline 416
 04C6           ; }
 04C6 5D00              mov A,REG[ 0]
 04C8 62D000            mov REG[0xd0],>__r0
 04CB 6000              mov REG[ 0],A
 04CD                   .dbline 417
 04CD           ; }
 04CD 8019              xjmp L172
 04CF           L171:
 04CF                   .dbline 418
 04CF           ; }
 04CF 3D0003            cmp [X+0],3
 04D2 B014              jnz L174
 04D4                   .dbline 419
 04D4           ; }
 04D4                   .dbline 420
 04D4           ; }
 04D4 62D000            mov REG[0xd0],>_Ent3
 04D7 3C0000            cmp [_Ent3],0
 04DA B006              jnz L176
 04DC                   .dbline 420
 04DC 550001            mov [_Ent3],1
 04DF 8007              xjmp L177
 04E1           L176:
 04E1                   .dbline 421
 04E1           ; }
 04E1 62D000            mov REG[0xd0],>_Ent3
 04E4 550000            mov [_Ent3],0
 04E7           L177:
 04E7                   .dbline 422
 04E7           ; }
 04E7           L174:
 04E7           L172:
 04E7                   .dbline 423
 04E7           L164:
 04E7                   .dbline 423
 04E7           ; }
 04E7 3D0004            cmp [X+0],4
 04EA BF87              jnz L163
 04EC                   .dbline -2
 04EC                   .dbline 424
 04EC           ; }
 04EC           L162:
 04EC 38FD              add SP,-3
 04EE 20                pop X
 04EF                   .dbline 0 ; func end
 04EF 7F                ret
 04F0                   .dbsym l x 1 i
 04F0                   .dbsym l pulsat 0 c
 04F0                   .dbend
 04F0                   .dbfunc e Entrada4 _Entrada4 fV
 04F0           ;              x -> X+1
 04F0           ;         pulsat -> X+0
 04F0           _Entrada4::
 04F0                   .dbline -1
 04F0 10                push X
 04F1 4F                mov X,SP
 04F2 3803              add SP,3
 04F4                   .dbline 434
 04F4           ; }
 04F4           ; }
 04F4           ; }
 04F4           ; }
 04F4           ; }
 04F4           ; }
 04F4           ; }
 04F4           ; }
 04F4           ; }
 04F4           ; }
 04F4           L179:
 04F4                   .dbline 439
 04F4           ; }
 04F4           ; }
 04F4           ; }
 04F4           ; }
 04F4           ; }
 04F4                   .dbline 440
 04F4           ; }
 04F4 10                push X
 04F5 5001              mov A,1
 04F7 7C0000            xcall _LCD_Control
 04FA                   .dbline 441
 04FA           ; }
 04FA 5025              mov A,>L182
 04FC 08                push A
 04FD 5025              mov A,<L182
 04FF 5C                mov X,A
 0500 18                pop A
 0501 7C0000            xcall _LCD_PrCString
 0504                   .dbline 442
 0504           ; }
 0504 5700              mov X,0
 0506 5001              mov A,1
 0508 7C0000            xcall _LCD_Position
 050B 20                pop X
 050C                   .dbline 443
 050C           ; }
 050C 62D000            mov REG[0xd0],>_Ent4
 050F 3C0000            cmp [_Ent4],0
 0512 B00F              jnz L183
 0514                   .dbline 443
 0514 10                push X
 0515 5053              mov A,>L135
 0517 08                push A
 0518 5053              mov A,<L135
 051A 5C                mov X,A
 051B 18                pop A
 051C 7C0000            xcall _LCD_PrCString
 051F 20                pop X
 0520 800D              xjmp L184
 0522           L183:
 0522                   .dbline 444
 0522           ; }
 0522 10                push X
 0523 5050              mov A,>L136
 0525 08                push A
 0526 5050              mov A,<L136
 0528 5C                mov X,A
 0529 18                pop A
 052A 7C0000            xcall _LCD_PrCString
 052D 20                pop X
 052E           L184:
 052E                   .dbline 445
 052E           ; }
 052E 9B1A              xcall _bucle_temp
 0530                   .dbline 446
 0530           ; }
 0530 9BBA              xcall _Pulsador
 0532 5400              mov [X+0],A
 0534                   .dbline 447
 0534           ; }
 0534 62D000            mov REG[0xd0],>_Buzzer
 0537 3C0001            cmp [_Buzzer],1
 053A B003              jnz L185
 053C                   .dbline 447
 053C 9B5D              xcall _Pitido
 053E           L185:
 053E                   .dbline 448
 053E           ; }
 053E 3D0001            cmp [X+0],1
 0541 A006              jz L189
 0543 3D0002            cmp [X+0],2
 0546 B00A              jnz L187
 0548           L189:
 0548                   .dbline 449
 0548           ; }
 0548                   .dbline 450
 0548           ; }
 0548 5D00              mov A,REG[ 0]
 054A 62D000            mov REG[0xd0],>__r0
 054D 6000              mov REG[ 0],A
 054F                   .dbline 451
 054F           ; }
 054F 8019              xjmp L188
 0551           L187:
 0551                   .dbline 452
 0551           ; }
 0551 3D0003            cmp [X+0],3
 0554 B014              jnz L190
 0556                   .dbline 453
 0556           ; }
 0556                   .dbline 454
 0556           ; }
 0556 62D000            mov REG[0xd0],>_Ent4
 0559 3C0000            cmp [_Ent4],0
 055C B006              jnz L192
 055E                   .dbline 454
 055E 550001            mov [_Ent4],1
 0561 8007              xjmp L193
 0563           L192:
 0563                   .dbline 455
 0563           ; }
 0563 62D000            mov REG[0xd0],>_Ent4
 0566 550000            mov [_Ent4],0
 0569           L193:
 0569                   .dbline 456
 0569           ; }
 0569           L190:
 0569           L188:
 0569                   .dbline 457
 0569           L180:
 0569                   .dbline 457
 0569           ; }
 0569 3D0004            cmp [X+0],4
 056C BF87              jnz L179
 056E                   .dbline -2
 056E                   .dbline 458
 056E           ; }
 056E           L178:
 056E 38FD              add SP,-3
 0570 20                pop X
 0571                   .dbline 0 ; func end
 0571 7F                ret
 0572                   .dbsym l x 1 i
 0572                   .dbsym l pulsat 0 c
 0572                   .dbend
 0572                   .dbfunc e Flashes _Flashes fV
 0572           ;              x -> X+2
 0572           ;           menu -> X+1
 0572           ;         pulsat -> X+0
 0572           _Flashes::
 0572                   .dbline -1
 0572 10                push X
 0573 4F                mov X,SP
 0574 3804              add SP,4
 0576                   .dbline 468
 0576           ; }
 0576           ; }
 0576           ; }
 0576           ; }
 0576           ; }
 0576           ; }
 0576           ; }
 0576           ; }
 0576           ; }
 0576           ; }
 0576                   .dbline 469
 0576           ; }
 0576 560101            mov [X+1],1
 0579           L195:
 0579                   .dbline 473
 0579           ; }
 0579           ; }
 0579           ; }
 0579           ; }
 0579                   .dbline 474
 0579           ; }
 0579 10                push X
 057A 5001              mov A,1
 057C 7C0000            xcall _LCD_Control
 057F                   .dbline 475
 057F           ; }
 057F 5016              mov A,>L198
 0581 08                push A
 0582 5016              mov A,<L198
 0584 5C                mov X,A
 0585 18                pop A
 0586 7C0000            xcall _LCD_PrCString
 0589                   .dbline 476
 0589           ; }
 0589 5700              mov X,0
 058B 5001              mov A,1
 058D 7C0000            xcall _LCD_Position
 0590 20                pop X
 0591                   .dbline 477
 0591           ; }
 0591 3D0101            cmp [X+1],1
 0594 B031              jnz L199
 0596                   .dbline 478
 0596           ; }
 0596                   .dbline 479
 0596           ; }
 0596 10                push X
 0597 500C              mov A,>L201
 0599 08                push A
 059A 500C              mov A,<L201
 059C 5C                mov X,A
 059D 18                pop A
 059E 7C0000            xcall _LCD_PrCString
 05A1 20                pop X
 05A2                   .dbline 480
 05A2           ; }
 05A2 62D000            mov REG[0xd0],>_Fla1
 05A5 3C0000            cmp [_Fla1],0
 05A8 B00F              jnz L202
 05AA                   .dbline 480
 05AA 10                push X
 05AB 5005              mov A,>L204
 05AD 08                push A
 05AE 5005              mov A,<L204
 05B0 5C                mov X,A
 05B1 18                pop A
 05B2 7C0000            xcall _LCD_PrCString
 05B5 20                pop X
 05B6 80AC              xjmp L200
 05B8           L202:
 05B8                   .dbline 481
 05B8           ; }
 05B8 10                push X
 05B9 50FF              mov A,>L205
 05BB 08                push A
 05BC 50FF              mov A,<L205
 05BE 5C                mov X,A
 05BF 18                pop A
 05C0 7C0000            xcall _LCD_PrCString
 05C3 20                pop X
 05C4                   .dbline 482
 05C4           ; }
 05C4 809E              xjmp L200
 05C6           L199:
 05C6                   .dbline 483
 05C6           ; }
 05C6 3D0102            cmp [X+1],2
 05C9 B031              jnz L206
 05CB                   .dbline 484
 05CB           ; }
 05CB                   .dbline 485
 05CB           ; }
 05CB 10                push X
 05CC 50F5              mov A,>L208
 05CE 08                push A
 05CF 50F5              mov A,<L208
 05D1 5C                mov X,A
 05D2 18                pop A
 05D3 7C0000            xcall _LCD_PrCString
 05D6 20                pop X
 05D7                   .dbline 486
 05D7           ; }
 05D7 62D000            mov REG[0xd0],>_Fla2
 05DA 3C0000            cmp [_Fla2],0
 05DD B00F              jnz L209
 05DF                   .dbline 486
 05DF 10                push X
 05E0 5005              mov A,>L204
 05E2 08                push A
 05E3 5005              mov A,<L204
 05E5 5C                mov X,A
 05E6 18                pop A
 05E7 7C0000            xcall _LCD_PrCString
 05EA 20                pop X
 05EB 8077              xjmp L207
 05ED           L209:
 05ED                   .dbline 487
 05ED           ; }
 05ED 10                push X
 05EE 50FF              mov A,>L205
 05F0 08                push A
 05F1 50FF              mov A,<L205
 05F3 5C                mov X,A
 05F4 18                pop A
 05F5 7C0000            xcall _LCD_PrCString
 05F8 20                pop X
 05F9                   .dbline 488
 05F9           ; }
 05F9 8069              xjmp L207
 05FB           L206:
 05FB                   .dbline 489
 05FB           ; }
 05FB 3D0103            cmp [X+1],3
 05FE B031              jnz L211
 0600                   .dbline 490
 0600           ; }
 0600                   .dbline 492
 0600           ; }
 0600           ; }
 0600 10                push X
 0601 50EB              mov A,>L213
 0603 08                push A
 0604 50EB              mov A,<L213
 0606 5C                mov X,A
 0607 18                pop A
 0608 7C0000            xcall _LCD_PrCString
 060B 20                pop X
 060C                   .dbline 493
 060C           ; }
 060C 62D000            mov REG[0xd0],>_Fla3
 060F 3C0000            cmp [_Fla3],0
 0612 B00F              jnz L214
 0614                   .dbline 493
 0614 10                push X
 0615 5005              mov A,>L204
 0617 08                push A
 0618 5005              mov A,<L204
 061A 5C                mov X,A
 061B 18                pop A
 061C 7C0000            xcall _LCD_PrCString
 061F 20                pop X
 0620 8042              xjmp L212
 0622           L214:
 0622                   .dbline 494
 0622           ; }
 0622 10                push X
 0623 50FF              mov A,>L205
 0625 08                push A
 0626 50FF              mov A,<L205
 0628 5C                mov X,A
 0629 18                pop A
 062A 7C0000            xcall _LCD_PrCString
 062D 20                pop X
 062E                   .dbline 495
 062E           ; }
 062E 8034              xjmp L212
 0630           L211:
 0630                   .dbline 496
 0630           ; }
 0630 3D0104            cmp [X+1],4
 0633 B02F              jnz L216
 0635                   .dbline 497
 0635           ; }
 0635                   .dbline 498
 0635           ; }
 0635 10                push X
 0636 50E1              mov A,>L218
 0638 08                push A
 0639 50E1              mov A,<L218
 063B 5C                mov X,A
 063C 18                pop A
 063D 7C0000            xcall _LCD_PrCString
 0640 20                pop X
 0641                   .dbline 499
 0641           ; }
 0641 62D000            mov REG[0xd0],>_Fla4
 0644 3C0000            cmp [_Fla4],0
 0647 B00F              jnz L219
 0649                   .dbline 499
 0649 10                push X
 064A 50D9              mov A,>L221
 064C 08                push A
 064D 50D9              mov A,<L221
 064F 5C                mov X,A
 0650 18                pop A
 0651 7C0000            xcall _LCD_PrCString
 0654 20                pop X
 0655 800D              xjmp L220
 0657           L219:
 0657                   .dbline 500
 0657           ; }
 0657 10                push X
 0658 50FF              mov A,>L205
 065A 08                push A
 065B 50FF              mov A,<L205
 065D 5C                mov X,A
 065E 18                pop A
 065F 7C0000            xcall _LCD_PrCString
 0662 20                pop X
 0663           L220:
 0663                   .dbline 501
 0663           ; }
 0663           L216:
 0663           L212:
 0663           L207:
 0663           L200:
 0663                   .dbline 502
 0663           ; }
 0663 99E5              xcall _bucle_temp
 0665                   .dbline 503
 0665           ; }
 0665 9A85              xcall _Pulsador
 0667 5400              mov [X+0],A
 0669                   .dbline 504
 0669           ; }
 0669 62D000            mov REG[0xd0],>_Buzzer
 066C 3C0001            cmp [_Buzzer],1
 066F B003              jnz L222
 0671                   .dbline 504
 0671 9A28              xcall _Pitido
 0673           L222:
 0673                   .dbline 505
 0673           ; }
 0673 3D0001            cmp [X+0],1
 0676 B019              jnz L224
 0678                   .dbline 506
 0678           ; }
 0678                   .dbline 507
 0678           ; }
 0678 62D000            mov REG[0xd0],>__r0
 067B 5201              mov A,[X+1]
 067D 0101              add A,1
 067F 5300              mov [__r0],A
 0681 5004              mov A,4
 0683 3A00              cmp A,[__r0]
 0685 D006              jnc L226
 0687           X9:
 0687                   .dbline 507
 0687 560101            mov [X+1],1
 068A 8045              xjmp L225
 068C           L226:
 068C                   .dbline 508
 068C           ; }
 068C 7701              inc [X+1]
 068E                   .dbline 509
 068E           ; }
 068E 8041              xjmp L225
 0690           L224:
 0690                   .dbline 510
 0690           ; }
 0690 3D0003            cmp [X+0],3
 0693 B025              jnz L228
 0695                   .dbline 511
 0695           ; }
 0695                   .dbline 512
 0695           ; }
 0695 3D0101            cmp [X+1],1
 0698 B005              jnz L230
 069A                   .dbline 512
 069A 903D              xcall _Flash1
 069C 8033              xjmp L229
 069E           L230:
 069E                   .dbline 513
 069E           ; }
 069E 3D0102            cmp [X+1],2
 06A1 B005              jnz L232
 06A3                   .dbline 513
 06A3 90B6              xcall _Flash2
 06A5 802A              xjmp L229
 06A7           L232:
 06A7                   .dbline 514
 06A7           ; }
 06A7 3D0103            cmp [X+1],3
 06AA B005              jnz L234
 06AC                   .dbline 514
 06AC 912F              xcall _Flash3
 06AE 8021              xjmp L229
 06B0           L234:
 06B0                   .dbline 515
 06B0           ; }
 06B0 3D0104            cmp [X+1],4
 06B3 B01C              jnz L229
 06B5                   .dbline 515
 06B5 91A8              xcall _Flash4
 06B7                   .dbline 516
 06B7           ; }
 06B7 8018              xjmp L229
 06B9           L228:
 06B9                   .dbline 517
 06B9           ; }
 06B9 3D0002            cmp [X+0],2
 06BC B013              jnz L238
 06BE                   .dbline 518
 06BE           ; }
 06BE                   .dbline 519
 06BE           ; }
 06BE 62D000            mov REG[0xd0],>__r0
 06C1 5201              mov A,[X+1]
 06C3 1101              sub A,1
 06C5 3901              cmp A,1
 06C7 D006              jnc L240
 06C9           X10:
 06C9                   .dbline 519
 06C9 560104            mov [X+1],4
 06CC 8003              xjmp L241
 06CE           L240:
 06CE                   .dbline 520
 06CE           ; }
 06CE 7B01              dec [X+1]
 06D0           L241:
 06D0                   .dbline 521
 06D0           ; }
 06D0           L238:
 06D0           L229:
 06D0           L225:
 06D0                   .dbline 522
 06D0           L196:
 06D0                   .dbline 522
 06D0           ; }
 06D0 3D0004            cmp [X+0],4
 06D3 BEA5              jnz L195
 06D5                   .dbline -2
 06D5                   .dbline 523
 06D5           ; }
 06D5           L194:
 06D5 38FC              add SP,-4
 06D7 20                pop X
 06D8                   .dbline 0 ; func end
 06D8 7F                ret
 06D9                   .dbsym l x 2 i
 06D9                   .dbsym l menu 1 c
 06D9                   .dbsym l pulsat 0 c
 06D9                   .dbend
 06D9                   .dbfunc e Flash1 _Flash1 fV
 06D9           ;              x -> X+1
 06D9           ;         pulsat -> X+0
 06D9           _Flash1::
 06D9                   .dbline -1
 06D9 10                push X
 06DA 4F                mov X,SP
 06DB 3803              add SP,3
 06DD                   .dbline 532
 06DD           ; }
 06DD           ; }
 06DD           ; }
 06DD           ; }
 06DD           ; }
 06DD           ; }
 06DD           ; }
 06DD           ; }
 06DD           ; }
 06DD           L243:
 06DD                   .dbline 537
 06DD           ; }
 06DD           ; }
 06DD           ; }
 06DD           ; }
 06DD           ; }
 06DD                   .dbline 538
 06DD           ; }
 06DD 10                push X
 06DE 5001              mov A,1
 06E0 7C0000            xcall _LCD_Control
 06E3                   .dbline 539
 06E3           ; }
 06E3 50D0              mov A,>L246
 06E5 08                push A
 06E6 50D0              mov A,<L246
 06E8 5C                mov X,A
 06E9 18                pop A
 06EA 7C0000            xcall _LCD_PrCString
 06ED                   .dbline 540
 06ED           ; }
 06ED 5700              mov X,0
 06EF 5001              mov A,1
 06F1 7C0000            xcall _LCD_Position
 06F4 20                pop X
 06F5                   .dbline 541
 06F5           ; }
 06F5 62D000            mov REG[0xd0],>_Fla1
 06F8 3C0000            cmp [_Fla1],0
 06FB B00F              jnz L247
 06FD                   .dbline 541
 06FD 10                push X
 06FE 5053              mov A,>L135
 0700 08                push A
 0701 5053              mov A,<L135
 0703 5C                mov X,A
 0704 18                pop A
 0705 7C0000            xcall _LCD_PrCString
 0708 20                pop X
 0709 800D              xjmp L248
 070B           L247:
 070B                   .dbline 542
 070B           ; }
 070B 10                push X
 070C 5050              mov A,>L136
 070E 08                push A
 070F 5050              mov A,<L136
 0711 5C                mov X,A
 0712 18                pop A
 0713 7C0000            xcall _LCD_PrCString
 0716 20                pop X
 0717           L248:
 0717                   .dbline 543
 0717           ; }
 0717 9931              xcall _bucle_temp
 0719                   .dbline 544
 0719           ; }
 0719 99D1              xcall _Pulsador
 071B 5400              mov [X+0],A
 071D                   .dbline 545
 071D           ; }
 071D 62D000            mov REG[0xd0],>_Buzzer
 0720 3C0001            cmp [_Buzzer],1
 0723 B003              jnz L249
 0725                   .dbline 545
 0725 9974              xcall _Pitido
 0727           L249:
 0727                   .dbline 546
 0727           ; }
 0727 3D0001            cmp [X+0],1
 072A A006              jz L253
 072C 3D0002            cmp [X+0],2
 072F B00A              jnz L251
 0731           L253:
 0731                   .dbline 547
 0731           ; }
 0731                   .dbline 548
 0731           ; }
 0731 5D00              mov A,REG[ 0]
 0733 62D000            mov REG[0xd0],>__r0
 0736 6000              mov REG[ 0],A
 0738                   .dbline 549
 0738           ; }
 0738 8019              xjmp L252
 073A           L251:
 073A                   .dbline 550
 073A           ; }
 073A 3D0003            cmp [X+0],3
 073D B014              jnz L254
 073F                   .dbline 551
 073F           ; }
 073F                   .dbline 552
 073F           ; }
 073F 62D000            mov REG[0xd0],>_Fla1
 0742 3C0000            cmp [_Fla1],0
 0745 B006              jnz L256
 0747                   .dbline 552
 0747 550001            mov [_Fla1],1
 074A 8007              xjmp L257
 074C           L256:
 074C                   .dbline 553
 074C           ; }
 074C 62D000            mov REG[0xd0],>_Fla1
 074F 550000            mov [_Fla1],0
 0752           L257:
 0752                   .dbline 554
 0752           ; }
 0752           L254:
 0752           L252:
 0752                   .dbline 555
 0752           L244:
 0752                   .dbline 555
 0752           ; }
 0752 3D0004            cmp [X+0],4
 0755 BF87              jnz L243
 0757                   .dbline -2
 0757                   .dbline 556
 0757           ; }
 0757           L242:
 0757 38FD              add SP,-3
 0759 20                pop X
 075A                   .dbline 0 ; func end
 075A 7F                ret
 075B                   .dbsym l x 1 i
 075B                   .dbsym l pulsat 0 c
 075B                   .dbend
 075B                   .dbfunc e Flash2 _Flash2 fV
 075B           ;              x -> X+1
 075B           ;         pulsat -> X+0
 075B           _Flash2::
 075B                   .dbline -1
 075B 10                push X
 075C 4F                mov X,SP
 075D 3803              add SP,3
 075F                   .dbline 566
 075F           ; }
 075F           ; }
 075F           ; }
 075F           ; }
 075F           ; }
 075F           ; }
 075F           ; }
 075F           ; }
 075F           ; }
 075F           ; }
 075F           L259:
 075F                   .dbline 571
 075F           ; }
 075F           ; }
 075F           ; }
 075F           ; }
 075F           ; }
 075F                   .dbline 572
 075F           ; }
 075F 10                push X
 0760 5001              mov A,1
 0762 7C0000            xcall _LCD_Control
 0765                   .dbline 573
 0765           ; }
 0765 50C7              mov A,>L262
 0767 08                push A
 0768 50C7              mov A,<L262
 076A 5C                mov X,A
 076B 18                pop A
 076C 7C0000            xcall _LCD_PrCString
 076F                   .dbline 574
 076F           ; }
 076F 5700              mov X,0
 0771 5001              mov A,1
 0773 7C0000            xcall _LCD_Position
 0776 20                pop X
 0777                   .dbline 575
 0777           ; }
 0777 62D000            mov REG[0xd0],>_Fla2
 077A 3C0000            cmp [_Fla2],0
 077D B00F              jnz L263
 077F                   .dbline 575
 077F 10                push X
 0780 5053              mov A,>L135
 0782 08                push A
 0783 5053              mov A,<L135
 0785 5C                mov X,A
 0786 18                pop A
 0787 7C0000            xcall _LCD_PrCString
 078A 20                pop X
 078B 800D              xjmp L264
 078D           L263:
 078D                   .dbline 576
 078D           ; }
 078D 10                push X
 078E 5050              mov A,>L136
 0790 08                push A
 0791 5050              mov A,<L136
 0793 5C                mov X,A
 0794 18                pop A
 0795 7C0000            xcall _LCD_PrCString
 0798 20                pop X
 0799           L264:
 0799                   .dbline 577
 0799           ; }
 0799 98AF              xcall _bucle_temp
 079B                   .dbline 578
 079B           ; }
 079B 994F              xcall _Pulsador
 079D 5400              mov [X+0],A
 079F                   .dbline 579
 079F           ; }
 079F 62D000            mov REG[0xd0],>_Buzzer
 07A2 3C0001            cmp [_Buzzer],1
 07A5 B003              jnz L265
 07A7                   .dbline 579
 07A7 98F2              xcall _Pitido
 07A9           L265:
 07A9                   .dbline 580
 07A9           ; }
 07A9 3D0001            cmp [X+0],1
 07AC A006              jz L269
 07AE 3D0002            cmp [X+0],2
 07B1 B00A              jnz L267
 07B3           L269:
 07B3                   .dbline 581
 07B3           ; }
 07B3                   .dbline 582
 07B3           ; }
 07B3 5D00              mov A,REG[ 0]
 07B5 62D000            mov REG[0xd0],>__r0
 07B8 6000              mov REG[ 0],A
 07BA                   .dbline 583
 07BA           ; }
 07BA 8019              xjmp L268
 07BC           L267:
 07BC                   .dbline 584
 07BC           ; }
 07BC 3D0003            cmp [X+0],3
 07BF B014              jnz L270
 07C1                   .dbline 585
 07C1           ; }
 07C1                   .dbline 586
 07C1           ; }
 07C1 62D000            mov REG[0xd0],>_Fla2
 07C4 3C0000            cmp [_Fla2],0
 07C7 B006              jnz L272
 07C9                   .dbline 586
 07C9 550001            mov [_Fla2],1
 07CC 8007              xjmp L273
 07CE           L272:
 07CE                   .dbline 587
 07CE           ; }
 07CE 62D000            mov REG[0xd0],>_Fla2
 07D1 550000            mov [_Fla2],0
 07D4           L273:
 07D4                   .dbline 588
 07D4           ; }
 07D4           L270:
 07D4           L268:
 07D4                   .dbline 589
 07D4           L260:
 07D4                   .dbline 589
 07D4           ; }
 07D4 3D0004            cmp [X+0],4
 07D7 BF87              jnz L259
 07D9                   .dbline -2
 07D9                   .dbline 590
 07D9           ; }
 07D9           L258:
 07D9 38FD              add SP,-3
 07DB 20                pop X
 07DC                   .dbline 0 ; func end
 07DC 7F                ret
 07DD                   .dbsym l x 1 i
 07DD                   .dbsym l pulsat 0 c
 07DD                   .dbend
 07DD                   .dbfunc e Flash3 _Flash3 fV
 07DD           ;              x -> X+1
 07DD           ;         pulsat -> X+0
 07DD           _Flash3::
 07DD                   .dbline -1
 07DD 10                push X
 07DE 4F                mov X,SP
 07DF 3803              add SP,3
 07E1                   .dbline 599
 07E1           ; }
 07E1           ; }
 07E1           ; }
 07E1           ; }
 07E1           ; }
 07E1           ; }
 07E1           ; }
 07E1           ; }
 07E1           ; }
 07E1           L275:
 07E1                   .dbline 604
 07E1           ; }
 07E1           ; }
 07E1           ; }
 07E1           ; }
 07E1           ; }
 07E1                   .dbline 605
 07E1           ; }
 07E1 10                push X
 07E2 5001              mov A,1
 07E4 7C0000            xcall _LCD_Control
 07E7                   .dbline 606
 07E7           ; }
 07E7 50BE              mov A,>L278
 07E9 08                push A
 07EA 50BE              mov A,<L278
 07EC 5C                mov X,A
 07ED 18                pop A
 07EE 7C0000            xcall _LCD_PrCString
 07F1                   .dbline 607
 07F1           ; }
 07F1 5700              mov X,0
 07F3 5001              mov A,1
 07F5 7C0000            xcall _LCD_Position
 07F8 20                pop X
 07F9                   .dbline 608
 07F9           ; }
 07F9 62D000            mov REG[0xd0],>_Fla3
 07FC 3C0000            cmp [_Fla3],0
 07FF B00F              jnz L279
 0801                   .dbline 608
 0801 10                push X
 0802 5053              mov A,>L135
 0804 08                push A
 0805 5053              mov A,<L135
 0807 5C                mov X,A
 0808 18                pop A
 0809 7C0000            xcall _LCD_PrCString
 080C 20                pop X
 080D 800D              xjmp L280
 080F           L279:
 080F                   .dbline 609
 080F           ; }
 080F 10                push X
 0810 5050              mov A,>L136
 0812 08                push A
 0813 5050              mov A,<L136
 0815 5C                mov X,A
 0816 18                pop A
 0817 7C0000            xcall _LCD_PrCString
 081A 20                pop X
 081B           L280:
 081B                   .dbline 610
 081B           ; }
 081B 982D              xcall _bucle_temp
 081D                   .dbline 611
 081D           ; }
 081D 98CD              xcall _Pulsador
 081F 5400              mov [X+0],A
 0821                   .dbline 612
 0821           ; }
 0821 62D000            mov REG[0xd0],>_Buzzer
 0824 3C0001            cmp [_Buzzer],1
 0827 B003              jnz L281
 0829                   .dbline 612
 0829 9870              xcall _Pitido
 082B           L281:
 082B                   .dbline 613
 082B           ; }
 082B 3D0001            cmp [X+0],1
 082E A006              jz L285
 0830 3D0002            cmp [X+0],2
 0833 B00A              jnz L283
 0835           L285:
 0835                   .dbline 614
 0835           ; }
 0835                   .dbline 615
 0835           ; }
 0835 5D00              mov A,REG[ 0]
 0837 62D000            mov REG[0xd0],>__r0
 083A 6000              mov REG[ 0],A
 083C                   .dbline 616
 083C           ; }
 083C 8019              xjmp L284
 083E           L283:
 083E                   .dbline 617
 083E           ; }
 083E 3D0003            cmp [X+0],3
 0841 B014              jnz L286
 0843                   .dbline 618
 0843           ; }
 0843                   .dbline 619
 0843           ; }
 0843 62D000            mov REG[0xd0],>_Fla3
 0846 3C0000            cmp [_Fla3],0
 0849 B006              jnz L288
 084B                   .dbline 619
 084B 550001            mov [_Fla3],1
 084E 8007              xjmp L289
 0850           L288:
 0850                   .dbline 620
 0850           ; }
 0850 62D000            mov REG[0xd0],>_Fla3
 0853 550000            mov [_Fla3],0
 0856           L289:
 0856                   .dbline 621
 0856           ; }
 0856           L286:
 0856           L284:
 0856                   .dbline 622
 0856           L276:
 0856                   .dbline 622
 0856           ; }
 0856 3D0004            cmp [X+0],4
 0859 BF87              jnz L275
 085B                   .dbline -2
 085B                   .dbline 623
 085B           ; }
 085B           L274:
 085B 38FD              add SP,-3
 085D 20                pop X
 085E                   .dbline 0 ; func end
 085E 7F                ret
 085F                   .dbsym l x 1 i
 085F                   .dbsym l pulsat 0 c
 085F                   .dbend
 085F                   .dbfunc e Flash4 _Flash4 fV
 085F           ;              x -> X+1
 085F           ;         pulsat -> X+0
 085F           _Flash4::
 085F                   .dbline -1
 085F 10                push X
 0860 4F                mov X,SP
 0861 3803              add SP,3
 0863                   .dbline 632
 0863           ; }
 0863           ; }
 0863           ; }
 0863           ; }
 0863           ; }
 0863           ; }
 0863           ; }
 0863           ; }
 0863           ; }
 0863           L291:
 0863                   .dbline 637
 0863           ; }
 0863           ; }
 0863           ; }
 0863           ; }
 0863           ; }
 0863                   .dbline 638
 0863           ; }
 0863 10                push X
 0864 5001              mov A,1
 0866 7C0000            xcall _LCD_Control
 0869                   .dbline 639
 0869           ; }
 0869 50B5              mov A,>L294
 086B 08                push A
 086C 50B5              mov A,<L294
 086E 5C                mov X,A
 086F 18                pop A
 0870 7C0000            xcall _LCD_PrCString
 0873                   .dbline 640
 0873           ; }
 0873 5700              mov X,0
 0875 5001              mov A,1
 0877 7C0000            xcall _LCD_Position
 087A 20                pop X
 087B                   .dbline 641
 087B           ; }
 087B 62D000            mov REG[0xd0],>_Fla4
 087E 3C0000            cmp [_Fla4],0
 0881 B00F              jnz L295
 0883                   .dbline 641
 0883 10                push X
 0884 5053              mov A,>L135
 0886 08                push A
 0887 5053              mov A,<L135
 0889 5C                mov X,A
 088A 18                pop A
 088B 7C0000            xcall _LCD_PrCString
 088E 20                pop X
 088F 800D              xjmp L296
 0891           L295:
 0891                   .dbline 642
 0891           ; }
 0891 10                push X
 0892 5050              mov A,>L136
 0894 08                push A
 0895 5050              mov A,<L136
 0897 5C                mov X,A
 0898 18                pop A
 0899 7C0000            xcall _LCD_PrCString
 089C 20                pop X
 089D           L296:
 089D                   .dbline 643
 089D           ; }
 089D 7C004A            xcall _bucle_temp
 08A0                   .dbline 644
 08A0           ; }
 08A0 984A              xcall _Pulsador
 08A2 5400              mov [X+0],A
 08A4                   .dbline 645
 08A4           ; }
 08A4 62D000            mov REG[0xd0],>_Buzzer
 08A7 3C0001            cmp [_Buzzer],1
 08AA B004              jnz L297
 08AC                   .dbline 645
 08AC 7C009B            xcall _Pitido
 08AF           L297:
 08AF                   .dbline 646
 08AF           ; }
 08AF 3D0001            cmp [X+0],1
 08B2 A006              jz L301
 08B4 3D0002            cmp [X+0],2
 08B7 B00A              jnz L299
 08B9           L301:
 08B9                   .dbline 647
 08B9           ; }
 08B9                   .dbline 648
 08B9           ; }
 08B9 5D00              mov A,REG[ 0]
 08BB 62D000            mov REG[0xd0],>__r0
 08BE 6000              mov REG[ 0],A
 08C0                   .dbline 649
 08C0           ; }
 08C0 8019              xjmp L300
 08C2           L299:
 08C2                   .dbline 650
 08C2           ; }
 08C2 3D0003            cmp [X+0],3
 08C5 B014              jnz L302
 08C7                   .dbline 651
 08C7           ; }
 08C7                   .dbline 652
 08C7           ; }
 08C7 62D000            mov REG[0xd0],>_Fla4
 08CA 3C0000            cmp [_Fla4],0
 08CD B006              jnz L304
 08CF                   .dbline 652
 08CF 550001            mov [_Fla4],1
 08D2 8007              xjmp L305
 08D4           L304:
 08D4                   .dbline 653
 08D4           ; }
 08D4 62D000            mov REG[0xd0],>_Fla4
 08D7 550000            mov [_Fla4],0
 08DA           L305:
 08DA                   .dbline 654
 08DA           ; }
 08DA           L302:
 08DA           L300:
 08DA                   .dbline 655
 08DA           L292:
 08DA                   .dbline 655
 08DA           ; }
 08DA 3D0004            cmp [X+0],4
 08DD BF85              jnz L291
 08DF                   .dbline -2
 08DF                   .dbline 656
 08DF           ; }
 08DF           L290:
 08DF 38FD              add SP,-3
 08E1 20                pop X
 08E2                   .dbline 0 ; func end
 08E2 7F                ret
 08E3                   .dbsym l x 1 i
 08E3                   .dbsym l pulsat 0 c
 08E3                   .dbend
 08E3                   .dbfunc e Dispar _Dispar fV
 08E3           ;              x -> X+2
 08E3           ;           menu -> X+1
 08E3           ;         pulsat -> X+0
 08E3           _Dispar::
 08E3                   .dbline -1
 08E3 10                push X
 08E4 4F                mov X,SP
 08E5 3804              add SP,4
 08E7                   .dbline 666
 08E7           ; }
 08E7           ; }
 08E7           ; }
 08E7           ; }
 08E7           ; }
 08E7           ; }
 08E7           ; }
 08E7           ; }
 08E7           ; }
 08E7           ; }
 08E7                   .dbline 668
 08E7           ; }
 08E7           ; }
 08E7 560101            mov [X+1],1
 08EA           L307:
 08EA                   .dbline 672
 08EA           ; }
 08EA           ; }
 08EA           ; }
 08EA           ; }
 08EA                   .dbline 673
 08EA           ; }
 08EA 10                push X
 08EB 5001              mov A,1
 08ED 7C0000            xcall _LCD_Control
 08F0                   .dbline 674
 08F0           ; }
 08F0 50A6              mov A,>L310
 08F2 08                push A
 08F3 50A6              mov A,<L310
 08F5 5C                mov X,A
 08F6 18                pop A
 08F7 7C0000            xcall _LCD_PrCString
 08FA                   .dbline 675
 08FA           ; }
 08FA 5700              mov X,0
 08FC 5001              mov A,1
 08FE 7C0000            xcall _LCD_Position
 0901 20                pop X
 0902                   .dbline 676
 0902           ; }
 0902 3D0101            cmp [X+1],1
 0905 B00F              jnz L311
 0907                   .dbline 676
 0907 10                push X
 0908 509B              mov A,>L313
 090A 08                push A
 090B 509B              mov A,<L313
 090D 5C                mov X,A
 090E 18                pop A
 090F 7C0000            xcall _LCD_PrCString
 0912 20                pop X
 0913 8012              xjmp L312
 0915           L311:
 0915                   .dbline 677
 0915           ; }
 0915 3D0102            cmp [X+1],2
 0918 B00D              jnz L314
 091A                   .dbline 677
 091A 10                push X
 091B 5090              mov A,>L316
 091D 08                push A
 091E 5090              mov A,<L316
 0920 5C                mov X,A
 0921 18                pop A
 0922 7C0000            xcall _LCD_PrCString
 0925 20                pop X
 0926           L314:
 0926           L312:
 0926                   .dbline 678
 0926           ; }
 0926 7C004A            xcall _bucle_temp
 0929                   .dbline 679
 0929           ; }
 0929 7C00EC            xcall _Pulsador
 092C 5400              mov [X+0],A
 092E                   .dbline 680
 092E           ; }
 092E 62D000            mov REG[0xd0],>_Buzzer
 0931 3C0001            cmp [_Buzzer],1
 0934 B004              jnz L317
 0936                   .dbline 680
 0936 7C009B            xcall _Pitido
 0939           L317:
 0939                   .dbline 681
 0939           ; }
 0939 3D0001            cmp [X+0],1
 093C B019              jnz L319
 093E                   .dbline 682
 093E           ; }
 093E                   .dbline 683
 093E           ; }
 093E 62D000            mov REG[0xd0],>__r0
 0941 5201              mov A,[X+1]
 0943 0101              add A,1
 0945 5300              mov [__r0],A
 0947 5002              mov A,2
 0949 3A00              cmp A,[__r0]
 094B D006              jnc L321
 094D           X11:
 094D                   .dbline 683
 094D 560101            mov [X+1],1
 0950 8033              xjmp L320
 0952           L321:
 0952                   .dbline 684
 0952           ; }
 0952 7701              inc [X+1]
 0954                   .dbline 685
 0954           ; }
 0954 802F              xjmp L320
 0956           L319:
 0956                   .dbline 686
 0956           ; }
 0956 3D0003            cmp [X+0],3
 0959 B013              jnz L323
 095B                   .dbline 687
 095B           ; }
 095B                   .dbline 688
 095B           ; }
 095B 3D0101            cmp [X+1],1
 095E B005              jnz L325
 0960                   .dbline 688
 0960 902B              xcall _Camara1
 0962 8021              xjmp L324
 0964           L325:
 0964                   .dbline 689
 0964           ; }
 0964 3D0102            cmp [X+1],2
 0967 B01C              jnz L324
 0969                   .dbline 689
 0969 90CF              xcall _Camara2
 096B                   .dbline 690
 096B           ; }
 096B 8018              xjmp L324
 096D           L323:
 096D                   .dbline 691
 096D           ; }
 096D 3D0002            cmp [X+0],2
 0970 B013              jnz L329
 0972                   .dbline 692
 0972           ; }
 0972                   .dbline 693
 0972           ; }
 0972 62D000            mov REG[0xd0],>__r0
 0975 5201              mov A,[X+1]
 0977 1101              sub A,1
 0979 3901              cmp A,1
 097B D006              jnc L331
 097D           X12:
 097D                   .dbline 693
 097D 560102            mov [X+1],2
 0980 8003              xjmp L332
 0982           L331:
 0982                   .dbline 694
 0982           ; }
 0982 7B01              dec [X+1]
 0984           L332:
 0984                   .dbline 695
 0984           ; }
 0984           L329:
 0984           L324:
 0984           L320:
 0984                   .dbline 696
 0984           L308:
 0984                   .dbline 696
 0984           ; }
 0984 3D0004            cmp [X+0],4
 0987 BF62              jnz L307
 0989                   .dbline -2
 0989                   .dbline 697
 0989           ; }
 0989           L306:
 0989 38FC              add SP,-4
 098B 20                pop X
 098C                   .dbline 0 ; func end
 098C 7F                ret
 098D                   .dbsym l x 2 i
 098D                   .dbsym l menu 1 c
 098D                   .dbsym l pulsat 0 c
 098D                   .dbend
 098D                   .dbfunc e Camara1 _Camara1 fV
 098D           ;              x -> X+1
 098D           ;         pulsat -> X+0
 098D           _Camara1::
 098D                   .dbline -1
 098D 10                push X
 098E 4F                mov X,SP
 098F 3803              add SP,3
 0991                   .dbline 706
 0991           ; }
 0991           ; }
 0991           ; }
 0991           ; }
 0991           ; }
 0991           ; }
 0991           ; }
 0991           ; }
 0991           ; }
 0991           L334:
 0991                   .dbline 711
 0991           ; }
 0991           ; }
 0991           ; }
 0991           ; }
 0991           ; }
 0991                   .dbline 712
 0991           ; }
 0991 10                push X
 0992 5001              mov A,1
 0994 7C0000            xcall _LCD_Control
 0997                   .dbline 713
 0997           ; }
 0997 5086              mov A,>L337
 0999 08                push A
 099A 5086              mov A,<L337
 099C 5C                mov X,A
 099D 18                pop A
 099E 7C0000            xcall _LCD_PrCString
 09A1                   .dbline 714
 09A1           ; }
 09A1 5700              mov X,0
 09A3 5001              mov A,1
 09A5 7C0000            xcall _LCD_Position
 09A8 20                pop X
 09A9                   .dbline 715
 09A9           ; }
 09A9 62D000            mov REG[0xd0],>_Cam1
 09AC 3C0000            cmp [_Cam1],0
 09AF B00F              jnz L338
 09B1                   .dbline 715
 09B1 10                push X
 09B2 507B              mov A,>L340
 09B4 08                push A
 09B5 507B              mov A,<L340
 09B7 5C                mov X,A
 09B8 18                pop A
 09B9 7C0000            xcall _LCD_PrCString
 09BC 20                pop X
 09BD 8041              xjmp L339
 09BF           L338:
 09BF                   .dbline 716
 09BF           ; }
 09BF 62D000            mov REG[0xd0],>_Cam1
 09C2 3C0001            cmp [_Cam1],1
 09C5 B00F              jnz L341
 09C7                   .dbline 716
 09C7 10                push X
 09C8 506F              mov A,>L343
 09CA 08                push A
 09CB 506F              mov A,<L343
 09CD 5C                mov X,A
 09CE 18                pop A
 09CF 7C0000            xcall _LCD_PrCString
 09D2 20                pop X
 09D3 802B              xjmp L342
 09D5           L341:
 09D5                   .dbline 717
 09D5           ; }
 09D5 62D000            mov REG[0xd0],>_Cam1
 09D8 3C0002            cmp [_Cam1],2
 09DB B00F              jnz L344
 09DD                   .dbline 717
 09DD 10                push X
 09DE 5060              mov A,>L346
 09E0 08                push A
 09E1 5060              mov A,<L346
 09E3 5C                mov X,A
 09E4 18                pop A
 09E5 7C0000            xcall _LCD_PrCString
 09E8 20                pop X
 09E9 8015              xjmp L345
 09EB           L344:
 09EB                   .dbline 718
 09EB           ; }
 09EB 62D000            mov REG[0xd0],>_Cam1
 09EE 3C0003            cmp [_Cam1],3
 09F1 B00D              jnz L347
 09F3                   .dbline 718
 09F3 10                push X
 09F4 5055              mov A,>L349
 09F6 08                push A
 09F7 5055              mov A,<L349
 09F9 5C                mov X,A
 09FA 18                pop A
 09FB 7C0000            xcall _LCD_PrCString
 09FE 20                pop X
 09FF           L347:
 09FF           L345:
 09FF           L342:
 09FF           L339:
 09FF                   .dbline 719
 09FF           ; }
 09FF 7C004A            xcall _bucle_temp
 0A02                   .dbline 720
 0A02           ; }
 0A02 7C00EC            xcall _Pulsador
 0A05 5400              mov [X+0],A
 0A07                   .dbline 721
 0A07           ; }
 0A07 62D000            mov REG[0xd0],>_Buzzer
 0A0A 3C0001            cmp [_Buzzer],1
 0A0D B004              jnz L350
 0A0F                   .dbline 721
 0A0F 7C009B            xcall _Pitido
 0A12           L350:
 0A12                   .dbline 722
 0A12           ; }
 0A12 3D0001            cmp [X+0],1
 0A15 A006              jz L354
 0A17 3D0002            cmp [X+0],2
 0A1A B00A              jnz L352
 0A1C           L354:
 0A1C                   .dbline 723
 0A1C           ; }
 0A1C                   .dbline 724
 0A1C           ; }
 0A1C 5D00              mov A,REG[ 0]
 0A1E 62D000            mov REG[0xd0],>__r0
 0A21 6000              mov REG[ 0],A
 0A23                   .dbline 725
 0A23           ; }
 0A23 800D              xjmp L353
 0A25           L352:
 0A25                   .dbline 726
 0A25           ; }
 0A25 3D0003            cmp [X+0],3
 0A28 B008              jnz L355
 0A2A                   .dbline 727
 0A2A           ; }
 0A2A                   .dbline 728
 0A2A           ; }
 0A2A 5001              mov A,1
 0A2C 08                push A
 0A2D 90B8              xcall _Tipo_disp
 0A2F 38FF              add SP,-1
 0A31                   .dbline 729
 0A31           ; }
 0A31           L355:
 0A31           L353:
 0A31                   .dbline 730
 0A31           L335:
 0A31                   .dbline 730
 0A31           ; }
 0A31 3D0004            cmp [X+0],4
 0A34 BF5C              jnz L334
 0A36                   .dbline -2
 0A36                   .dbline 731
 0A36           ; }
 0A36           L333:
 0A36 38FD              add SP,-3
 0A38 20                pop X
 0A39                   .dbline 0 ; func end
 0A39 7F                ret
 0A3A                   .dbsym l x 1 i
 0A3A                   .dbsym l pulsat 0 c
 0A3A                   .dbend
 0A3A                   .dbfunc e Camara2 _Camara2 fV
 0A3A           ;              x -> X+1
 0A3A           ;         pulsat -> X+0
 0A3A           _Camara2::
 0A3A                   .dbline -1
 0A3A 10                push X
 0A3B 4F                mov X,SP
 0A3C 3803              add SP,3
 0A3E                   .dbline 740
 0A3E           ; }
 0A3E           ; }
 0A3E           ; }
 0A3E           ; }
 0A3E           ; }
 0A3E           ; }
 0A3E           ; }
 0A3E           ; }
 0A3E           ; }
 0A3E           L358:
 0A3E                   .dbline 745
 0A3E           ; }
 0A3E           ; }
 0A3E           ; }
 0A3E           ; }
 0A3E           ; }
 0A3E                   .dbline 746
 0A3E           ; }
 0A3E 10                push X
 0A3F 5001              mov A,1
 0A41 7C0000            xcall _LCD_Control
 0A44                   .dbline 747
 0A44           ; }
 0A44 504B              mov A,>L361
 0A46 08                push A
 0A47 504B              mov A,<L361
 0A49 5C                mov X,A
 0A4A 18                pop A
 0A4B 7C0000            xcall _LCD_PrCString
 0A4E                   .dbline 748
 0A4E           ; }
 0A4E 5700              mov X,0
 0A50 5001              mov A,1
 0A52 7C0000            xcall _LCD_Position
 0A55 20                pop X
 0A56                   .dbline 749
 0A56           ; }
 0A56 62D000            mov REG[0xd0],>_Cam2
 0A59 3C0000            cmp [_Cam2],0
 0A5C B00F              jnz L362
 0A5E                   .dbline 749
 0A5E 10                push X
 0A5F 507B              mov A,>L340
 0A61 08                push A
 0A62 507B              mov A,<L340
 0A64 5C                mov X,A
 0A65 18                pop A
 0A66 7C0000            xcall _LCD_PrCString
 0A69 20                pop X
 0A6A 8041              xjmp L363
 0A6C           L362:
 0A6C                   .dbline 750
 0A6C           ; }
 0A6C 62D000            mov REG[0xd0],>_Cam2
 0A6F 3C0001            cmp [_Cam2],1
 0A72 B00F              jnz L364
 0A74                   .dbline 750
 0A74 10                push X
 0A75 506F              mov A,>L343
 0A77 08                push A
 0A78 506F              mov A,<L343
 0A7A 5C                mov X,A
 0A7B 18                pop A
 0A7C 7C0000            xcall _LCD_PrCString
 0A7F 20                pop X
 0A80 802B              xjmp L365
 0A82           L364:
 0A82                   .dbline 751
 0A82           ; }
 0A82 62D000            mov REG[0xd0],>_Cam2
 0A85 3C0002            cmp [_Cam2],2
 0A88 B00F              jnz L366
 0A8A                   .dbline 751
 0A8A 10                push X
 0A8B 5060              mov A,>L346
 0A8D 08                push A
 0A8E 5060              mov A,<L346
 0A90 5C                mov X,A
 0A91 18                pop A
 0A92 7C0000            xcall _LCD_PrCString
 0A95 20                pop X
 0A96 8015              xjmp L367
 0A98           L366:
 0A98                   .dbline 752
 0A98           ; }
 0A98 62D000            mov REG[0xd0],>_Cam2
 0A9B 3C0003            cmp [_Cam2],3
 0A9E B00D              jnz L368
 0AA0                   .dbline 752
 0AA0 10                push X
 0AA1 5055              mov A,>L349
 0AA3 08                push A
 0AA4 5055              mov A,<L349
 0AA6 5C                mov X,A
 0AA7 18                pop A
 0AA8 7C0000            xcall _LCD_PrCString
 0AAB 20                pop X
 0AAC           L368:
 0AAC           L367:
 0AAC           L365:
 0AAC           L363:
 0AAC                   .dbline 753
 0AAC           ; }
 0AAC 7C004A            xcall _bucle_temp
 0AAF                   .dbline 754
 0AAF           ; }
 0AAF 7C00EC            xcall _Pulsador
 0AB2 5400              mov [X+0],A
 0AB4                   .dbline 755
 0AB4           ; }
 0AB4 62D000            mov REG[0xd0],>_Buzzer
 0AB7 3C0001            cmp [_Buzzer],1
 0ABA B004              jnz L370
 0ABC                   .dbline 755
 0ABC 7C009B            xcall _Pitido
 0ABF           L370:
 0ABF                   .dbline 756
 0ABF           ; }
 0ABF 3D0001            cmp [X+0],1
 0AC2 A006              jz L374
 0AC4 3D0002            cmp [X+0],2
 0AC7 B00A              jnz L372
 0AC9           L374:
 0AC9                   .dbline 757
 0AC9           ; }
 0AC9                   .dbline 758
 0AC9           ; }
 0AC9 5D00              mov A,REG[ 0]
 0ACB 62D000            mov REG[0xd0],>__r0
 0ACE 6000              mov REG[ 0],A
 0AD0                   .dbline 759
 0AD0           ; }
 0AD0 800D              xjmp L373
 0AD2           L372:
 0AD2                   .dbline 760
 0AD2           ; }
 0AD2 3D0003            cmp [X+0],3
 0AD5 B008              jnz L375
 0AD7                   .dbline 761
 0AD7           ; }
 0AD7                   .dbline 762
 0AD7           ; }
 0AD7 5002              mov A,2
 0AD9 08                push A
 0ADA 900B              xcall _Tipo_disp
 0ADC 38FF              add SP,-1
 0ADE                   .dbline 763
 0ADE           ; }
 0ADE           L375:
 0ADE           L373:
 0ADE                   .dbline 764
 0ADE           L359:
 0ADE                   .dbline 764
 0ADE           ; }
 0ADE 3D0004            cmp [X+0],4
 0AE1 BF5C              jnz L358
 0AE3                   .dbline -2
 0AE3                   .dbline 765
 0AE3           ; }
 0AE3           L357:
 0AE3 38FD              add SP,-3
 0AE5 20                pop X
 0AE6                   .dbline 0 ; func end
 0AE6 7F                ret
 0AE7                   .dbsym l x 1 i
 0AE7                   .dbsym l pulsat 0 c
 0AE7                   .dbend
 0AE7                   .dbfunc e Tipo_disp _Tipo_disp fV
 0AE7           ;              x -> X+2
 0AE7           ;           menu -> X+1
 0AE7           ;         pulsat -> X+0
 0AE7           ;         camara -> X-4
 0AE7           _Tipo_disp::
 0AE7                   .dbline -1
 0AE7 10                push X
 0AE8 4F                mov X,SP
 0AE9 3804              add SP,4
 0AEB                   .dbline 775
 0AEB           ; }
 0AEB           ; }
 0AEB           ; }
 0AEB           ; }
 0AEB           ; }
 0AEB           ; }
 0AEB           ; }
 0AEB           ; }
 0AEB           ; }
 0AEB           ; }
 0AEB                   .dbline 779
 0AEB           ; }
 0AEB           ; }
 0AEB           ; }
 0AEB           ; }
 0AEB 3DFC01            cmp [X-4],1
 0AEE B00C              jnz L378
 0AF0                   .dbline 779
 0AF0 62D000            mov REG[0xd0],>_Cam1
 0AF3 5100              mov A,[_Cam1]
 0AF5 0101              add A,1
 0AF7 5401              mov [X+1],A
 0AF9 800F              xjmp L379
 0AFB           L378:
 0AFB                   .dbline 780
 0AFB           ; }
 0AFB 3DFC02            cmp [X-4],2
 0AFE B00A              jnz L380
 0B00                   .dbline 780
 0B00 62D000            mov REG[0xd0],>_Cam2
 0B03 5100              mov A,[_Cam2]
 0B05 0101              add A,1
 0B07 5401              mov [X+1],A
 0B09           L380:
 0B09           L379:
 0B09           L382:
 0B09                   .dbline 783
 0B09           ; }
 0B09           ; }
 0B09           ; }
 0B09                   .dbline 784
 0B09           ; }
 0B09 10                push X
 0B0A 5001              mov A,1
 0B0C 7C0000            xcall _LCD_Control
 0B0F                   .dbline 785
 0B0F           ; }
 0B0F 503C              mov A,>L385
 0B11 08                push A
 0B12 503C              mov A,<L385
 0B14 5C                mov X,A
 0B15 18                pop A
 0B16 7C0000            xcall _LCD_PrCString
 0B19                   .dbline 786
 0B19           ; }
 0B19 5700              mov X,0
 0B1B 5001              mov A,1
 0B1D 7C0000            xcall _LCD_Position
 0B20 20                pop X
 0B21                   .dbline 787
 0B21           ; }
 0B21 3D0101            cmp [X+1],1
 0B24 B00F              jnz L386
 0B26                   .dbline 787
 0B26 10                push X
 0B27 507B              mov A,>L340
 0B29 08                push A
 0B2A 507B              mov A,<L340
 0B2C 5C                mov X,A
 0B2D 18                pop A
 0B2E 7C0000            xcall _LCD_PrCString
 0B31 20                pop X
 0B32 8038              xjmp L387
 0B34           L386:
 0B34                   .dbline 788
 0B34           ; }
 0B34 3D0102            cmp [X+1],2
 0B37 B00F              jnz L388
 0B39                   .dbline 788
 0B39 10                push X
 0B3A 506F              mov A,>L343
 0B3C 08                push A
 0B3D 506F              mov A,<L343
 0B3F 5C                mov X,A
 0B40 18                pop A
 0B41 7C0000            xcall _LCD_PrCString
 0B44 20                pop X
 0B45 8025              xjmp L389
 0B47           L388:
 0B47                   .dbline 789
 0B47           ; }
 0B47 3D0103            cmp [X+1],3
 0B4A B00F              jnz L390
 0B4C                   .dbline 789
 0B4C 10                push X
 0B4D 5060              mov A,>L346
 0B4F 08                push A
 0B50 5060              mov A,<L346
 0B52 5C                mov X,A
 0B53 18                pop A
 0B54 7C0000            xcall _LCD_PrCString
 0B57 20                pop X
 0B58 8012              xjmp L391
 0B5A           L390:
 0B5A                   .dbline 790
 0B5A           ; }
 0B5A 3D0104            cmp [X+1],4
 0B5D B00D              jnz L392
 0B5F                   .dbline 790
 0B5F 10                push X
 0B60 5055              mov A,>L349
 0B62 08                push A
 0B63 5055              mov A,<L349
 0B65 5C                mov X,A
 0B66 18                pop A
 0B67 7C0000            xcall _LCD_PrCString
 0B6A 20                pop X
 0B6B           L392:
 0B6B           L391:
 0B6B           L389:
 0B6B           L387:
 0B6B                   .dbline 791
 0B6B           ; }
 0B6B 7C004A            xcall _bucle_temp
 0B6E                   .dbline 792
 0B6E           ; }
 0B6E 7C00EC            xcall _Pulsador
 0B71 5400              mov [X+0],A
 0B73                   .dbline 793
 0B73           ; }
 0B73 62D000            mov REG[0xd0],>_Buzzer
 0B76 3C0001            cmp [_Buzzer],1
 0B79 B004              jnz L394
 0B7B                   .dbline 793
 0B7B 7C009B            xcall _Pitido
 0B7E           L394:
 0B7E                   .dbline 794
 0B7E           ; }
 0B7E 3D0001            cmp [X+0],1
 0B81 B019              jnz L396
 0B83                   .dbline 795
 0B83           ; }
 0B83                   .dbline 796
 0B83           ; }
 0B83 62D000            mov REG[0xd0],>__r0
 0B86 5201              mov A,[X+1]
 0B88 0101              add A,1
 0B8A 5300              mov [__r0],A
 0B8C 5004              mov A,4
 0B8E 3A00              cmp A,[__r0]
 0B90 D006              jnc L398
 0B92           X13:
 0B92                   .dbline 796
 0B92 560101            mov [X+1],1
 0B95 806A              xjmp L397
 0B97           L398:
 0B97                   .dbline 797
 0B97           ; }
 0B97 7701              inc [X+1]
 0B99                   .dbline 798
 0B99           ; }
 0B99 8066              xjmp L397
 0B9B           L396:
 0B9B                   .dbline 799
 0B9B           ; }
 0B9B 3D0003            cmp [X+0],3
 0B9E B04A              jnz L400
 0BA0                   .dbline 800
 0BA0           ; }
 0BA0                   .dbline 801
 0BA0           ; }
 0BA0 3D0101            cmp [X+1],1
 0BA3 A006              jz L404
 0BA5 3D0102            cmp [X+1],2
 0BA8 B021              jnz L402
 0BAA           L404:
 0BAA                   .dbline 802
 0BAA           ; }
 0BAA                   .dbline 803
 0BAA           ; }
 0BAA 3DFC01            cmp [X-4],1
 0BAD B00C              jnz L405
 0BAF                   .dbline 803
 0BAF 5201              mov A,[X+1]
 0BB1 1101              sub A,1
 0BB3 62D000            mov REG[0xd0],>_Cam1
 0BB6 5300              mov [_Cam1],A
 0BB8 802B              xjmp L403
 0BBA           L405:
 0BBA                   .dbline 804
 0BBA           ; }
 0BBA 3DFC02            cmp [X-4],2
 0BBD B026              jnz L403
 0BBF                   .dbline 804
 0BBF 5201              mov A,[X+1]
 0BC1 1101              sub A,1
 0BC3 62D000            mov REG[0xd0],>_Cam2
 0BC6 5300              mov [_Cam2],A
 0BC8                   .dbline 805
 0BC8           ; }
 0BC8 801B              xjmp L403
 0BCA           L402:
 0BCA                   .dbline 806
 0BCA           ; }
 0BCA 3D0103            cmp [X+1],3
 0BCD B00A              jnz L409
 0BCF                   .dbline 806
 0BCF 52FC              mov A,[X-4]
 0BD1 08                push A
 0BD2 9035              xcall _Intervalometro
 0BD4 38FF              add SP,-1
 0BD6 800D              xjmp L410
 0BD8           L409:
 0BD8                   .dbline 807
 0BD8           ; }
 0BD8 3D0104            cmp [X+1],4
 0BDB B008              jnz L411
 0BDD                   .dbline 807
 0BDD 52FC              mov A,[X-4]
 0BDF 08                push A
 0BE0 9127              xcall _TimeLapse
 0BE2 38FF              add SP,-1
 0BE4           L411:
 0BE4           L410:
 0BE4           L403:
 0BE4                   .dbline 808
 0BE4           ; }
 0BE4 560004            mov [X+0],4
 0BE7                   .dbline 809
 0BE7           ; }
 0BE7 8018              xjmp L401
 0BE9           L400:
 0BE9                   .dbline 810
 0BE9           ; }
 0BE9 3D0002            cmp [X+0],2
 0BEC B013              jnz L413
 0BEE                   .dbline 811
 0BEE           ; }
 0BEE                   .dbline 812
 0BEE           ; }
 0BEE 62D000            mov REG[0xd0],>__r0
 0BF1 5201              mov A,[X+1]
 0BF3 1101              sub A,1
 0BF5 3901              cmp A,1
 0BF7 D006              jnc L415
 0BF9           X14:
 0BF9                   .dbline 812
 0BF9 560104            mov [X+1],4
 0BFC 8003              xjmp L416
 0BFE           L415:
 0BFE                   .dbline 813
 0BFE           ; }
 0BFE 7B01              dec [X+1]
 0C00           L416:
 0C00                   .dbline 814
 0C00           ; }
 0C00           L413:
 0C00           L401:
 0C00           L397:
 0C00                   .dbline 815
 0C00           L383:
 0C00                   .dbline 815
 0C00           ; }
 0C00 3D0004            cmp [X+0],4
 0C03 BF05              jnz L382
 0C05                   .dbline -2
 0C05                   .dbline 816
 0C05           ; }
 0C05           L377:
 0C05 38FC              add SP,-4
 0C07 20                pop X
 0C08                   .dbline 0 ; func end
 0C08 7F                ret
 0C09                   .dbsym l x 2 i
 0C09                   .dbsym l menu 1 c
 0C09                   .dbsym l pulsat 0 c
 0C09                   .dbsym l camara -4 c
 0C09                   .dbend
 0C09                   .dbfunc e Intervalometro _Intervalometro fV
 0C09           ;              x -> X+2
 0C09           ;           menu -> X+1
 0C09           ;         pulsat -> X+0
 0C09           ;         camara -> X-4
 0C09           _Intervalometro::
 0C09                   .dbline -1
 0C09 10                push X
 0C0A 4F                mov X,SP
 0C0B 3804              add SP,4
 0C0D                   .dbline 824
 0C0D           ; }
 0C0D           ; }
 0C0D           ; }
 0C0D           ; }
 0C0D           ; }
 0C0D           ; }
 0C0D           ; }
 0C0D           ; }
 0C0D                   .dbline 825
 0C0D           ; }
 0C0D 560101            mov [X+1],1
 0C10                   .dbline 828
 0C10           ; }
 0C10           ; }
 0C10           ; }
 0C10 3DFC01            cmp [X-4],1
 0C13 B009              jnz L418
 0C15                   .dbline 828
 0C15 62D000            mov REG[0xd0],>_Cam1
 0C18 550002            mov [_Cam1],2
 0C1B 800C              xjmp L419
 0C1D           L418:
 0C1D                   .dbline 829
 0C1D           ; }
 0C1D 3DFC02            cmp [X-4],2
 0C20 B007              jnz L420
 0C22                   .dbline 829
 0C22 62D000            mov REG[0xd0],>_Cam2
 0C25 550002            mov [_Cam2],2
 0C28           L420:
 0C28           L419:
 0C28           L422:
 0C28                   .dbline 831
 0C28           ; }
 0C28           ; }
 0C28                   .dbline 832
 0C28           ; }
 0C28 10                push X
 0C29 5001              mov A,1
 0C2B 7C0000            xcall _LCD_Control
 0C2E                   .dbline 833
 0C2E           ; }
 0C2E 502C              mov A,>L425
 0C30 08                push A
 0C31 502C              mov A,<L425
 0C33 5C                mov X,A
 0C34 18                pop A
 0C35 7C0000            xcall _LCD_PrCString
 0C38                   .dbline 834
 0C38           ; }
 0C38 5700              mov X,0
 0C3A 5001              mov A,1
 0C3C 7C0000            xcall _LCD_Position
 0C3F 20                pop X
 0C40                   .dbline 835
 0C40           ; }
 0C40 3D0101            cmp [X+1],1
 0C43 B00F              jnz L426
 0C45                   .dbline 835
 0C45 10                push X
 0C46 501F              mov A,>L428
 0C48 08                push A
 0C49 501F              mov A,<L428
 0C4B 5C                mov X,A
 0C4C 18                pop A
 0C4D 7C0000            xcall _LCD_PrCString
 0C50 20                pop X
 0C51 8012              xjmp L427
 0C53           L426:
 0C53                   .dbline 836
 0C53           ; }
 0C53 3D0102            cmp [X+1],2
 0C56 B00D              jnz L429
 0C58                   .dbline 836
 0C58 10                push X
 0C59 500F              mov A,>L431
 0C5B 08                push A
 0C5C 500F              mov A,<L431
 0C5E 5C                mov X,A
 0C5F 18                pop A
 0C60 7C0000            xcall _LCD_PrCString
 0C63 20                pop X
 0C64           L429:
 0C64           L427:
 0C64                   .dbline 837
 0C64           ; }
 0C64 7C004A            xcall _bucle_temp
 0C67                   .dbline 838
 0C67           ; }
 0C67 7C00EC            xcall _Pulsador
 0C6A 5400              mov [X+0],A
 0C6C                   .dbline 839
 0C6C           ; }
 0C6C 62D000            mov REG[0xd0],>_Buzzer
 0C6F 3C0001            cmp [_Buzzer],1
 0C72 B004              jnz L432
 0C74                   .dbline 839
 0C74 7C009B            xcall _Pitido
 0C77           L432:
 0C77                   .dbline 840
 0C77           ; }
 0C77 3D0001            cmp [X+0],1
 0C7A B019              jnz L434
 0C7C                   .dbline 841
 0C7C           ; }
 0C7C                   .dbline 842
 0C7C           ; }
 0C7C 62D000            mov REG[0xd0],>__r0
 0C7F 5201              mov A,[X+1]
 0C81 0101              add A,1
 0C83 5300              mov [__r0],A
 0C85 5002              mov A,2
 0C87 3A00              cmp A,[__r0]
 0C89 D006              jnc L436
 0C8B           X15:
 0C8B                   .dbline 842
 0C8B 560101            mov [X+1],1
 0C8E 8071              xjmp L435
 0C90           L436:
 0C90                   .dbline 843
 0C90           ; }
 0C90 7701              inc [X+1]
 0C92                   .dbline 844
 0C92           ; }
 0C92 806D              xjmp L435
 0C94           L434:
 0C94                   .dbline 845
 0C94           ; }
 0C94 3D0003            cmp [X+0],3
 0C97 B051              jnz L438
 0C99                   .dbline 846
 0C99           ; }
 0C99                   .dbline 847
 0C99           ; }
 0C99 3D0101            cmp [X+1],1
 0C9C B02B              jnz L440
 0C9E                   .dbline 848
 0C9E           ; }
 0C9E                   .dbline 849
 0C9E           ; }
 0C9E 3DFC01            cmp [X-4],1
 0CA1 B011              jnz L442
 0CA3                   .dbline 850
 0CA3           ; }
 0CA3                   .dbline 851
 0CA3           ; }
 0CA3 9172              xcall _Numeros
 0CA5 62D000            mov REG[0xd0],>_Int1_Tdisp
 0CA8 5300              mov [_Int1_Tdisp],A
 0CAA                   .dbline 852
 0CAA           ; }
 0CAA 923A              xcall _Tiempos
 0CAC 62D000            mov REG[0xd0],>_Int1_Tdisp_Uni
 0CAF 5300              mov [_Int1_Tdisp_Uni],A
 0CB1                   .dbline 853
 0CB1           ; }
 0CB1 804E              xjmp L439
 0CB3           L442:
 0CB3                   .dbline 854
 0CB3           ; }
 0CB3 3DFC02            cmp [X-4],2
 0CB6 B049              jnz L439
 0CB8                   .dbline 855
 0CB8           ; }
 0CB8                   .dbline 856
 0CB8           ; }
 0CB8 915D              xcall _Numeros
 0CBA 62D000            mov REG[0xd0],>_Int2_Tdisp
 0CBD 5300              mov [_Int2_Tdisp],A
 0CBF                   .dbline 857
 0CBF           ; }
 0CBF 9225              xcall _Tiempos
 0CC1 62D000            mov REG[0xd0],>_Int2_Tdisp_Uni
 0CC4 5300              mov [_Int2_Tdisp_Uni],A
 0CC6                   .dbline 858
 0CC6           ; }
 0CC6                   .dbline 859
 0CC6           ; }
 0CC6 8039              xjmp L439
 0CC8           L440:
 0CC8                   .dbline 860
 0CC8           ; }
 0CC8 3D0102            cmp [X+1],2
 0CCB B034              jnz L439
 0CCD                   .dbline 861
 0CCD           ; }
 0CCD                   .dbline 862
 0CCD           ; }
 0CCD 3DFC01            cmp [X-4],1
 0CD0 B00A              jnz L448
 0CD2                   .dbline 862
 0CD2 9143              xcall _Numeros
 0CD4 62D000            mov REG[0xd0],>_Int1_Ndisp
 0CD7 5300              mov [_Int1_Ndisp],A
 0CD9 8026              xjmp L439
 0CDB           L448:
 0CDB                   .dbline 863
 0CDB           ; }
 0CDB 3DFC02            cmp [X-4],2
 0CDE B021              jnz L439
 0CE0                   .dbline 863
 0CE0 9135              xcall _Numeros
 0CE2 62D000            mov REG[0xd0],>_Int2_Ndisp
 0CE5 5300              mov [_Int2_Ndisp],A
 0CE7                   .dbline 864
 0CE7           ; }
 0CE7                   .dbline 865
 0CE7           ; }
 0CE7 8018              xjmp L439
 0CE9           L438:
 0CE9                   .dbline 866
 0CE9           ; }
 0CE9 3D0002            cmp [X+0],2
 0CEC B013              jnz L452
 0CEE                   .dbline 867
 0CEE           ; }
 0CEE                   .dbline 868
 0CEE           ; }
 0CEE 62D000            mov REG[0xd0],>__r0
 0CF1 5201              mov A,[X+1]
 0CF3 1101              sub A,1
 0CF5 3901              cmp A,1
 0CF7 D006              jnc L454
 0CF9           X16:
 0CF9                   .dbline 868
 0CF9 560102            mov [X+1],2
 0CFC 8003              xjmp L455
 0CFE           L454:
 0CFE                   .dbline 869
 0CFE           ; }
 0CFE 7B01              dec [X+1]
 0D00           L455:
 0D00                   .dbline 870
 0D00           ; }
 0D00           L452:
 0D00           L439:
 0D00           L435:
 0D00                   .dbline 871
 0D00           L423:
 0D00                   .dbline 871
 0D00           ; }
 0D00 3D0004            cmp [X+0],4
 0D03 BF24              jnz L422
 0D05                   .dbline -2
 0D05                   .dbline 873
 0D05           ; }
 0D05           ; }
 0D05           L417:
 0D05 38FC              add SP,-4
 0D07 20                pop X
 0D08                   .dbline 0 ; func end
 0D08 7F                ret
 0D09                   .dbsym l x 2 i
 0D09                   .dbsym l menu 1 c
 0D09                   .dbsym l pulsat 0 c
 0D09                   .dbsym l camara -4 c
 0D09                   .dbend
 0D09                   .dbfunc e TimeLapse _TimeLapse fV
 0D09           ;              x -> X+2
 0D09           ;           menu -> X+1
 0D09           ;         pulsat -> X+0
 0D09           ;         camara -> X-4
 0D09           _TimeLapse::
 0D09                   .dbline -1
 0D09 10                push X
 0D0A 4F                mov X,SP
 0D0B 3804              add SP,4
 0D0D                   .dbline 881
 0D0D           ; }
 0D0D           ; }
 0D0D           ; }
 0D0D           ; }
 0D0D           ; }
 0D0D           ; }
 0D0D           ; }
 0D0D           ; }
 0D0D                   .dbline 882
 0D0D           ; }
 0D0D 560101            mov [X+1],1
 0D10                   .dbline 885
 0D10           ; }
 0D10           ; }
 0D10           ; }
 0D10 3DFC01            cmp [X-4],1
 0D13 B009              jnz L457
 0D15                   .dbline 885
 0D15 62D000            mov REG[0xd0],>_Cam1
 0D18 550003            mov [_Cam1],3
 0D1B 800C              xjmp L458
 0D1D           L457:
 0D1D                   .dbline 886
 0D1D           ; }
 0D1D 3DFC02            cmp [X-4],2
 0D20 B007              jnz L459
 0D22                   .dbline 886
 0D22 62D000            mov REG[0xd0],>_Cam2
 0D25 550003            mov [_Cam2],3
 0D28           L459:
 0D28           L458:
 0D28           L461:
 0D28                   .dbline 888
 0D28           ; }
 0D28           ; }
 0D28                   .dbline 889
 0D28           ; }
 0D28 10                push X
 0D29 5001              mov A,1
 0D2B 7C0000            xcall _LCD_Control
 0D2E                   .dbline 890
 0D2E           ; }
 0D2E 5003              mov A,>L464
 0D30 08                push A
 0D31 5003              mov A,<L464
 0D33 5C                mov X,A
 0D34 18                pop A
 0D35 7C0000            xcall _LCD_PrCString
 0D38                   .dbline 891
 0D38           ; }
 0D38 5700              mov X,0
 0D3A 5001              mov A,1
 0D3C 7C0000            xcall _LCD_Position
 0D3F 20                pop X
 0D40                   .dbline 892
 0D40           ; }
 0D40 3D0101            cmp [X+1],1
 0D43 B00F              jnz L465
 0D45                   .dbline 892
 0D45 10                push X
 0D46 50F7              mov A,>L467
 0D48 08                push A
 0D49 50F7              mov A,<L467
 0D4B 5C                mov X,A
 0D4C 18                pop A
 0D4D 7C0000            xcall _LCD_PrCString
 0D50 20                pop X
 0D51 8012              xjmp L466
 0D53           L465:
 0D53                   .dbline 893
 0D53           ; }
 0D53 3D0102            cmp [X+1],2
 0D56 B00D              jnz L468
 0D58                   .dbline 893
 0D58 10                push X
 0D59 50EA              mov A,>L470
 0D5B 08                push A
 0D5C 50EA              mov A,<L470
 0D5E 5C                mov X,A
 0D5F 18                pop A
 0D60 7C0000            xcall _LCD_PrCString
 0D63 20                pop X
 0D64           L468:
 0D64           L466:
 0D64                   .dbline 894
 0D64           ; }
 0D64 7C004A            xcall _bucle_temp
 0D67                   .dbline 895
 0D67           ; }
 0D67 7C00EC            xcall _Pulsador
 0D6A 5400              mov [X+0],A
 0D6C                   .dbline 896
 0D6C           ; }
 0D6C 62D000            mov REG[0xd0],>_Buzzer
 0D6F 3C0001            cmp [_Buzzer],1
 0D72 B004              jnz L471
 0D74                   .dbline 896
 0D74 7C009B            xcall _Pitido
 0D77           L471:
 0D77                   .dbline 897
 0D77           ; }
 0D77 3D0001            cmp [X+0],1
 0D7A B019              jnz L473
 0D7C                   .dbline 898
 0D7C           ; }
 0D7C                   .dbline 899
 0D7C           ; }
 0D7C 62D000            mov REG[0xd0],>__r0
 0D7F 5201              mov A,[X+1]
 0D81 0101              add A,1
 0D83 5300              mov [__r0],A
 0D85 5002              mov A,2
 0D87 3A00              cmp A,[__r0]
 0D89 D006              jnc L475
 0D8B           X17:
 0D8B                   .dbline 899
 0D8B 560101            mov [X+1],1
 0D8E 807F              xjmp L474
 0D90           L475:
 0D90                   .dbline 900
 0D90           ; }
 0D90 7701              inc [X+1]
 0D92                   .dbline 901
 0D92           ; }
 0D92 807B              xjmp L474
 0D94           L473:
 0D94                   .dbline 902
 0D94           ; }
 0D94 3D0003            cmp [X+0],3
 0D97 B05F              jnz L477
 0D99                   .dbline 903
 0D99           ; }
 0D99                   .dbline 904
 0D99           ; }
 0D99 3D0101            cmp [X+1],1
 0D9C B02B              jnz L479
 0D9E                   .dbline 905
 0D9E           ; }
 0D9E                   .dbline 906
 0D9E           ; }
 0D9E 3DFC01            cmp [X-4],1
 0DA1 B011              jnz L481
 0DA3                   .dbline 907
 0DA3           ; }
 0DA3                   .dbline 908
 0DA3           ; }
 0DA3 9072              xcall _Numeros
 0DA5 62D000            mov REG[0xd0],>_TL1_Treal
 0DA8 5300              mov [_TL1_Treal],A
 0DAA                   .dbline 909
 0DAA           ; }
 0DAA 913A              xcall _Tiempos
 0DAC 62D000            mov REG[0xd0],>_TL1_Treal_Uni
 0DAF 5300              mov [_TL1_Treal_Uni],A
 0DB1                   .dbline 910
 0DB1           ; }
 0DB1 805C              xjmp L478
 0DB3           L481:
 0DB3                   .dbline 911
 0DB3           ; }
 0DB3 3DFC02            cmp [X-4],2
 0DB6 B057              jnz L478
 0DB8                   .dbline 912
 0DB8           ; }
 0DB8                   .dbline 913
 0DB8           ; }
 0DB8 905D              xcall _Numeros
 0DBA 62D000            mov REG[0xd0],>_TL2_Treal
 0DBD 5300              mov [_TL2_Treal],A
 0DBF                   .dbline 914
 0DBF           ; }
 0DBF 9125              xcall _Tiempos
 0DC1 62D000            mov REG[0xd0],>_TL2_Treal_Uni
 0DC4 5300              mov [_TL2_Treal_Uni],A
 0DC6                   .dbline 915
 0DC6           ; }
 0DC6                   .dbline 916
 0DC6           ; }
 0DC6 8047              xjmp L478
 0DC8           L479:
 0DC8                   .dbline 917
 0DC8           ; }
 0DC8 3D0102            cmp [X+1],2
 0DCB B042              jnz L478
 0DCD                   .dbline 918
 0DCD           ; }
 0DCD                   .dbline 919
 0DCD           ; }
 0DCD 3DFC01            cmp [X-4],1
 0DD0 B011              jnz L487
 0DD2                   .dbline 920
 0DD2           ; }
 0DD2                   .dbline 921
 0DD2           ; }
 0DD2 9043              xcall _Numeros
 0DD4 62D000            mov REG[0xd0],>_TL1_Tfilm
 0DD7 5300              mov [_TL1_Tfilm],A
 0DD9                   .dbline 922
 0DD9           ; }
 0DD9 910B              xcall _Tiempos
 0DDB 62D000            mov REG[0xd0],>_TL1_Tfilm_Uni
 0DDE 5300              mov [_TL1_Tfilm_Uni],A
 0DE0                   .dbline 923
 0DE0           ; }
 0DE0 802D              xjmp L478
 0DE2           L487:
 0DE2                   .dbline 924
 0DE2           ; }
 0DE2 3DFC02            cmp [X-4],2
 0DE5 B028              jnz L478
 0DE7                   .dbline 925
 0DE7           ; }
 0DE7                   .dbline 926
 0DE7           ; }
 0DE7 902E              xcall _Numeros
 0DE9 62D000            mov REG[0xd0],>_TL2_Tfilm
 0DEC 5300              mov [_TL2_Tfilm],A
 0DEE                   .dbline 927
 0DEE           ; }
 0DEE 90F6              xcall _Tiempos
 0DF0 62D000            mov REG[0xd0],>_TL2_Tfilm_Uni
 0DF3 5300              mov [_TL2_Tfilm_Uni],A
 0DF5                   .dbline 928
 0DF5           ; }
 0DF5                   .dbline 929
 0DF5           ; }
 0DF5                   .dbline 930
 0DF5           ; }
 0DF5 8018              xjmp L478
 0DF7           L477:
 0DF7                   .dbline 931
 0DF7           ; }
 0DF7 3D0002            cmp [X+0],2
 0DFA B013              jnz L491
 0DFC                   .dbline 932
 0DFC           ; }
 0DFC                   .dbline 933
 0DFC           ; }
 0DFC 62D000            mov REG[0xd0],>__r0
 0DFF 5201              mov A,[X+1]
 0E01 1101              sub A,1
 0E03 3901              cmp A,1
 0E05 D006              jnc L493
 0E07           X18:
 0E07                   .dbline 933
 0E07 560102            mov [X+1],2
 0E0A 8003              xjmp L494
 0E0C           L493:
 0E0C                   .dbline 934
 0E0C           ; }
 0E0C 7B01              dec [X+1]
 0E0E           L494:
 0E0E                   .dbline 935
 0E0E           ; }
 0E0E           L491:
 0E0E           L478:
 0E0E           L474:
 0E0E                   .dbline 936
 0E0E           L462:
 0E0E                   .dbline 936
 0E0E           ; }
 0E0E 3D0004            cmp [X+0],4
 0E11 BF16              jnz L461
 0E13                   .dbline -2
 0E13                   .dbline 938
 0E13           ; }
 0E13           ; }
 0E13           L456:
 0E13 38FC              add SP,-4
 0E15 20                pop X
 0E16                   .dbline 0 ; func end
 0E16 7F                ret
 0E17                   .dbsym l x 2 i
 0E17                   .dbsym l menu 1 c
 0E17                   .dbsym l pulsat 0 c
 0E17                   .dbsym l camara -4 c
 0E17                   .dbend
 0E17                   .dbfunc e Numeros _Numeros fc
 0E17           ;           menu -> X+6
 0E17           ;         pulsat -> X+5
 0E17           ;        mostrar -> X+4
 0E17           ;              x -> X+2
 0E17           ;       recortar -> X+1
 0E17           ;          zeros -> X+0
 0E17           _Numeros::
 0E17                   .dbline -1
 0E17 10                push X
 0E18 4F                mov X,SP
 0E19 3807              add SP,7
 0E1B                   .dbline 946
 0E1B           ; }
 0E1B           ; }
 0E1B           ; }
 0E1B           ; }
 0E1B           ; }
 0E1B           ; }
 0E1B           ; }
 0E1B           ; }
 0E1B                   .dbline 947
 0E1B           ; }
 0E1B 560601            mov [X+6],1
 0E1E           L496:
 0E1E                   .dbline 951
 0E1E           ; }
 0E1E           ; }
 0E1E           ; }
 0E1E           ; }
 0E1E                   .dbline 952
 0E1E           ; }
 0E1E 10                push X
 0E1F 5001              mov A,1
 0E21 7C0000            xcall _LCD_Control
 0E24                   .dbline 953
 0E24           ; }
 0E24 50DC              mov A,>L499
 0E26 08                push A
 0E27 50DC              mov A,<L499
 0E29 5C                mov X,A
 0E2A 18                pop A
 0E2B 7C0000            xcall _LCD_PrCString
 0E2E                   .dbline 954
 0E2E           ; }
 0E2E 5700              mov X,0
 0E30 5001              mov A,1
 0E32 7C0000            xcall _LCD_Position
 0E35 20                pop X
 0E36                   .dbline 955
 0E36           ; }
 0E36 560300            mov [X+3],0
 0E39 560200            mov [X+2],0
 0E3C 560064            mov [X+0],100
 0E3F 5206              mov A,[X+6]
 0E41 5401              mov [X+1],A
 0E43 803C              xjmp L503
 0E45           L500:
 0E45                   .dbline 956
 0E45                   .dbline 957
 0E45 5200              mov A,[X+0]
 0E47 08                push A
 0E48 5201              mov A,[X+1]
 0E4A 08                push A
 0E4B 62D000            mov REG[0xd0],>__r0
 0E4E 7C0000            xcall __divmodu_8X8_8
 0E51 18                pop A
 0E52 5404              mov [X+4],A
 0E54 38FF              add SP,-1
 0E56                   .dbline 958
 0E56 5200              mov A,[X+0]
 0E58 08                push A
 0E59 5201              mov A,[X+1]
 0E5B 08                push A
 0E5C 7C0000            xcall __divmodu_8X8_8
 0E5F 38FF              add SP,-1
 0E61 18                pop A
 0E62 5401              mov [X+1],A
 0E64                   .dbline 959
 0E64 500A              mov A,10
 0E66 08                push A
 0E67 5200              mov A,[X+0]
 0E69 08                push A
 0E6A 7C0000            xcall __divmodu_8X8_8
 0E6D 18                pop A
 0E6E 5400              mov [X+0],A
 0E70 38FF              add SP,-1
 0E72                   .dbline 960
 0E72 5204              mov A,[X+4]
 0E74 0130              add A,48
 0E76 10                push X
 0E77 7C0000            xcall _LCD_WriteData
 0E7A 20                pop X
 0E7B                   .dbline 961
 0E7B           L501:
 0E7B                   .dbline 955
 0E7B 7703              inc [X+3]
 0E7D 0F0200            adc [X+2],0
 0E80           L503:
 0E80                   .dbline 955
 0E80 5203              mov A,[X+3]
 0E82 1103              sub A,3
 0E84 5202              mov A,[X+2]
 0E86 1900              sbb A,0
 0E88 CFBC              jc L500
 0E8A           X19:
 0E8A                   .dbline 962
 0E8A           ; }
 0E8A           ; }
 0E8A           ; }
 0E8A           ; }
 0E8A           ; }
 0E8A           ; }
 0E8A           ; }
 0E8A 7C004A            xcall _bucle_temp
 0E8D                   .dbline 963
 0E8D           ; }
 0E8D 7C00EC            xcall _Pulsador
 0E90 5405              mov [X+5],A
 0E92                   .dbline 964
 0E92           ; }
 0E92 62D000            mov REG[0xd0],>_Buzzer
 0E95 3C0001            cmp [_Buzzer],1
 0E98 B004              jnz L504
 0E9A                   .dbline 964
 0E9A 7C009B            xcall _Pitido
 0E9D           L504:
 0E9D                   .dbline 965
 0E9D           ; }
 0E9D 3D0501            cmp [X+5],1
 0EA0 B019              jnz L506
 0EA2                   .dbline 966
 0EA2           ; }
 0EA2                   .dbline 967
 0EA2           ; }
 0EA2 62D000            mov REG[0xd0],>__r0
 0EA5 5206              mov A,[X+6]
 0EA7 0101              add A,1
 0EA9 5300              mov [__r0],A
 0EAB 5064              mov A,100
 0EAD 3A00              cmp A,[__r0]
 0EAF D006              jnc L508
 0EB1           X20:
 0EB1                   .dbline 967
 0EB1 560601            mov [X+6],1
 0EB4 8028              xjmp L507
 0EB6           L508:
 0EB6                   .dbline 968
 0EB6           ; }
 0EB6 7706              inc [X+6]
 0EB8                   .dbline 969
 0EB8           ; }
 0EB8 8024              xjmp L507
 0EBA           L506:
 0EBA                   .dbline 970
 0EBA           ; }
 0EBA 3D0503            cmp [X+5],3
 0EBD B008              jnz L510
 0EBF                   .dbline 971
 0EBF           ; }
 0EBF                   .dbline 972
 0EBF           ; }
 0EBF 5206              mov A,[X+6]
 0EC1 62D000            mov REG[0xd0],>__r0
 0EC4 801D              xjmp L495
 0EC6           L510:
 0EC6                   .dbline 974
 0EC6           ; }
 0EC6           ; }
 0EC6 3D0502            cmp [X+5],2
 0EC9 B013              jnz L512
 0ECB                   .dbline 975
 0ECB           ; }
 0ECB                   .dbline 976
 0ECB           ; }
 0ECB 62D000            mov REG[0xd0],>__r0
 0ECE 5206              mov A,[X+6]
 0ED0 1101              sub A,1
 0ED2 3901              cmp A,1
 0ED4 D006              jnc L514
 0ED6           X21:
 0ED6                   .dbline 976
 0ED6 560664            mov [X+6],100
 0ED9 8003              xjmp L515
 0EDB           L514:
 0EDB                   .dbline 977
 0EDB           ; }
 0EDB 7B06              dec [X+6]
 0EDD           L515:
 0EDD                   .dbline 978
 0EDD           ; }
 0EDD           L512:
 0EDD           L507:
 0EDD                   .dbline 979
 0EDD           L497:
 0EDD                   .dbline 979
 0EDD           ; }
 0EDD 3D0505            cmp [X+5],5
 0EE0 BF3D              jnz L496
 0EE2                   .dbline -2
 0EE2                   .dbline 980
 0EE2           ; }
 0EE2           L495:
 0EE2 38F9              add SP,-7
 0EE4 20                pop X
 0EE5                   .dbline 0 ; func end
 0EE5 7F                ret
 0EE6                   .dbsym l menu 6 c
 0EE6                   .dbsym l pulsat 5 c
 0EE6                   .dbsym l mostrar 4 c
 0EE6                   .dbsym l x 2 i
 0EE6                   .dbsym l recortar 1 c
 0EE6                   .dbsym l zeros 0 c
 0EE6                   .dbend
 0EE6                   .dbfunc e Tiempos _Tiempos fc
 0EE6           ;              x -> X+2
 0EE6           ;           menu -> X+1
 0EE6           ;         pulsat -> X+0
 0EE6           _Tiempos::
 0EE6                   .dbline -1
 0EE6 10                push X
 0EE7 4F                mov X,SP
 0EE8 3804              add SP,4
 0EEA                   .dbline 988
 0EEA           ; }
 0EEA           ; }
 0EEA           ; }
 0EEA           ; }
 0EEA           ; }
 0EEA           ; }
 0EEA           ; }
 0EEA           ; }
 0EEA                   .dbline 989
 0EEA           ; }
 0EEA 560101            mov [X+1],1
 0EED           L517:
 0EED                   .dbline 993
 0EED           ; }
 0EED           ; }
 0EED           ; }
 0EED           ; }
 0EED                   .dbline 994
 0EED           ; }
 0EED 10                push X
 0EEE 5001              mov A,1
 0EF0 7C0000            xcall _LCD_Control
 0EF3                   .dbline 995
 0EF3           ; }
 0EF3 50CC              mov A,>L520
 0EF5 08                push A
 0EF6 50CC              mov A,<L520
 0EF8 5C                mov X,A
 0EF9 18                pop A
 0EFA 7C0000            xcall _LCD_PrCString
 0EFD                   .dbline 996
 0EFD           ; }
 0EFD 5700              mov X,0
 0EFF 5001              mov A,1
 0F01 7C0000            xcall _LCD_Position
 0F04 20                pop X
 0F05                   .dbline 997
 0F05           ; }
 0F05 3D0101            cmp [X+1],1
 0F08 B00F              jnz L521
 0F0A                   .dbline 997
 0F0A 10                push X
 0F0B 50C3              mov A,>L523
 0F0D 08                push A
 0F0E 50C3              mov A,<L523
 0F10 5C                mov X,A
 0F11 18                pop A
 0F12 7C0000            xcall _LCD_PrCString
 0F15 20                pop X
 0F16 8025              xjmp L522
 0F18           L521:
 0F18                   .dbline 998
 0F18           ; }
 0F18 3D0102            cmp [X+1],2
 0F1B B00F              jnz L524
 0F1D                   .dbline 998
 0F1D 10                push X
 0F1E 50BB              mov A,>L526
 0F20 08                push A
 0F21 50BB              mov A,<L526
 0F23 5C                mov X,A
 0F24 18                pop A
 0F25 7C0000            xcall _LCD_PrCString
 0F28 20                pop X
 0F29 8012              xjmp L525
 0F2B           L524:
 0F2B                   .dbline 999
 0F2B           ; }
 0F2B 3D0103            cmp [X+1],3
 0F2E B00D              jnz L527
 0F30                   .dbline 999
 0F30 10                push X
 0F31 50B5              mov A,>L529
 0F33 08                push A
 0F34 50B5              mov A,<L529
 0F36 5C                mov X,A
 0F37 18                pop A
 0F38 7C0000            xcall _LCD_PrCString
 0F3B 20                pop X
 0F3C           L527:
 0F3C           L525:
 0F3C           L522:
 0F3C                   .dbline 1000
 0F3C           ; }
 0F3C 7C004A            xcall _bucle_temp
 0F3F                   .dbline 1001
 0F3F           ; }
 0F3F 7C00EC            xcall _Pulsador
 0F42 5400              mov [X+0],A
 0F44                   .dbline 1002
 0F44           ; }
 0F44 62D000            mov REG[0xd0],>_Buzzer
 0F47 3C0001            cmp [_Buzzer],1
 0F4A B004              jnz L530
 0F4C                   .dbline 1002
 0F4C 7C009B            xcall _Pitido
 0F4F           L530:
 0F4F                   .dbline 1003
 0F4F           ; }
 0F4F 3D0001            cmp [X+0],1
 0F52 B019              jnz L532
 0F54                   .dbline 1004
 0F54           ; }
 0F54                   .dbline 1005
 0F54           ; }
 0F54 62D000            mov REG[0xd0],>__r0
 0F57 5201              mov A,[X+1]
 0F59 0101              add A,1
 0F5B 5300              mov [__r0],A
 0F5D 5003              mov A,3
 0F5F 3A00              cmp A,[__r0]
 0F61 D006              jnc L534
 0F63           X22:
 0F63                   .dbline 1005
 0F63 560101            mov [X+1],1
 0F66 8028              xjmp L533
 0F68           L534:
 0F68                   .dbline 1006
 0F68           ; }
 0F68 7701              inc [X+1]
 0F6A                   .dbline 1007
 0F6A           ; }
 0F6A 8024              xjmp L533
 0F6C           L532:
 0F6C                   .dbline 1008
 0F6C           ; }
 0F6C 3D0003            cmp [X+0],3
 0F6F B008              jnz L536
 0F71                   .dbline 1009
 0F71           ; }
 0F71                   .dbline 1010
 0F71           ; }
 0F71 5201              mov A,[X+1]
 0F73 62D000            mov REG[0xd0],>__r0
 0F76 801D              xjmp L516
 0F78           L536:
 0F78                   .dbline 1012
 0F78           ; }
 0F78           ; }
 0F78 3D0002            cmp [X+0],2
 0F7B B013              jnz L538
 0F7D                   .dbline 1013
 0F7D           ; }
 0F7D                   .dbline 1014
 0F7D           ; }
 0F7D 62D000            mov REG[0xd0],>__r0
 0F80 5201              mov A,[X+1]
 0F82 1101              sub A,1
 0F84 3901              cmp A,1
 0F86 D006              jnc L540
 0F88           X23:
 0F88                   .dbline 1014
 0F88 560103            mov [X+1],3
 0F8B 8003              xjmp L541
 0F8D           L540:
 0F8D                   .dbline 1015
 0F8D           ; }
 0F8D 7B01              dec [X+1]
 0F8F           L541:
 0F8F                   .dbline 1016
 0F8F           ; }
 0F8F           L538:
 0F8F           L533:
 0F8F                   .dbline 1017
 0F8F           L518:
 0F8F                   .dbline 1017
 0F8F           ; }
 0F8F 3D0005            cmp [X+0],5
 0F92 BF5A              jnz L517
 0F94                   .dbline -2
 0F94                   .dbline 1018
 0F94           ; }
 0F94           L516:
 0F94 38FC              add SP,-4
 0F96 20                pop X
 0F97                   .dbline 0 ; func end
 0F97 7F                ret
 0F98                   .dbsym l x 2 i
 0F98                   .dbsym l menu 1 c
 0F98                   .dbsym l pulsat 0 c
 0F98                   .dbend
 0F98                   .dbfunc e Executar _Executar fV
 0F98           ;              x -> X+2
 0F98           ;           menu -> X+1
 0F98           ;         pulsat -> X+0
 0F98           _Executar::
 0F98                   .dbline -1
 0F98 10                push X
 0F99 4F                mov X,SP
 0F9A 3804              add SP,4
 0F9C                   .dbline 1028
 0F9C           ; }
 0F9C           ; }
 0F9C           ; }
 0F9C           ; }
 0F9C           ; }
 0F9C           ; }
 0F9C           ; }
 0F9C           ; }
 0F9C           ; }
 0F9C           ; }
 0F9C                   .dbline 1029
 0F9C           ; }
 0F9C 560101            mov [X+1],1
 0F9F           L543:
 0F9F                   .dbline 1033
 0F9F           ; }
 0F9F           ; }
 0F9F           ; }
 0F9F           ; }
 0F9F                   .dbline 1034
 0F9F           ; }
 0F9F 10                push X
 0FA0 5001              mov A,1
 0FA2 7C0000            xcall _LCD_Control
 0FA5                   .dbline 1035
 0FA5           ; }
 0FA5 50AB              mov A,>L546
 0FA7 08                push A
 0FA8 50AB              mov A,<L546
 0FAA 5C                mov X,A
 0FAB 18                pop A
 0FAC 7C0000            xcall _LCD_PrCString
 0FAF                   .dbline 1036
 0FAF           ; }
 0FAF 5700              mov X,0
 0FB1 5001              mov A,1
 0FB3 7C0000            xcall _LCD_Position
 0FB6                   .dbline 1037
 0FB6           ; }
 0FB6 50A3              mov A,>L547
 0FB8 08                push A
 0FB9 50A3              mov A,<L547
 0FBB 5C                mov X,A
 0FBC 18                pop A
 0FBD 7C0000            xcall _LCD_PrCString
 0FC0 20                pop X
 0FC1                   .dbline 1038
 0FC1           ; }
 0FC1 7C004A            xcall _bucle_temp
 0FC4                   .dbline 1039
 0FC4           ; }
 0FC4 7C00EC            xcall _Pulsador
 0FC7 5400              mov [X+0],A
 0FC9                   .dbline 1040
 0FC9           ; }
 0FC9 62D000            mov REG[0xd0],>_Buzzer
 0FCC 3C0001            cmp [_Buzzer],1
 0FCF B006              jnz L548
 0FD1                   .dbline 1040
 0FD1 7C009B            xcall _Pitido
 0FD4 800D              xjmp L549
 0FD6           L548:
 0FD6                   .dbline 1041
 0FD6           ; }
 0FD6 3D0003            cmp [X+0],3
 0FD9 B008              jnz L550
 0FDB                   .dbline 1042
 0FDB           ; }
 0FDB                   .dbline 1043
 0FDB           ; }
 0FDB 3D0101            cmp [X+1],1
 0FDE B003              jnz L552
 0FE0                   .dbline 1043
 0FE0 9206              xcall _Ara
 0FE2           L552:
 0FE2                   .dbline 1044
 0FE2           ; }
 0FE2           L550:
 0FE2           L549:
 0FE2                   .dbline 1045
 0FE2           L544:
 0FE2                   .dbline 1045
 0FE2           ; }
 0FE2 3D0004            cmp [X+0],4
 0FE5 BFB9              jnz L543
 0FE7                   .dbline -2
 0FE7                   .dbline 1046
 0FE7           ; }
 0FE7           L542:
 0FE7 38FC              add SP,-4
 0FE9 20                pop X
 0FEA                   .dbline 0 ; func end
 0FEA 7F                ret
 0FEB                   .dbsym l x 2 i
 0FEB                   .dbsym l menu 1 c
 0FEB                   .dbsym l pulsat 0 c
 0FEB                   .dbend
 0FEB                   .dbfunc e envio_valores _envio_valores fV
 0FEB           _envio_valores::
 0FEB                   .dbline -1
 0FEB                   .dbline 1061
 0FEB           ; }
 0FEB           ; }
 0FEB           ; }
 0FEB           ; }
 0FEB           ; }
 0FEB           ; }
 0FEB           ; }
 0FEB           ; }
 0FEB           ; }
 0FEB           ; }
 0FEB           ; }
 0FEB           ; }
 0FEB           ; }
 0FEB           ; }
 0FEB           ; }
 0FEB                   .dbline 1062
 0FEB           ; }
 0FEB 7C00C7            xcall _Reset_PdT
 0FEE                   .dbline 1063
 0FEE           ; }
 0FEE 62D000            mov REG[0xd0],>_Cam1
 0FF1 5100              mov A,[_Cam1]
 0FF3 62D000            mov REG[0xd0],>__r0
 0FF6 5300              mov [__r1],A
 0FF8 5000              mov A,0
 0FFA 08                push A
 0FFB 5100              mov A,[__r1]
 0FFD 08                push A
 0FFE 955B              xcall _envia
 1000                   .dbline 1064
 1000           ; }
 1000 62D000            mov REG[0xd0],>_Cam2
 1003 5100              mov A,[_Cam2]
 1005 62D000            mov REG[0xd0],>__r0
 1008 5300              mov [__r1],A
 100A 5000              mov A,0
 100C 08                push A
 100D 5100              mov A,[__r1]
 100F 08                push A
 1010 9549              xcall _envia
 1012 38FC              add SP,-4
 1014                   .dbline 1065
 1014           ; }
 1014 62D000            mov REG[0xd0],>_Ent1
 1017 5100              mov A,[_Ent1]
 1019 62D000            mov REG[0xd0],>__r0
 101C 5300              mov [__r1],A
 101E 5000              mov A,0
 1020 08                push A
 1021 5100              mov A,[__r1]
 1023 08                push A
 1024 9535              xcall _envia
 1026                   .dbline 1066
 1026           ; }
 1026 62D000            mov REG[0xd0],>_Ent2
 1029 5100              mov A,[_Ent2]
 102B 62D000            mov REG[0xd0],>__r0
 102E 5300              mov [__r1],A
 1030 5000              mov A,0
 1032 08                push A
 1033 5100              mov A,[__r1]
 1035 08                push A
 1036 9523              xcall _envia
 1038 38FC              add SP,-4
 103A                   .dbline 1067
 103A           ; }
 103A 62D000            mov REG[0xd0],>_Ent3
 103D 5100              mov A,[_Ent3]
 103F 62D000            mov REG[0xd0],>__r0
 1042 5300              mov [__r1],A
 1044 5000              mov A,0
 1046 08                push A
 1047 5100              mov A,[__r1]
 1049 08                push A
 104A 950F              xcall _envia
 104C                   .dbline 1068
 104C           ; }
 104C 62D000            mov REG[0xd0],>_Ent4
 104F 5100              mov A,[_Ent4]
 1051 62D000            mov REG[0xd0],>__r0
 1054 5300              mov [__r1],A
 1056 5000              mov A,0
 1058 08                push A
 1059 5100              mov A,[__r1]
 105B 08                push A
 105C 94FD              xcall _envia
 105E 38FC              add SP,-4
 1060                   .dbline 1069
 1060           ; }
 1060 62D000            mov REG[0xd0],>_Fla1
 1063 5100              mov A,[_Fla1]
 1065 62D000            mov REG[0xd0],>__r0
 1068 5300              mov [__r1],A
 106A 5000              mov A,0
 106C 08                push A
 106D 5100              mov A,[__r1]
 106F 08                push A
 1070 94E9              xcall _envia
 1072                   .dbline 1070
 1072           ; }
 1072 62D000            mov REG[0xd0],>_Fla2
 1075 5100              mov A,[_Fla2]
 1077 62D000            mov REG[0xd0],>__r0
 107A 5300              mov [__r1],A
 107C 5000              mov A,0
 107E 08                push A
 107F 5100              mov A,[__r1]
 1081 08                push A
 1082 94D7              xcall _envia
 1084 38FC              add SP,-4
 1086                   .dbline 1071
 1086           ; }
 1086 62D000            mov REG[0xd0],>_Fla3
 1089 5100              mov A,[_Fla3]
 108B 62D000            mov REG[0xd0],>__r0
 108E 5300              mov [__r1],A
 1090 5000              mov A,0
 1092 08                push A
 1093 5100              mov A,[__r1]
 1095 08                push A
 1096 94C3              xcall _envia
 1098                   .dbline 1072
 1098           ; }
 1098 62D000            mov REG[0xd0],>_Fla4
 109B 5100              mov A,[_Fla4]
 109D 62D000            mov REG[0xd0],>__r0
 10A0 5300              mov [__r1],A
 10A2 5000              mov A,0
 10A4 08                push A
 10A5 5100              mov A,[__r1]
 10A7 08                push A
 10A8 94B1              xcall _envia
 10AA 38FC              add SP,-4
 10AC                   .dbline 1074
 10AC           ; }
 10AC           ; }
 10AC 62D000            mov REG[0xd0],>_Cam1
 10AF 3C0002            cmp [_Cam1],2
 10B2 B015              jnz L555
 10B4                   .dbline 1075
 10B4           ; }
 10B4 62D000            mov REG[0xd0],>_Int1_Tdisp
 10B7 5100              mov A,[_Int1_Tdisp]
 10B9 62D000            mov REG[0xd0],>__r0
 10BC 5300              mov [__r1],A
 10BE 5000              mov A,0
 10C0 08                push A
 10C1 5100              mov A,[__r1]
 10C3 08                push A
 10C4 9495              xcall _envia
 10C6 38FE              add SP,-2
 10C8           L555:
 10C8                   .dbline 1076
 10C8           ; }
 10C8 62D000            mov REG[0xd0],>_Int1_Tdisp_Uni
 10CB 5100              mov A,[_Int1_Tdisp_Uni]
 10CD 62D000            mov REG[0xd0],>__r0
 10D0 5300              mov [__r1],A
 10D2 5000              mov A,0
 10D4 08                push A
 10D5 5100              mov A,[__r1]
 10D7 08                push A
 10D8 9481              xcall _envia
 10DA                   .dbline 1077
 10DA           ; }
 10DA 62D000            mov REG[0xd0],>_Int1_Ndisp
 10DD 5100              mov A,[_Int1_Ndisp]
 10DF 62D000            mov REG[0xd0],>__r0
 10E2 5300              mov [__r1],A
 10E4 5000              mov A,0
 10E6 08                push A
 10E7 5100              mov A,[__r1]
 10E9 08                push A
 10EA 946F              xcall _envia
 10EC 38FC              add SP,-4
 10EE                   .dbline 1079
 10EE           ; }
 10EE           ; }
 10EE 62D000            mov REG[0xd0],>_Cam2
 10F1 3C0002            cmp [_Cam2],2
 10F4 B015              jnz L557
 10F6                   .dbline 1080
 10F6           ; }
 10F6 62D000            mov REG[0xd0],>_Int2_Tdisp
 10F9 5100              mov A,[_Int2_Tdisp]
 10FB 62D000            mov REG[0xd0],>__r0
 10FE 5300              mov [__r1],A
 1100 5000              mov A,0
 1102 08                push A
 1103 5100              mov A,[__r1]
 1105 08                push A
 1106 9453              xcall _envia
 1108 38FE              add SP,-2
 110A           L557:
 110A                   .dbline 1081
 110A           ; }
 110A 62D000            mov REG[0xd0],>_Int2_Tdisp_Uni
 110D 5100              mov A,[_Int2_Tdisp_Uni]
 110F 62D000            mov REG[0xd0],>__r0
 1112 5300              mov [__r1],A
 1114 5000              mov A,0
 1116 08                push A
 1117 5100              mov A,[__r1]
 1119 08                push A
 111A 943F              xcall _envia
 111C                   .dbline 1082
 111C           ; }
 111C 62D000            mov REG[0xd0],>_Int2_Ndisp
 111F 5100              mov A,[_Int2_Ndisp]
 1121 62D000            mov REG[0xd0],>__r0
 1124 5300              mov [__r1],A
 1126 5000              mov A,0
 1128 08                push A
 1129 5100              mov A,[__r1]
 112B 08                push A
 112C 942D              xcall _envia
 112E 38FC              add SP,-4
 1130                   .dbline 1084
 1130           ; }
 1130           ; }
 1130 62D000            mov REG[0xd0],>_Cam1
 1133 3C0003            cmp [_Cam1],3
 1136 B015              jnz L559
 1138                   .dbline 1085
 1138           ; }
 1138 62D000            mov REG[0xd0],>_TL1_Treal
 113B 5100              mov A,[_TL1_Treal]
 113D 62D000            mov REG[0xd0],>__r0
 1140 5300              mov [__r1],A
 1142 5000              mov A,0
 1144 08                push A
 1145 5100              mov A,[__r1]
 1147 08                push A
 1148 9411              xcall _envia
 114A 38FE              add SP,-2
 114C           L559:
 114C                   .dbline 1086
 114C           ; }
 114C 62D000            mov REG[0xd0],>_TL1_Treal_Uni
 114F 5100              mov A,[_TL1_Treal_Uni]
 1151 62D000            mov REG[0xd0],>__r0
 1154 5300              mov [__r1],A
 1156 5000              mov A,0
 1158 08                push A
 1159 5100              mov A,[__r1]
 115B 08                push A
 115C 93FD              xcall _envia
 115E 38FE              add SP,-2
 1160                   .dbline 1087
 1160           ; }
 1160 62D000            mov REG[0xd0],>_TL1_Tfilm
 1163 5100              mov A,[_TL1_Tfilm]
 1165 62D000            mov REG[0xd0],>__r0
 1168 5300              mov [__r1],A
 116A 5000              mov A,0
 116C 08                push A
 116D 5100              mov A,[__r1]
 116F 08                push A
 1170 93E9              xcall _envia
 1172                   .dbline 1088
 1172           ; }
 1172 62D000            mov REG[0xd0],>_TL1_Tfilm_Uni
 1175 5100              mov A,[_TL1_Tfilm_Uni]
 1177 62D000            mov REG[0xd0],>__r0
 117A 5300              mov [__r1],A
 117C 5000              mov A,0
 117E 08                push A
 117F 5100              mov A,[__r1]
 1181 08                push A
 1182 93D7              xcall _envia
 1184 38FC              add SP,-4
 1186                   .dbline 1090
 1186           ; }
 1186           ; }
 1186 62D000            mov REG[0xd0],>_Cam2
 1189 3C0003            cmp [_Cam2],3
 118C B015              jnz L561
 118E                   .dbline 1091
 118E           ; }
 118E 62D000            mov REG[0xd0],>_TL2_Treal
 1191 5100              mov A,[_TL2_Treal]
 1193 62D000            mov REG[0xd0],>__r0
 1196 5300              mov [__r1],A
 1198 5000              mov A,0
 119A 08                push A
 119B 5100              mov A,[__r1]
 119D 08                push A
 119E 93BB              xcall _envia
 11A0 38FE              add SP,-2
 11A2           L561:
 11A2                   .dbline 1092
 11A2 62D000            mov REG[0xd0],>_TL2_Treal_Uni
 11A5 5100              mov A,[_TL2_Treal_Uni]
 11A7 62D000            mov REG[0xd0],>__r0
 11AA 5300              mov [__r1],A
 11AC 5000              mov A,0
 11AE 08                push A
 11AF 5100              mov A,[__r1]
 11B1 08                push A
 11B2 93A7              xcall _envia
 11B4 38FE              add SP,-2
 11B6                   .dbline 1093
 11B6 62D000            mov REG[0xd0],>_TL2_Tfilm
 11B9 5100              mov A,[_TL2_Tfilm]
 11BB 62D000            mov REG[0xd0],>__r0
 11BE 5300              mov [__r1],A
 11C0 5000              mov A,0
 11C2 08                push A
 11C3 5100              mov A,[__r1]
 11C5 08                push A
 11C6 9393              xcall _envia
 11C8                   .dbline 1094
 11C8 62D000            mov REG[0xd0],>_TL2_Tfilm_Uni
 11CB 5100              mov A,[_TL2_Tfilm_Uni]
 11CD 62D000            mov REG[0xd0],>__r0
 11D0 5300              mov [__r1],A
 11D2 5000              mov A,0
 11D4 08                push A
 11D5 5100              mov A,[__r1]
 11D7 08                push A
 11D8 9381              xcall _envia
 11DA 38FC              add SP,-4
 11DC                   .dbline 1096
 11DC 62D000            mov REG[0xd0],>_Buzzer
 11DF 3C0001            cmp [_Buzzer],1
 11E2 B004              jnz L563
 11E4                   .dbline 1096
 11E4 7C009B            xcall _Pitido
 11E7           L563:
 11E7                   .dbline -2
 11E7                   .dbline 1097
 11E7           ; }
 11E7           ; }
 11E7           ; }
 11E7           ; }
 11E7           ; }
 11E7           ; }
 11E7           L554:
 11E7                   .dbline 0 ; func end
 11E7 7F                ret
 11E8                   .dbend
 11E8                   .dbfunc e Ara _Ara fV
 11E8           _Ara::
 11E8                   .dbline -1
 11E8                   .dbline 1110
 11E8           ; }
 11E8           ; }
 11E8           ; }
 11E8           ; }
 11E8           ; }
 11E8           ; }
 11E8           ; }
 11E8           ; }
 11E8           ; }
 11E8           ; }
 11E8           ; }
 11E8           ; }
 11E8           ; }
 11E8                   .dbline 1111
 11E8           ; }
 11E8 9E01              xcall _envio_valores
 11EA                   .dbline 1112
 11EA           ; }
 11EA 9001              xcall _Trabajando
 11EC                   .dbline -2
 11EC                   .dbline 1113
 11EC           ; }
 11EC           L565:
 11EC                   .dbline 0 ; func end
 11EC 7F                ret
 11ED                   .dbend
 11ED                   .dbfunc e Trabajando _Trabajando fV
 11ED           ;         pulsat -> X+2
 11ED           ;              x -> X+0
 11ED           _Trabajando::
 11ED                   .dbline -1
 11ED 10                push X
 11EE 4F                mov X,SP
 11EF 3803              add SP,3
 11F1                   .dbline 1123
 11F1           ; }
 11F1           ; }
 11F1           ; }
 11F1           ; }
 11F1           ; }
 11F1           ; }
 11F1           ; }
 11F1           ; }
 11F1           ; }
 11F1           ; }
 11F1                   .dbline 1128
 11F1           ; }
 11F1           ; }
 11F1           ; }
 11F1           ; }
 11F1           ; }
 11F1 10                push X
 11F2 5001              mov A,1
 11F4 7C0000            xcall _LCD_Control
 11F7                   .dbline 1129
 11F7           ; }
 11F7 5093              mov A,>L567
 11F9 08                push A
 11FA 5093              mov A,<L567
 11FC 5C                mov X,A
 11FD 18                pop A
 11FE 7C0000            xcall _LCD_PrCString
 1201 20                pop X
 1202                   .dbline 1130
 1202 560100            mov [X+1],0
 1205 560000            mov [X+0],0
 1208 8006              xjmp L571
 120A           L568:
 120A                   .dbline 1130
 120A           L569:
 120A                   .dbline 1130
 120A 7701              inc [X+1]
 120C 0F0000            adc [X+0],0
 120F           L571:
 120F                   .dbline 1130
 120F           ; }
 120F 62D000            mov REG[0xd0],>__r0
 1212 5201              mov A,[X+1]
 1214 5300              mov [__r3],A
 1216 5200              mov A,[X+0]
 1218 5300              mov [__r2],A
 121A 5100              mov A,[__r3]
 121C 1160              sub A,96
 121E 5100              mov A,[__r2]
 1220 19EA              sbb A,-22
 1222 5000              mov A,0
 1224 1900              sbb A,0
 1226 5000              mov A,0
 1228 3180              xor A,-128
 122A 1980              sbb A,(0 ^ 0x80)
 122C CFDD              jc L568
 122E           X25:
 122E                   .dbline 1132
 122E           ; }
 122E           ; }
 122E           L572:
 122E                   .dbline 1133
 122E           ; }
 122E                   .dbline 1135
 122E           ; }
 122E           ; }
 122E 10                push X
 122F 5008              mov A,8
 1231 7C0000            xcall _LCD_Control
 1234                   .dbline 1136
 1234           ; }
 1234 5001              mov A,1
 1236 7C0000            xcall _LCD_Control
 1239 20                pop X
 123A                   .dbline 1138
 123A           ; }
 123A           ; }
 123A 7C00EC            xcall _Pulsador
 123D 5402              mov [X+2],A
 123F                   .dbline 1139
 123F           ; }
 123F 62D000            mov REG[0xd0],>_Buzzer
 1242 3C0001            cmp [_Buzzer],1
 1245 B004              jnz L576
 1247                   .dbline 1139
 1247 7C009B            xcall _Pitido
 124A           L576:
 124A                   .dbline 1140
 124A           ; }
 124A 3D0201            cmp [X+2],1
 124D A00B              jz L581
 124F 3D0202            cmp [X+2],2
 1252 A006              jz L581
 1254 3D0204            cmp [X+2],4
 1257 B051              jnz L578
 1259           L581:
 1259                   .dbline 1141
 1259           ; }
 1259                   .dbline 1142
 1259           ; }
 1259 10                push X
 125A 500E              mov A,14
 125C 7C0000            xcall _LCD_Control
 125F                   .dbline 1143
 125F           ; }
 125F 5083              mov A,>L582
 1261 08                push A
 1262 5083              mov A,<L582
 1264 5C                mov X,A
 1265 18                pop A
 1266 7C0000            xcall _LCD_PrCString
 1269                   .dbline 1144
 1269           ; }
 1269 5700              mov X,0
 126B 5001              mov A,1
 126D 7C0000            xcall _LCD_Position
 1270                   .dbline 1145
 1270           ; }
 1270 5071              mov A,>L583
 1272 08                push A
 1273 5071              mov A,<L583
 1275 5C                mov X,A
 1276 18                pop A
 1277 7C0000            xcall _LCD_PrCString
 127A 20                pop X
 127B                   .dbline 1146
 127B 560100            mov [X+1],0
 127E 560000            mov [X+0],0
 1281 8006              xjmp L587
 1283           L584:
 1283                   .dbline 1146
 1283           L585:
 1283                   .dbline 1146
 1283 7701              inc [X+1]
 1285 0F0000            adc [X+0],0
 1288           L587:
 1288                   .dbline 1146
 1288           ; }
 1288 62D000            mov REG[0xd0],>__r0
 128B 5201              mov A,[X+1]
 128D 5300              mov [__r3],A
 128F 5200              mov A,[X+0]
 1291 5300              mov [__r2],A
 1293 5100              mov A,[__r3]
 1295 1150              sub A,80
 1297 5100              mov A,[__r2]
 1299 19C3              sbb A,-61
 129B 5000              mov A,0
 129D 1900              sbb A,0
 129F 5000              mov A,0
 12A1 3180              xor A,-128
 12A3 1980              sbb A,(0 ^ 0x80)
 12A5 CFDD              jc L584
 12A7           X26:
 12A7                   .dbline 1147
 12A7           ; }
 12A7 8F86              xjmp L572
 12A9           L578:
 12A9                   .dbline 1148
 12A9           ; }
 12A9 3D0203            cmp [X+2],3
 12AC BF81              jnz L572
 12AE                   .dbline 1149
 12AE           ; }
 12AE                   .dbline 1150
 12AE           ; }
 12AE 10                push X
 12AF 500E              mov A,14
 12B1 7C0000            xcall _LCD_Control
 12B4                   .dbline 1151
 12B4           ; }
 12B4 5062              mov A,>L590
 12B6 08                push A
 12B7 5062              mov A,<L590
 12B9 5C                mov X,A
 12BA 18                pop A
 12BB 7C0000            xcall _LCD_PrCString
 12BE 20                pop X
 12BF                   .dbline 1152
 12BF 560100            mov [X+1],0
 12C2 560000            mov [X+0],0
 12C5 8006              xjmp L594
 12C7           L591:
 12C7                   .dbline 1152
 12C7           L592:
 12C7                   .dbline 1152
 12C7 7701              inc [X+1]
 12C9 0F0000            adc [X+0],0
 12CC           L594:
 12CC                   .dbline 1152
 12CC 62D000            mov REG[0xd0],>__r0
 12CF 5201              mov A,[X+1]
 12D1 5300              mov [__r3],A
 12D3 5200              mov A,[X+0]
 12D5 5300              mov [__r2],A
 12D7 5100              mov A,[__r3]
 12D9 1150              sub A,80
 12DB 5100              mov A,[__r2]
 12DD 19C3              sbb A,-61
 12DF 5000              mov A,0
 12E1 1900              sbb A,0
 12E3 5000              mov A,0
 12E5 3180              xor A,-128
 12E7 1980              sbb A,(0 ^ 0x80)
 12E9 CFDD              jc L591
 12EB           X27:
 12EB                   .dbline 1153
 12EB 9006              xcall _Resetear
 12ED                   .dbline 1154
 12ED                   .dbline 1155
 12ED                   .dbline 1132
 12ED                   .dbline 1132
 12ED 8F40              xjmp L572
 12EF           X24:
 12EF                   .dbline -2
 12EF           L566:
 12EF 38FD              add SP,-3
 12F1 20                pop X
 12F2                   .dbline 0 ; func end
 12F2 7F                ret
 12F3                   .dbsym l pulsat 2 c
 12F3                   .dbsym l x 0 i
 12F3                   .dbend
 12F3                   .dbfunc e Resetear _Resetear fV
 12F3           _Resetear::
 12F3                   .dbline -1
 12F3                   .dbline 1165
 12F3           ; }
 12F3           ; }
 12F3           ; }
 12F3           ; }
 12F3           ; }
 12F3           ; }
 12F3           ; }
 12F3           ; }
 12F3           ; }
 12F3           ; }
 12F3           ; }
 12F3           ; }
 12F3           ; }
 12F3           ; }
 12F3                   .dbline 1166
 12F3           ; }
 12F3 7C00C7            xcall _Reset_PdT
 12F6                   .dbline 1167
 12F6           ; }
 12F6 7C007E            xcall _Principal
 12F9                   .dbline -2
 12F9                   .dbline 1168
 12F9           ; }
 12F9           L595:
 12F9                   .dbline 0 ; func end
 12F9 7F                ret
 12FA                   .dbend
 12FA                   .dbfunc e Sistema _Sistema fV
 12FA           ;              x -> X+2
 12FA           ;           menu -> X+1
 12FA           ;         pulsat -> X+0
 12FA           _Sistema::
 12FA                   .dbline -1
 12FA 10                push X
 12FB 4F                mov X,SP
 12FC 3804              add SP,4
 12FE                   .dbline 1178
 12FE           ; }
 12FE           ; }
 12FE           ; }
 12FE           ; }
 12FE           ; }
 12FE           ; }
 12FE           ; }
 12FE           ; }
 12FE           ; }
 12FE           ; }
 12FE                   .dbline 1179
 12FE           ; }
 12FE 560101            mov [X+1],1
 1301           L597:
 1301                   .dbline 1183
 1301           ; }
 1301           ; }
 1301           ; }
 1301           ; }
 1301                   .dbline 1184
 1301           ; }
 1301 10                push X
 1302 5001              mov A,1
 1304 7C0000            xcall _LCD_Control
 1307                   .dbline 1185
 1307           ; }
 1307 5053              mov A,>L600
 1309 08                push A
 130A 5053              mov A,<L600
 130C 5C                mov X,A
 130D 18                pop A
 130E 7C0000            xcall _LCD_PrCString
 1311                   .dbline 1186
 1311           ; }
 1311 5700              mov X,0
 1313 5001              mov A,1
 1315 7C0000            xcall _LCD_Position
 1318 20                pop X
 1319                   .dbline 1187
 1319           ; }
 1319 3D0101            cmp [X+1],1
 131C B00F              jnz L601
 131E                   .dbline 1187
 131E 10                push X
 131F 5049              mov A,>L603
 1321 08                push A
 1322 5049              mov A,<L603
 1324 5C                mov X,A
 1325 18                pop A
 1326 7C0000            xcall _LCD_PrCString
 1329 20                pop X
 132A 8025              xjmp L602
 132C           L601:
 132C                   .dbline 1188
 132C           ; }
 132C 3D0102            cmp [X+1],2
 132F B00F              jnz L604
 1331                   .dbline 1188
 1331 10                push X
 1332 5038              mov A,>L606
 1334 08                push A
 1335 5038              mov A,<L606
 1337 5C                mov X,A
 1338 18                pop A
 1339 7C0000            xcall _LCD_PrCString
 133C 20                pop X
 133D 8012              xjmp L605
 133F           L604:
 133F                   .dbline 1189
 133F           ; }
 133F 3D0103            cmp [X+1],3
 1342 B00D              jnz L607
 1344                   .dbline 1189
 1344 10                push X
 1345 5028              mov A,>L609
 1347 08                push A
 1348 5028              mov A,<L609
 134A 5C                mov X,A
 134B 18                pop A
 134C 7C0000            xcall _LCD_PrCString
 134F 20                pop X
 1350           L607:
 1350           L605:
 1350           L602:
 1350                   .dbline 1190
 1350           ; }
 1350 7C004A            xcall _bucle_temp
 1353                   .dbline 1191
 1353           ; }
 1353 7C00EC            xcall _Pulsador
 1356 5400              mov [X+0],A
 1358                   .dbline 1192
 1358           ; }
 1358 62D000            mov REG[0xd0],>_Buzzer
 135B 3C0001            cmp [_Buzzer],1
 135E B004              jnz L610
 1360                   .dbline 1192
 1360 7C009B            xcall _Pitido
 1363           L610:
 1363                   .dbline 1193
 1363           ; }
 1363 3D0001            cmp [X+0],1
 1366 B019              jnz L612
 1368                   .dbline 1194
 1368           ; }
 1368                   .dbline 1195
 1368           ; }
 1368 62D000            mov REG[0xd0],>__r0
 136B 5201              mov A,[X+1]
 136D 0101              add A,1
 136F 5300              mov [__r0],A
 1371 5003              mov A,3
 1373 3A00              cmp A,[__r0]
 1375 D006              jnc L614
 1377           X28:
 1377                   .dbline 1195
 1377 560101            mov [X+1],1
 137A 803C              xjmp L613
 137C           L614:
 137C                   .dbline 1196
 137C           ; }
 137C 7701              inc [X+1]
 137E                   .dbline 1197
 137E           ; }
 137E 8038              xjmp L613
 1380           L612:
 1380                   .dbline 1198
 1380           ; }
 1380 3D0003            cmp [X+0],3
 1383 B01C              jnz L616
 1385                   .dbline 1199
 1385           ; }
 1385                   .dbline 1200
 1385           ; }
 1385 3D0101            cmp [X+1],1
 1388 B005              jnz L618
 138A                   .dbline 1200
 138A 9034              xcall _Reali_LCD
 138C 802A              xjmp L617
 138E           L618:
 138E                   .dbline 1201
 138E           ; }
 138E 3D0102            cmp [X+1],2
 1391 B005              jnz L620
 1393                   .dbline 1201
 1393 90B6              xcall _Zumbador
 1395 8021              xjmp L617
 1397           L620:
 1397                   .dbline 1202
 1397           ; }
 1397 3D0103            cmp [X+1],3
 139A B01C              jnz L617
 139C                   .dbline 1202
 139C 9132              xcall _Ali_Led
 139E                   .dbline 1203
 139E           ; }
 139E 8018              xjmp L617
 13A0           L616:
 13A0                   .dbline 1204
 13A0           ; }
 13A0 3D0002            cmp [X+0],2
 13A3 B013              jnz L624
 13A5                   .dbline 1205
 13A5           ; }
 13A5                   .dbline 1206
 13A5           ; }
 13A5 62D000            mov REG[0xd0],>__r0
 13A8 5201              mov A,[X+1]
 13AA 1101              sub A,1
 13AC 3901              cmp A,1
 13AE D006              jnc L626
 13B0           X29:
 13B0                   .dbline 1206
 13B0 560103            mov [X+1],3
 13B3 8003              xjmp L627
 13B5           L626:
 13B5                   .dbline 1207
 13B5           ; }
 13B5 7B01              dec [X+1]
 13B7           L627:
 13B7                   .dbline 1208
 13B7           ; }
 13B7           L624:
 13B7           L617:
 13B7           L613:
 13B7                   .dbline 1209
 13B7           L598:
 13B7                   .dbline 1209
 13B7           ; }
 13B7 3D0004            cmp [X+0],4
 13BA BF46              jnz L597
 13BC                   .dbline -2
 13BC                   .dbline 1210
 13BC           ; }
 13BC           L596:
 13BC 38FC              add SP,-4
 13BE 20                pop X
 13BF                   .dbline 0 ; func end
 13BF 7F                ret
 13C0                   .dbsym l x 2 i
 13C0                   .dbsym l menu 1 c
 13C0                   .dbsym l pulsat 0 c
 13C0                   .dbend
 13C0                   .dbfunc e Reali_LCD _Reali_LCD fV
 13C0           ;              x -> X+1
 13C0           ;         pulsat -> X+0
 13C0           _Reali_LCD::
 13C0                   .dbline -1
 13C0 10                push X
 13C1 4F                mov X,SP
 13C2 3803              add SP,3
 13C4                   .dbline 1219
 13C4           ; }
 13C4           ; }
 13C4           ; }
 13C4           ; }
 13C4           ; }
 13C4           ; }
 13C4           ; }
 13C4           ; }
 13C4           ; }
 13C4           L629:
 13C4                   .dbline 1224
 13C4           ; }
 13C4           ; }
 13C4           ; }
 13C4           ; }
 13C4           ; }
 13C4                   .dbline 1225
 13C4           ; }
 13C4 10                push X
 13C5 5001              mov A,1
 13C7 7C0000            xcall _LCD_Control
 13CA                   .dbline 1226
 13CA           ; }
 13CA 501F              mov A,>L632
 13CC 08                push A
 13CD 501F              mov A,<L632
 13CF 5C                mov X,A
 13D0 18                pop A
 13D1 7C0000            xcall _LCD_PrCString
 13D4                   .dbline 1227
 13D4           ; }
 13D4 5700              mov X,0
 13D6 5001              mov A,1
 13D8 7C0000            xcall _LCD_Position
 13DB 20                pop X
 13DC                   .dbline 1228
 13DC           ; }
 13DC 62D000            mov REG[0xd0],>_Luz_LCD
 13DF 3C0000            cmp [_Luz_LCD],0
 13E2 B00F              jnz L633
 13E4                   .dbline 1228
 13E4 10                push X
 13E5 5053              mov A,>L135
 13E7 08                push A
 13E8 5053              mov A,<L135
 13EA 5C                mov X,A
 13EB 18                pop A
 13EC 7C0000            xcall _LCD_PrCString
 13EF 20                pop X
 13F0 800D              xjmp L634
 13F2           L633:
 13F2                   .dbline 1229
 13F2           ; }
 13F2 10                push X
 13F3 5050              mov A,>L136
 13F5 08                push A
 13F6 5050              mov A,<L136
 13F8 5C                mov X,A
 13F9 18                pop A
 13FA 7C0000            xcall _LCD_PrCString
 13FD 20                pop X
 13FE           L634:
 13FE                   .dbline 1230
 13FE           ; }
 13FE 7C004A            xcall _bucle_temp
 1401                   .dbline 1231
 1401           ; }
 1401 7C00EC            xcall _Pulsador
 1404 5400              mov [X+0],A
 1406                   .dbline 1232
 1406           ; }
 1406 62D000            mov REG[0xd0],>_Buzzer
 1409 3C0001            cmp [_Buzzer],1
 140C B004              jnz L635
 140E                   .dbline 1232
 140E 7C009B            xcall _Pitido
 1411           L635:
 1411                   .dbline 1233
 1411           ; }
 1411 3D0001            cmp [X+0],1
 1414 A006              jz L639
 1416 3D0002            cmp [X+0],2
 1419 B00A              jnz L637
 141B           L639:
 141B                   .dbline 1234
 141B           ; }
 141B                   .dbline 1235
 141B           ; }
 141B 5D00              mov A,REG[ 0]
 141D 62D000            mov REG[0xd0],>__r0
 1420 6000              mov REG[ 0],A
 1422                   .dbline 1236
 1422           ; }
 1422 801F              xjmp L638
 1424           L637:
 1424                   .dbline 1237
 1424           ; }
 1424 3D0003            cmp [X+0],3
 1427 B01A              jnz L640
 1429                   .dbline 1238
 1429           ; }
 1429                   .dbline 1239
 1429           ; }
 1429 62D000            mov REG[0xd0],>_Luz_LCD
 142C 3C0000            cmp [_Luz_LCD],0
 142F B009              jnz L642
 1431                   .dbline 1240
 1431           ; }
 1431                   .dbline 1241
 1431           ; }
 1431 430002            or REG[ 0],2
 1434                   .dbline 1242
 1434           ; }
 1434 550001            mov [_Luz_LCD],1
 1437                   .dbline 1243
 1437           ; }
 1437 800A              xjmp L643
 1439           L642:
 1439                   .dbline 1245
 1439           ; }
 1439           ; }
 1439                   .dbline 1246
 1439           ; }
 1439 4100FD            and REG[ 0],-3
 143C                   .dbline 1247
 143C           ; }
 143C 62D000            mov REG[0xd0],>_Luz_LCD
 143F 550000            mov [_Luz_LCD],0
 1442                   .dbline 1248
 1442           ; }
 1442           L643:
 1442                   .dbline 1249
 1442           ; }
 1442           L640:
 1442           L638:
 1442                   .dbline 1250
 1442           L630:
 1442                   .dbline 1250
 1442           ; }
 1442 3D0004            cmp [X+0],4
 1445 BF7E              jnz L629
 1447                   .dbline -2
 1447                   .dbline 1251
 1447           ; }
 1447           L628:
 1447 38FD              add SP,-3
 1449 20                pop X
 144A                   .dbline 0 ; func end
 144A 7F                ret
 144B                   .dbsym l x 1 i
 144B                   .dbsym l pulsat 0 c
 144B                   .dbend
 144B                   .dbfunc e Zumbador _Zumbador fV
 144B           ;              x -> X+1
 144B           ;         pulsat -> X+0
 144B           _Zumbador::
 144B                   .dbline -1
 144B 10                push X
 144C 4F                mov X,SP
 144D 3803              add SP,3
 144F                   .dbline 1260
 144F           ; }
 144F           ; }
 144F           ; }
 144F           ; }
 144F           ; }
 144F           ; }
 144F           ; }
 144F           ; }
 144F           ; }
 144F           L645:
 144F                   .dbline 1265
 144F           ; }
 144F           ; }
 144F           ; }
 144F           ; }
 144F           ; }
 144F                   .dbline 1266
 144F           ; }
 144F 10                push X
 1450 5001              mov A,1
 1452 7C0000            xcall _LCD_Control
 1455                   .dbline 1267
 1455           ; }
 1455 500F              mov A,>L648
 1457 08                push A
 1458 500F              mov A,<L648
 145A 5C                mov X,A
 145B 18                pop A
 145C 7C0000            xcall _LCD_PrCString
 145F                   .dbline 1268
 145F           ; }
 145F 5700              mov X,0
 1461 5001              mov A,1
 1463 7C0000            xcall _LCD_Position
 1466 20                pop X
 1467                   .dbline 1269
 1467           ; }
 1467 62D000            mov REG[0xd0],>_Buzzer
 146A 3C0000            cmp [_Buzzer],0
 146D B00F              jnz L649
 146F                   .dbline 1269
 146F 10                push X
 1470 5053              mov A,>L135
 1472 08                push A
 1473 5053              mov A,<L135
 1475 5C                mov X,A
 1476 18                pop A
 1477 7C0000            xcall _LCD_PrCString
 147A 20                pop X
 147B 800D              xjmp L650
 147D           L649:
 147D                   .dbline 1270
 147D           ; }
 147D 10                push X
 147E 5050              mov A,>L136
 1480 08                push A
 1481 5050              mov A,<L136
 1483 5C                mov X,A
 1484 18                pop A
 1485 7C0000            xcall _LCD_PrCString
 1488 20                pop X
 1489           L650:
 1489                   .dbline 1271
 1489           ; }
 1489 7C004A            xcall _bucle_temp
 148C                   .dbline 1272
 148C           ; }
 148C 7C00EC            xcall _Pulsador
 148F 5400              mov [X+0],A
 1491                   .dbline 1273
 1491           ; }
 1491 62D000            mov REG[0xd0],>_Buzzer
 1494 3C0001            cmp [_Buzzer],1
 1497 B004              jnz L651
 1499                   .dbline 1273
 1499 7C009B            xcall _Pitido
 149C           L651:
 149C                   .dbline 1274
 149C           ; }
 149C 3D0001            cmp [X+0],1
 149F A006              jz L655
 14A1 3D0002            cmp [X+0],2
 14A4 B00A              jnz L653
 14A6           L655:
 14A6                   .dbline 1275
 14A6           ; }
 14A6                   .dbline 1276
 14A6           ; }
 14A6 5D00              mov A,REG[ 0]
 14A8 62D000            mov REG[0xd0],>__r0
 14AB 6000              mov REG[ 0],A
 14AD                   .dbline 1277
 14AD           ; }
 14AD 8019              xjmp L654
 14AF           L653:
 14AF                   .dbline 1278
 14AF           ; }
 14AF 3D0003            cmp [X+0],3
 14B2 B014              jnz L656
 14B4                   .dbline 1279
 14B4           ; }
 14B4                   .dbline 1280
 14B4           ; }
 14B4 62D000            mov REG[0xd0],>_Buzzer
 14B7 3C0000            cmp [_Buzzer],0
 14BA B006              jnz L658
 14BC                   .dbline 1280
 14BC 550001            mov [_Buzzer],1
 14BF 8007              xjmp L659
 14C1           L658:
 14C1                   .dbline 1281
 14C1           ; }
 14C1 62D000            mov REG[0xd0],>_Buzzer
 14C4 550000            mov [_Buzzer],0
 14C7           L659:
 14C7                   .dbline 1282
 14C7           ; }
 14C7           L656:
 14C7           L654:
 14C7                   .dbline 1283
 14C7           L646:
 14C7                   .dbline 1283
 14C7           ; }
 14C7 3D0004            cmp [X+0],4
 14CA BF84              jnz L645
 14CC                   .dbline -2
 14CC                   .dbline 1284
 14CC           ; }
 14CC           L644:
 14CC 38FD              add SP,-3
 14CE 20                pop X
 14CF                   .dbline 0 ; func end
 14CF 7F                ret
 14D0                   .dbsym l x 1 i
 14D0                   .dbsym l pulsat 0 c
 14D0                   .dbend
 14D0                   .dbfunc e Ali_Led _Ali_Led fV
 14D0           ;              x -> X+1
 14D0           ;         pulsat -> X+0
 14D0           _Ali_Led::
 14D0                   .dbline -1
 14D0 10                push X
 14D1 4F                mov X,SP
 14D2 3803              add SP,3
 14D4                   .dbline 1293
 14D4           ; }
 14D4           ; }
 14D4           ; }
 14D4           ; }
 14D4           ; }
 14D4           ; }
 14D4           ; }
 14D4           ; }
 14D4           ; }
 14D4           L661:
 14D4                   .dbline 1298
 14D4           ; }
 14D4           ; }
 14D4           ; }
 14D4           ; }
 14D4           ; }
 14D4                   .dbline 1299
 14D4           ; }
 14D4 10                push X
 14D5 5001              mov A,1
 14D7 7C0000            xcall _LCD_Control
 14DA                   .dbline 1300
 14DA           ; }
 14DA 5000              mov A,>L664
 14DC 08                push A
 14DD 5000              mov A,<L664
 14DF 5C                mov X,A
 14E0 18                pop A
 14E1 7C0000            xcall _LCD_PrCString
 14E4                   .dbline 1301
 14E4           ; }
 14E4 5700              mov X,0
 14E6 5001              mov A,1
 14E8 7C0000            xcall _LCD_Position
 14EB 20                pop X
 14EC                   .dbline 1302
 14EC           ; }
 14EC 62D000            mov REG[0xd0],>_Alimentacion
 14EF 3C0000            cmp [_Alimentacion],0
 14F2 B00F              jnz L665
 14F4                   .dbline 1302
 14F4 10                push X
 14F5 5053              mov A,>L135
 14F7 08                push A
 14F8 5053              mov A,<L135
 14FA 5C                mov X,A
 14FB 18                pop A
 14FC 7C0000            xcall _LCD_PrCString
 14FF 20                pop X
 1500 800D              xjmp L666
 1502           L665:
 1502                   .dbline 1303
 1502           ; }
 1502 10                push X
 1503 5050              mov A,>L136
 1505 08                push A
 1506 5050              mov A,<L136
 1508 5C                mov X,A
 1509 18                pop A
 150A 7C0000            xcall _LCD_PrCString
 150D 20                pop X
 150E           L666:
 150E                   .dbline 1304
 150E           ; }
 150E 7C004A            xcall _bucle_temp
 1511                   .dbline 1305
 1511           ; }
 1511 7C00EC            xcall _Pulsador
 1514 5400              mov [X+0],A
 1516                   .dbline 1306
 1516           ; }
 1516 62D000            mov REG[0xd0],>_Buzzer
 1519 3C0001            cmp [_Buzzer],1
 151C B004              jnz L667
 151E                   .dbline 1306
 151E 7C009B            xcall _Pitido
 1521           L667:
 1521                   .dbline 1307
 1521           ; }
 1521 3D0001            cmp [X+0],1
 1524 A006              jz L671
 1526 3D0002            cmp [X+0],2
 1529 B00A              jnz L669
 152B           L671:
 152B                   .dbline 1308
 152B           ; }
 152B                   .dbline 1309
 152B           ; }
 152B 5D00              mov A,REG[ 0]
 152D 62D000            mov REG[0xd0],>__r0
 1530 6000              mov REG[ 0],A
 1532                   .dbline 1310
 1532           ; }
 1532 801F              xjmp L670
 1534           L669:
 1534                   .dbline 1311
 1534           ; }
 1534 3D0003            cmp [X+0],3
 1537 B01A              jnz L672
 1539                   .dbline 1312
 1539           ; }
 1539                   .dbline 1313
 1539           ; }
 1539 62D000            mov REG[0xd0],>_Alimentacion
 153C 3C0000            cmp [_Alimentacion],0
 153F B009              jnz L674
 1541                   .dbline 1314
 1541           ; }
 1541                   .dbline 1315
 1541           ; }
 1541 430010            or REG[ 0],16
 1544                   .dbline 1316
 1544           ; }
 1544 550001            mov [_Alimentacion],1
 1547                   .dbline 1317
 1547           ; }
 1547 800A              xjmp L675
 1549           L674:
 1549                   .dbline 1319
 1549           ; }
 1549           ; }
 1549                   .dbline 1320
 1549           ; }
 1549 4100EF            and REG[ 0],-17
 154C                   .dbline 1321
 154C           ; }
 154C 62D000            mov REG[0xd0],>_Alimentacion
 154F 550000            mov [_Alimentacion],0
 1552                   .dbline 1322
 1552           ; }
 1552           L675:
 1552                   .dbline 1323
 1552           ; }
 1552           L672:
 1552           L670:
 1552                   .dbline 1324
 1552           L662:
 1552                   .dbline 1324
 1552           ; }
 1552 3D0004            cmp [X+0],4
 1555 BF7E              jnz L661
 1557                   .dbline -2
 1557                   .dbline 1325
 1557           ; }
 1557           L660:
 1557 38FD              add SP,-3
 1559 20                pop X
 155A                   .dbline 0 ; func end
 155A 7F                ret
 155B                   .dbsym l x 1 i
 155B                   .dbsym l pulsat 0 c
 155B                   .dbend
 155B                   .dbfile ./comunicaciones.h
 155B                   .dbfunc e envia _envia fV
 155B           ;   envia_recibe -> X+2
 155B           ; envia_contador -> X+1
 155B           ; envia_confirmacion -> X+0
 155B           ;     envia_dato -> X-4
 155B           _envia::
 155B                   .dbline -1
 155B 10                push X
 155C 4F                mov X,SP
 155D 3803              add SP,3
 155F                   .dbline 19
 155F                   .dbline 22
 155F 560000            mov [X+0],0
 1562                   .dbline 23
 1562 560100            mov [X+1],0
 1565 8037              xjmp L678
 1567           L677:
 1567                   .dbline 26
 1567                   .dbline 27
 1567 10                push X
 1568 52FC              mov A,[X-4]
 156A 7C0000            xcall _UART_PutChar
 156D                   .dbline 28
 156D 7C0000            xcall _UART_cGetChar
 1570 62D000            mov REG[0xd0],>__r0
 1573 20                pop X
 1574 5402              mov [X+2],A
 1576                   .dbline 30
 1576 5202              mov A,[X+2]
 1578 3BFC              cmp A,[X-4]
 157A B004              jnz L680
 157C                   .dbline 30
 157C 56004F            mov [X+0],79
 157F           L680:
 157F                   .dbline 31
 157F 10                push X
 1580 5200              mov A,[X+0]
 1582 7C0000            xcall _UART_PutChar
 1585 20                pop X
 1586                   .dbline 32
 1586 5201              mov A,[X+1]
 1588 62D000            mov REG[0xd0],>__r0
 158B 5300              mov [__r0],A
 158D 0101              add A,1
 158F 5401              mov [X+1],A
 1591 5100              mov A,[__r0]
 1593 5401              mov [X+1],A
 1595                   .dbline 33
 1595 3D010A            cmp [X+1],10
 1598 B004              jnz L682
 159A                   .dbline 33
 159A 560001            mov [X+0],1
 159D           L682:
 159D                   .dbline 34
 159D           L678:
 159D                   .dbline 25
 159D 3D0000            cmp [X+0],0
 15A0 AFC6              jz L677
 15A2                   .dbline -2
 15A2                   .dbline 35
 15A2           L676:
 15A2 38FD              add SP,-3
 15A4 20                pop X
 15A5                   .dbline 0 ; func end
 15A5 7F                ret
 15A6                   .dbsym l envia_recibe 2 c
 15A6                   .dbsym l envia_contador 1 c
 15A6                   .dbsym l envia_confirmacion 0 c
 15A6                   .dbsym l envia_dato -4 c
 15A6                   .dbend
 15A6                   .dbfunc e recibe _recibe fc
 15A6           ;    recibe_dato -> X+2
 15A6           ; recibe_contador -> X+1
 15A6           ; recibe_confirmacion -> X+0
 15A6           _recibe::
 15A6                   .dbline -1
 15A6 10                push X
 15A7 4F                mov X,SP
 15A8 3803              add SP,3
 15AA                   .dbline 50
 15AA                   .dbline 53
 15AA 560000            mov [X+0],0
 15AD                   .dbline 54
 15AD 560100            mov [X+1],0
 15B0 803A              xjmp L686
 15B2           L685:
 15B2                   .dbline 57
 15B2                   .dbline 58
 15B2 10                push X
 15B3 7C0000            xcall _UART_cGetChar
 15B6 62D000            mov REG[0xd0],>__r0
 15B9 20                pop X
 15BA 5402              mov [X+2],A
 15BC                   .dbline 59
 15BC 10                push X
 15BD 5202              mov A,[X+2]
 15BF 7C0000            xcall _UART_PutChar
 15C2                   .dbline 61
 15C2 7C0000            xcall _UART_cGetChar
 15C5 62D000            mov REG[0xd0],>__r0
 15C8 20                pop X
 15C9 5400              mov [X+0],A
 15CB                   .dbline 62
 15CB 3D004F            cmp [X+0],79
 15CE B005              jnz L688
 15D0                   .dbline 63
 15D0 5202              mov A,[X+2]
 15D2 8022              xjmp L684
 15D4           L688:
 15D4                   .dbline 64
 15D4 5201              mov A,[X+1]
 15D6 62D000            mov REG[0xd0],>__r0
 15D9 5300              mov [__r0],A
 15DB 0101              add A,1
 15DD 5401              mov [X+1],A
 15DF 5100              mov A,[__r0]
 15E1 5401              mov [X+1],A
 15E3                   .dbline 65
 15E3 3D010A            cmp [X+1],10
 15E6 B004              jnz L690
 15E8                   .dbline 65
 15E8 560001            mov [X+0],1
 15EB           L690:
 15EB                   .dbline 66
 15EB           L686:
 15EB                   .dbline 56
 15EB 3D0000            cmp [X+0],0
 15EE AFC3              jz L685
 15F0                   .dbline 67
 15F0 62D000            mov REG[0xd0],>__r0
 15F3 50FF              mov A,-1
 15F5                   .dbline -2
 15F5           L684:
 15F5 38FD              add SP,-3
 15F7 20                pop X
 15F8                   .dbline 0 ; func end
 15F8 7F                ret
 15F9                   .dbsym l recibe_dato 2 c
 15F9                   .dbsym l recibe_contador 1 c
 15F9                   .dbsym l recibe_confirmacion 0 c
 15F9                   .dbend
 15F9                   .dbfile ./main.c
 15F9                   .dbfunc e main _main fV
 15F9           _main::
 15F9                   .dbline -1
 15F9                   .dbline 16
 15F9                   .dbline 19
 15F9 7C0000            xcall _Inicializacion
 15FC                   .dbline 20
 15FC 7C001E            xcall _Bienvenida
 15FF                   .dbline 21
 15FF           L693:
 15FF                   .dbline 21
 15FF 7C007E            xcall _Principal
 1602                   .dbline 21
 1602                   .dbline 21
 1602 8FFC              xjmp L693
 1604           X30:
 1604                   .dbline -2
 1604           L692:
 1604                   .dbline 0 ; func end
 1604 8FFF              jmp .
 1606                   .dbend
                        .area lit(rom, con, rel)
 0000           L664:
 0000 3E4C6564206465206D617263686100    .byte 62,'L,'e,'d,32,'d,'e,32,'m,'a,'r,'c,'h,'a,0
 000F           L648:
 000F 3E50697469646F20696E7465726E6F00  .byte 62,'P,'i,'t,'i,'d,'o,32,'i,'n,'t,'e,'r,'n,'o,0
 001F           L632:
 001F 3E4C757A204C434400        .byte 62,'L,'u,'z,32,'L,'C,'D,0
 0028           L609:
 0028 332D4C6564206465206D617263686100  .byte 51,45,'L,'e,'d,32,'d,'e,32,'m,'a,'r,'c,'h,'a,0
 0038           L606:
 0038 322D50697469646F20696E7465726E6F  .byte 50,45,'P,'i,'t,'i,'d,'o,32,'i,'n,'t,'e,'r,'n,'o
 0048 00                .byte 0
 0049           L603:
 0049 312D4C757A204C434400      .byte 49,45,'L,'u,'z,32,'L,'C,'D,0
 0053           L600:
 0053 3E436F6E662E2053697374656D6100    .byte 62,'C,'o,'n,'f,46,32,'S,'i,'s,'t,'e,'m,'a,0
 0062           L590:
 0062 54726162616A6F2070617261646F00    .byte 'T,'r,'a,'b,'a,'j,'o,32,'p,'a,'r,'a,'d,'o,0
 0071           L583:
 0071 4D616E74656E657220416D6172696C6C  .byte 'M,'a,'n,'t,'e,'n,'e,'r,32,'A,'m,'a,'r,'i,'l,'l
 0081 6F00              .byte 'o,0
 0083           L582:
 0083 5175696572652070617261726C6F3F00  .byte 'Q,'u,'i,'e,'r,'e,32,'p,'a,'r,'a,'r,'l,'o,63,0
 0093           L567:
 0093 50686F746F534F432061637469766F00  .byte 'P,'h,'o,'t,'o,'S,'O,'C,32,'a,'c,'t,'i,'v,'o,0
 00A3           L547:
 00A3 312D41686F726100  .byte 49,45,'A,'h,'o,'r,'a,0
 00AB           L546:
 00AB 3E456A65637574617200      .byte 62,'E,'j,'e,'c,'u,'t,'a,'r,0
 00B5           L529:
 00B5 486F72617300      .byte 'H,'o,'r,'a,'s,0
 00BB           L526:
 00BB 4D696E75746F7300  .byte 'M,'i,'n,'u,'t,'o,'s,0
 00C3           L523:
 00C3 536567756E646F7300        .byte 'S,'e,'g,'u,'n,'d,'o,'s,0
 00CC           L520:
 00CC 3E556E692E206465207469656D706F00  .byte 62,'U,'n,'i,46,32,'d,'e,32,'t,'i,'e,'m,'p,'o,0
 00DC           L499:
 00DC 3E4E756D65726F20312D31303000      .byte 62,'N,'u,'m,'e,'r,'o,32,49,45,49,48,48,0
 00EA           L470:
 00EA 5469656D706F20766964656F00        .byte 'T,'i,'e,'m,'p,'o,32,'v,'i,'d,'e,'o,0
 00F7           L467:
 00F7 5469656D706F207265616C00  .byte 'T,'i,'e,'m,'p,'o,32,'r,'e,'a,'l,0
 0103           L464:
 0103 3E54696D65204C6170736500  .byte 62,'T,'i,'m,'e,32,'L,'a,'p,'s,'e,0
 010F           L431:
 010F 4E756D65726F20646520666F746F7300  .byte 'N,'u,'m,'e,'r,'o,32,'d,'e,32,'f,'o,'t,'o,'s,0
 011F           L428:
 011F 5420656E74726520666F746F00        .byte 'T,32,'e,'n,'t,'r,'e,32,'f,'o,'t,'o,0
 012C           L425:
 012C 3E496E74657276616C6F6D6574726F00  .byte 62,'I,'n,'t,'e,'r,'v,'a,'l,'o,'m,'e,'t,'r,'o,0
 013C           L385:
 013C 3E5469706F20646520646973702E00    .byte 62,'T,'i,'p,'o,32,'d,'e,32,'d,'i,'s,'p,46,0
 014B           L361:
 014B 3E43616D617261203200      .byte 62,'C,'a,'m,'a,'r,'a,32,50,0
 0155           L349:
 0155 54696D65204C6170736500    .byte 'T,'i,'m,'e,32,'L,'a,'p,'s,'e,0
 0160           L346:
 0160 496E74657276616C6F6D6574726F00    .byte 'I,'n,'t,'e,'r,'v,'a,'l,'o,'m,'e,'t,'r,'o,0
 016F           L343:
 016F 446973702E20556E69636F00  .byte 'D,'i,'s,'p,46,32,'U,'n,'i,'c,'o,0
 017B           L340:
 017B 4E6F206469737061726100    .byte 'N,'o,32,'d,'i,'s,'p,'a,'r,'a,0
 0186           L337:
 0186 3E43616D617261203100      .byte 62,'C,'a,'m,'a,'r,'a,32,49,0
 0190           L316:
 0190 322D43616D617261203200    .byte 50,45,'C,'a,'m,'a,'r,'a,32,50,0
 019B           L313:
 019B 312D43616D617261203100    .byte 49,45,'C,'a,'m,'a,'r,'a,32,49,0
 01A6           L310:
 01A6 3E436F6E662E204469737061726F00    .byte 62,'C,'o,'n,'f,46,32,'D,'i,'s,'p,'a,'r,'o,0
 01B5           L294:
 01B5 3E466C617368203400        .byte 62,'F,'l,'a,'s,'h,32,52,0
 01BE           L278:
 01BE 3E466C617368203300        .byte 62,'F,'l,'a,'s,'h,32,51,0
 01C7           L262:
 01C7 3E466C617368203200        .byte 62,'F,'l,'a,'s,'h,32,50,0
 01D0           L246:
 01D0 3E466C617368203100        .byte 62,'F,'l,'a,'s,'h,32,49,0
 01D9           L221:
 01D9 2020284F66662900  .byte 32,32,40,'O,'f,'f,41,0
 01E1           L218:
 01E1 342D466C617368203400      .byte 52,45,'F,'l,'a,'s,'h,32,52,0
 01EB           L213:
 01EB 332D466C617368203300      .byte 51,45,'F,'l,'a,'s,'h,32,51,0
 01F5           L208:
 01F5 322D466C617368203200      .byte 50,45,'F,'l,'a,'s,'h,32,50,0
 01FF           L205:
 01FF 20284F6E2900      .byte 32,40,'O,'n,41,0
 0205           L204:
 0205 20284F66662900    .byte 32,40,'O,'f,'f,41,0
 020C           L201:
 020C 312D466C617368203100      .byte 49,45,'F,'l,'a,'s,'h,32,49,0
 0216           L198:
 0216 3E436F6E662E20466C617368657300    .byte 62,'C,'o,'n,'f,46,32,'F,'l,'a,'s,'h,'e,'s,0
 0225           L182:
 0225 3E4469676974616C203220355600      .byte 62,'D,'i,'g,'i,'t,'a,'l,32,50,32,53,'V,0
 0233           L166:
 0233 3E4469676974616C203120355600      .byte 62,'D,'i,'g,'i,'t,'a,'l,32,49,32,53,'V,0
 0241           L150:
 0241 3E4261727265726120322031325600    .byte 62,'B,'a,'r,'r,'e,'r,'a,32,50,32,49,50,'V,0
 0250           L136:
 0250 4F4E00            .byte 'O,'N,0
 0253           L135:
 0253 4F464600          .byte 'O,'F,'F,0
 0257           L132:
 0257 3E4261727265726120312031325600    .byte 62,'B,'a,'r,'r,'e,'r,'a,32,49,32,49,50,'V,0
 0266           L107:
 0266 342D4469676974616C203220355600    .byte 52,45,'D,'i,'g,'i,'t,'a,'l,32,50,32,53,'V,0
 0275           L104:
 0275 332D4469676974616C203120355600    .byte 51,45,'D,'i,'g,'i,'t,'a,'l,32,49,32,53,'V,0
 0284           L101:
 0284 322D4261727265726120322031325600  .byte 50,45,'B,'a,'r,'r,'e,'r,'a,32,50,32,49,50,'V,0
 0294           L98:
 0294 312D4261727265726120312031325600  .byte 49,45,'B,'a,'r,'r,'e,'r,'a,32,49,32,49,50,'V,0
 02A4           L95:
 02A4 3E436F6E662E2053656E736F72657300  .byte 62,'C,'o,'n,'f,46,32,'S,'e,'n,'s,'o,'r,'e,'s,0
 02B4           L68:
 02B4 352D436F6E662E2053697374656D6100  .byte 53,45,'C,'o,'n,'f,46,32,'S,'i,'s,'t,'e,'m,'a,0
 02C4           L65:
 02C4 342D456A65637574617200    .byte 52,45,'E,'j,'e,'c,'u,'t,'a,'r,0
 02CF           L62:
 02CF 332D436F6E662E204469737061726F00  .byte 51,45,'C,'o,'n,'f,46,32,'D,'i,'s,'p,'a,'r,'o,0
 02DF           L59:
 02DF 322D436F6E662E20466C617368657300  .byte 50,45,'C,'o,'n,'f,46,32,'F,'l,'a,'s,'h,'e,'s,0
 02EF           L56:
 02EF 312D436F6E662E2053656E736F726573  .byte 49,45,'C,'o,'n,'f,46,32,'S,'e,'n,'s,'o,'r,'e,'s
 02FF 00                .byte 0
 0300           L53:
 0300 3E4D656E75205072696E636970616C00  .byte 62,'M,'e,'n,'u,32,'P,'r,'i,'n,'c,'i,'p,'a,'l,0
 0310           L4:
 0310 61202050686F746F536F4300  .byte 'a,32,32,'P,'h,'o,'t,'o,'S,'o,'C,0
 031C           L3:
 031C 4269656E76656E69646F7300  .byte 'B,'i,'e,'n,'v,'e,'n,'i,'d,'o,'s,0
