 0000                   cpu LMM
                        .module main.c
                        .area text(rom, con, rel)
 0000                   .dbfile ./comunicaciones.h
 0000                   .dbfunc e envia _envia fV
 0000           ;   envia_recibe -> X+2
 0000           ; envia_contador -> X+1
 0000           ; envia_confirmacion -> X+0
 0000           ;     envia_dato -> X-4
 0000           _envia::
 0000                   .dbline -1
 0000 10                push X
 0001 4F                mov X,SP
 0002 3803              add SP,3
 0004                   .dbline 19
 0004           ; //----------------------------------------------------------------//
 0004           ; //     Proyecto de GS Desarrollo Productos Electronicos EPSS    //
 0004           ; //                   By Albert Sagol & Xavi Vicient                         //
 0004           ; //                 PhotoSoC - Controlador fotográfico                   //
 0004           ; //----------------------------------------------------------------//
 0004           ; //              Programa principal del PSoC terminal                    //
 0004           ; //----------------------------------------------------------------//
 0004           ; 
 0004           ; #include <m8c.h>                      // part specific constants and macros
 0004           ; #include "PSoCAPI.h"                  // PSoC API definitions for all User Modules
 0004           ; #include "stdlib.h"
 0004           ; #include "terminal.h"                 // Libreria creada por Albert y Xavi para el proyecto
 0004           ; 
 0004           ; void main()
 0004           ; {     
 0004           ;       Inicializacion();                       //Rutina de inicialización de los perifericos
 0004           ;       Bienvenida();                           //Rutina que muestra el mensaje de bienvenida
 0004           ;       for (;;) Principal();           //Programa principal del PSoC terminal del PhotoSOC
 0004           ; }
 0004                   .dbline 22
 0004           ; }
 0004           ; }
 0004           ; }
 0004 560000            mov [X+0],0
 0007                   .dbline 23
 0007           ; }
 0007 560100            mov [X+1],0
 000A 8037              xjmp L3
 000C           L2:
 000C                   .dbline 26
 000C           ; }
 000C           ; }
 000C           ; }
 000C                   .dbline 27
 000C           ; }
 000C 10                push X
 000D 52FC              mov A,[X-4]
 000F 7C0000            xcall _UART_PutChar
 0012                   .dbline 28
 0012           ; }
 0012 7C0000            xcall _UART_cGetChar
 0015 62D000            mov REG[0xd0],>__r0
 0018 20                pop X
 0019 5402              mov [X+2],A
 001B                   .dbline 30
 001B           ; }
 001B           ; }
 001B 5202              mov A,[X+2]
 001D 3BFC              cmp A,[X-4]
 001F B004              jnz L5
 0021                   .dbline 30
 0021 56004F            mov [X+0],79
 0024           L5:
 0024                   .dbline 31
 0024           ; }
 0024 10                push X
 0025 5200              mov A,[X+0]
 0027 7C0000            xcall _UART_PutChar
 002A 20                pop X
 002B                   .dbline 32
 002B           ; }
 002B 5201              mov A,[X+1]
 002D 62D000            mov REG[0xd0],>__r0
 0030 5300              mov [__r0],A
 0032 0101              add A,1
 0034 5401              mov [X+1],A
 0036 5100              mov A,[__r0]
 0038 5401              mov [X+1],A
 003A                   .dbline 33
 003A           ; }
 003A 3D010A            cmp [X+1],10
 003D B004              jnz L7
 003F                   .dbline 33
 003F 560001            mov [X+0],1
 0042           L7:
 0042                   .dbline 34
 0042           L3:
 0042                   .dbline 25
 0042 3D0000            cmp [X+0],0
 0045 AFC6              jz L2
 0047                   .dbline -2
 0047                   .dbline 35
 0047           ; }
 0047           ; }
 0047           L1:
 0047 38FD              add SP,-3
 0049 20                pop X
 004A                   .dbline 0 ; func end
 004A 7F                ret
 004B                   .dbsym l envia_recibe 2 c
 004B                   .dbsym l envia_contador 1 c
 004B                   .dbsym l envia_confirmacion 0 c
 004B                   .dbsym l envia_dato -4 c
 004B                   .dbend
 004B                   .dbfunc e recibe _recibe fc
 004B           ;    recibe_dato -> X+2
 004B           ; recibe_contador -> X+1
 004B           ; recibe_confirmacion -> X+0
 004B           _recibe::
 004B                   .dbline -1
 004B 10                push X
 004C 4F                mov X,SP
 004D 3803              add SP,3
 004F                   .dbline 50
 004F           ; }
 004F           ; }
 004F           ; }
 004F           ; }
 004F           ; }
 004F           ; }
 004F           ; }
 004F           ; }
 004F           ; }
 004F           ; }
 004F           ; }
 004F           ; }
 004F           ; }
 004F           ; }
 004F           ; }
 004F                   .dbline 53
 004F           ; }
 004F           ; }
 004F           ; }
 004F 560000            mov [X+0],0
 0052                   .dbline 54
 0052           ; }
 0052 560100            mov [X+1],0
 0055 803A              xjmp L11
 0057           L10:
 0057                   .dbline 57
 0057           ; }
 0057           ; }
 0057           ; }
 0057                   .dbline 58
 0057           ; }
 0057 10                push X
 0058 7C0000            xcall _UART_cGetChar
 005B 62D000            mov REG[0xd0],>__r0
 005E 20                pop X
 005F 5402              mov [X+2],A
 0061                   .dbline 59
 0061           ; }
 0061 10                push X
 0062 5202              mov A,[X+2]
 0064 7C0000            xcall _UART_PutChar
 0067                   .dbline 61
 0067           ; }
 0067           ; }
 0067 7C0000            xcall _UART_cGetChar
 006A 62D000            mov REG[0xd0],>__r0
 006D 20                pop X
 006E 5400              mov [X+0],A
 0070                   .dbline 62
 0070           ; }
 0070 3D004F            cmp [X+0],79
 0073 B005              jnz L13
 0075                   .dbline 63
 0075           ; }
 0075 5202              mov A,[X+2]
 0077 8022              xjmp L9
 0079           L13:
 0079                   .dbline 64
 0079           ; }
 0079 5201              mov A,[X+1]
 007B 62D000            mov REG[0xd0],>__r0
 007E 5300              mov [__r0],A
 0080 0101              add A,1
 0082 5401              mov [X+1],A
 0084 5100              mov A,[__r0]
 0086 5401              mov [X+1],A
 0088                   .dbline 65
 0088           ; }
 0088 3D010A            cmp [X+1],10
 008B B004              jnz L15
 008D                   .dbline 65
 008D 560001            mov [X+0],1
 0090           L15:
 0090                   .dbline 66
 0090           L11:
 0090                   .dbline 56
 0090 3D0000            cmp [X+0],0
 0093 AFC3              jz L10
 0095                   .dbline 67
 0095           ; }
 0095           ; }
 0095 62D000            mov REG[0xd0],>__r0
 0098 50FF              mov A,-1
 009A                   .dbline -2
 009A           L9:
 009A 38FD              add SP,-3
 009C 20                pop X
 009D                   .dbline 0 ; func end
 009D 7F                ret
 009E                   .dbsym l recibe_dato 2 c
 009E                   .dbsym l recibe_contador 1 c
 009E                   .dbsym l recibe_confirmacion 0 c
 009E                   .dbend
                        .area data(ram, con, rel)
 0000                   .dbfile ./comunicaciones.h
 0000           _Cam1::
 0000 00                .byte 0
 0001                   .dbfile ./terminal.h
 0001                   .dbsym e Cam1 _Cam1 c
                        .area data(ram, con, rel)
 0000                   .dbfile ./terminal.h
                        .area data(ram, con, rel)
 0000                   .dbfile ./terminal.h
 0000           _Cam2::
 0000 00                .byte 0
 0001                   .dbsym e Cam2 _Cam2 c
                        .area data(ram, con, rel)
 0000                   .dbfile ./terminal.h
                        .area data(ram, con, rel)
 0000                   .dbfile ./terminal.h
 0000           _Ent1::
 0000 00                .byte 0
 0001                   .dbsym e Ent1 _Ent1 c
                        .area data(ram, con, rel)
 0000                   .dbfile ./terminal.h
                        .area data(ram, con, rel)
 0000                   .dbfile ./terminal.h
 0000           _Ent2::
 0000 00                .byte 0
 0001                   .dbsym e Ent2 _Ent2 c
                        .area data(ram, con, rel)
 0000                   .dbfile ./terminal.h
                        .area data(ram, con, rel)
 0000                   .dbfile ./terminal.h
 0000           _Ent3::
 0000 00                .byte 0
 0001                   .dbsym e Ent3 _Ent3 c
                        .area data(ram, con, rel)
 0000                   .dbfile ./terminal.h
                        .area data(ram, con, rel)
 0000                   .dbfile ./terminal.h
 0000           _Ent4::
 0000 00                .byte 0
 0001                   .dbsym e Ent4 _Ent4 c
                        .area data(ram, con, rel)
 0000                   .dbfile ./terminal.h
                        .area data(ram, con, rel)
 0000                   .dbfile ./terminal.h
 0000           _Fla1::
 0000 00                .byte 0
 0001                   .dbsym e Fla1 _Fla1 c
                        .area data(ram, con, rel)
 0000                   .dbfile ./terminal.h
                        .area data(ram, con, rel)
 0000                   .dbfile ./terminal.h
 0000           _Fla2::
 0000 00                .byte 0
 0001                   .dbsym e Fla2 _Fla2 c
                        .area data(ram, con, rel)
 0000                   .dbfile ./terminal.h
                        .area data(ram, con, rel)
 0000                   .dbfile ./terminal.h
 0000           _Fla3::
 0000 00                .byte 0
 0001                   .dbsym e Fla3 _Fla3 c
                        .area data(ram, con, rel)
 0000                   .dbfile ./terminal.h
                        .area data(ram, con, rel)
 0000                   .dbfile ./terminal.h
 0000           _Fla4::
 0000 00                .byte 0
 0001                   .dbsym e Fla4 _Fla4 c
                        .area data(ram, con, rel)
 0000                   .dbfile ./terminal.h
                        .area data(ram, con, rel)
 0000                   .dbfile ./terminal.h
 0000           _Int1_Tdisp::
 0000 00                .byte 0
 0001                   .dbsym e Int1_Tdisp _Int1_Tdisp c
                        .area data(ram, con, rel)
 0000                   .dbfile ./terminal.h
                        .area data(ram, con, rel)
 0000                   .dbfile ./terminal.h
 0000           _Int1_Tdisp_Uni::
 0000 00                .byte 0
 0001                   .dbsym e Int1_Tdisp_Uni _Int1_Tdisp_Uni c
                        .area data(ram, con, rel)
 0000                   .dbfile ./terminal.h
                        .area data(ram, con, rel)
 0000                   .dbfile ./terminal.h
 0000           _Int1_Ndisp::
 0000 00                .byte 0
 0001                   .dbsym e Int1_Ndisp _Int1_Ndisp c
                        .area data(ram, con, rel)
 0000                   .dbfile ./terminal.h
                        .area data(ram, con, rel)
 0000                   .dbfile ./terminal.h
 0000           _Int2_Tdisp::
 0000 00                .byte 0
 0001                   .dbsym e Int2_Tdisp _Int2_Tdisp c
                        .area data(ram, con, rel)
 0000                   .dbfile ./terminal.h
                        .area data(ram, con, rel)
 0000                   .dbfile ./terminal.h
 0000           _Int2_Tdisp_Uni::
 0000 00                .byte 0
 0001                   .dbsym e Int2_Tdisp_Uni _Int2_Tdisp_Uni c
                        .area data(ram, con, rel)
 0000                   .dbfile ./terminal.h
                        .area data(ram, con, rel)
 0000                   .dbfile ./terminal.h
 0000           _Int2_Ndisp::
 0000 00                .byte 0
 0001                   .dbsym e Int2_Ndisp _Int2_Ndisp c
                        .area data(ram, con, rel)
 0000                   .dbfile ./terminal.h
                        .area data(ram, con, rel)
 0000                   .dbfile ./terminal.h
 0000           _TL1_Treal::
 0000 00                .byte 0
 0001                   .dbsym e TL1_Treal _TL1_Treal c
                        .area data(ram, con, rel)
 0000                   .dbfile ./terminal.h
                        .area data(ram, con, rel)
 0000                   .dbfile ./terminal.h
 0000           _TL1_Treal_Uni::
 0000 00                .byte 0
 0001                   .dbsym e TL1_Treal_Uni _TL1_Treal_Uni c
                        .area data(ram, con, rel)
 0000                   .dbfile ./terminal.h
                        .area data(ram, con, rel)
 0000                   .dbfile ./terminal.h
 0000           _TL1_Tfilm::
 0000 00                .byte 0
 0001                   .dbsym e TL1_Tfilm _TL1_Tfilm c
                        .area data(ram, con, rel)
 0000                   .dbfile ./terminal.h
                        .area data(ram, con, rel)
 0000                   .dbfile ./terminal.h
 0000           _TL1_Tfilm_Uni::
 0000 00                .byte 0
 0001                   .dbsym e TL1_Tfilm_Uni _TL1_Tfilm_Uni c
                        .area data(ram, con, rel)
 0000                   .dbfile ./terminal.h
                        .area data(ram, con, rel)
 0000                   .dbfile ./terminal.h
 0000           _TL2_Treal::
 0000 00                .byte 0
 0001                   .dbsym e TL2_Treal _TL2_Treal c
                        .area data(ram, con, rel)
 0000                   .dbfile ./terminal.h
                        .area data(ram, con, rel)
 0000                   .dbfile ./terminal.h
 0000           _TL2_Treal_Uni::
 0000 00                .byte 0
 0001                   .dbsym e TL2_Treal_Uni _TL2_Treal_Uni c
                        .area data(ram, con, rel)
 0000                   .dbfile ./terminal.h
                        .area data(ram, con, rel)
 0000                   .dbfile ./terminal.h
 0000           _TL2_Tfilm::
 0000 00                .byte 0
 0001                   .dbsym e TL2_Tfilm _TL2_Tfilm c
                        .area data(ram, con, rel)
 0000                   .dbfile ./terminal.h
                        .area data(ram, con, rel)
 0000                   .dbfile ./terminal.h
 0000           _TL2_Tfilm_Uni::
 0000 00                .byte 0
 0001                   .dbsym e TL2_Tfilm_Uni _TL2_Tfilm_Uni c
                        .area data(ram, con, rel)
 0000                   .dbfile ./terminal.h
                        .area data(ram, con, rel)
 0000                   .dbfile ./terminal.h
 0000           _Luz_LCD::
 0000 00                .byte 0
 0001                   .dbsym e Luz_LCD _Luz_LCD c
                        .area data(ram, con, rel)
 0000                   .dbfile ./terminal.h
                        .area data(ram, con, rel)
 0000                   .dbfile ./terminal.h
 0000           _Buzzer::
 0000 00                .byte 0
 0001                   .dbsym e Buzzer _Buzzer c
                        .area data(ram, con, rel)
 0000                   .dbfile ./terminal.h
                        .area data(ram, con, rel)
 0000                   .dbfile ./terminal.h
 0000           _Alimentacion::
 0000 00                .byte 0
 0001                   .dbsym e Alimentacion _Alimentacion c
                        .area data(ram, con, rel)
 0000                   .dbfile ./terminal.h
                        .area text(rom, con, rel)
 009E                   .dbfile ./terminal.h
 009E                   .dbfunc e Inicializacion _Inicializacion fV
 009E           _Inicializacion::
 009E                   .dbline -1
 009E                   .dbline 79
 009E           ; }
 009E           ; }
 009E           ; }
 009E           ; }
 009E           ; }
 009E           ; }
 009E           ; }
 009E           ; }
 009E           ; }
 009E           ; }
 009E           ; }
 009E           ; }
 009E                   .dbline 81
 009E           ; }
 009E           ; }
 009E 10                push X
 009F 509C              mov A,-100
 00A1 7C0000            xcall _Timer8_WritePeriod
 00A4                   .dbline 82
 00A4           ; }
 00A4 504E              mov A,78
 00A6 7C0000            xcall _Timer8_WriteCompareValue
 00A9                   .dbline 83
 00A9           ; }
 00A9 7C0000            xcall _Timer8_Start
 00AC                   .dbline 86
 00AC           ; }
 00AC           ; }
 00AC           ; }
 00AC 5000              mov A,0
 00AE 7C0000            xcall _UART_Start
 00B1                   .dbline 89
 00B1           ; }
 00B1           ; }
 00B1           ; }
 00B1 7C0000            xcall _LCD_Start
 00B4                   .dbline 90
 00B4           ; }
 00B4 7C0000            xcall _LCD_Init
 00B7 20                pop X
 00B8                   .dbline 93
 00B8           ; }
 00B8           ; }
 00B8           ; }
 00B8 6200A0            mov REG[ 0],-96
 00BB                   .dbline -2
 00BB                   .dbline 94
 00BB           ; }
 00BB           L17:
 00BB                   .dbline 0 ; func end
 00BB 7F                ret
 00BC                   .dbend
 00BC                   .dbfunc e Bienvenida _Bienvenida fV
 00BC           _Bienvenida::
 00BC                   .dbline -1
 00BC                   .dbline 112
 00BC           ; }
 00BC           ; }
 00BC           ; }
 00BC           ; }
 00BC           ; }
 00BC           ; }
 00BC           ; }
 00BC           ; }
 00BC           ; }
 00BC           ; }
 00BC           ; }
 00BC           ; }
 00BC           ; }
 00BC           ; }
 00BC           ; }
 00BC           ; }
 00BC           ; }
 00BC           ; }
 00BC                   .dbline 113
 00BC           ; }
 00BC 10                push X
 00BD 5001              mov A,1
 00BF 7C0000            xcall _LCD_Control
 00C2                   .dbline 114
 00C2           ; }
 00C2 5701              mov X,1
 00C4 5000              mov A,0
 00C6 7C0000            xcall _LCD_Position
 00C9                   .dbline 115
 00C9           ; }
 00C9 501C              mov A,>L19
 00CB 08                push A
 00CC 501C              mov A,<L19
 00CE 5C                mov X,A
 00CF 18                pop A
 00D0 7C0000            xcall _LCD_PrCString
 00D3                   .dbline 116
 00D3           ; }
 00D3 5703              mov X,3
 00D5 5001              mov A,1
 00D7 7C0000            xcall _LCD_Position
 00DA                   .dbline 117
 00DA           ; }
 00DA 5010              mov A,>L20
 00DC 08                push A
 00DD 5010              mov A,<L20
 00DF 5C                mov X,A
 00E0 18                pop A
 00E1 7C0000            xcall _LCD_PrCString
 00E4 20                pop X
 00E5                   .dbline 118
 00E5           ; }
 00E5 9001              xcall _bucle_temp
 00E7                   .dbline -2
 00E7                   .dbline 119
 00E7           ; }
 00E7           L18:
 00E7                   .dbline 0 ; func end
 00E7 7F                ret
 00E8                   .dbend
 00E8                   .dbfunc e bucle_temp _bucle_temp fV
 00E8           ;              x -> X+0
 00E8           _bucle_temp::
 00E8                   .dbline -1
 00E8 10                push X
 00E9 4F                mov X,SP
 00EA 3802              add SP,2
 00EC                   .dbline 128
 00EC           ; }
 00EC           ; }
 00EC           ; }
 00EC           ; }
 00EC           ; }
 00EC           ; }
 00EC           ; }
 00EC           ; }
 00EC           ; }
 00EC                   .dbline 131
 00EC 560100            mov [X+1],0
 00EF 560000            mov [X+0],0
 00F2 8006              xjmp L25
 00F4           L22:
 00F4                   .dbline 131
 00F4           L23:
 00F4                   .dbline 131
 00F4 7701              inc [X+1]
 00F6 0F0000            adc [X+0],0
 00F9           L25:
 00F9                   .dbline 131
 00F9           ; }
 00F9           ; }
 00F9           ; }
 00F9 62D000            mov REG[0xd0],>__r0
 00FC 5201              mov A,[X+1]
 00FE 5300              mov [__r3],A
 0100 5200              mov A,[X+0]
 0102 5300              mov [__r2],A
 0104 5100              mov A,[__r3]
 0106 11B8              sub A,-72
 0108 5100              mov A,[__r2]
 010A 1988              sbb A,-120
 010C 5000              mov A,0
 010E 1900              sbb A,0
 0110 5000              mov A,0
 0112 3180              xor A,-128
 0114 1980              sbb A,(0 ^ 0x80)
 0116 CFDD              jc L22
 0118           X0:
 0118                   .dbline -2
 0118                   .dbline 132
 0118           ; }
 0118           L21:
 0118 38FE              add SP,-2
 011A 20                pop X
 011B                   .dbline 0 ; func end
 011B 7F                ret
 011C                   .dbsym l x 0 i
 011C                   .dbend
 011C                   .dbfunc e Principal _Principal fV
 011C           ;              x -> X+1
 011C           ;          boton -> X+0
 011C           _Principal::
 011C                   .dbline -1
 011C 10                push X
 011D 4F                mov X,SP
 011E 3803              add SP,3
 0120                   .dbline 144
 0120           ; }
 0120           ; }
 0120           ; }
 0120           ; }
 0120           ; }
 0120           ; }
 0120           ; }
 0120           ; }
 0120           ; }
 0120           ; }
 0120           ; }
 0120           ; }
 0120                   .dbline 148
 0120           ; }
 0120           ; }
 0120           ; }
 0120           ; }
 0120 9068              xcall _Pulsador
 0122 5400              mov [X+0],A
 0124                   .dbline 149
 0124           ; }
 0124 62D000            mov REG[0xd0],>_Buzzer
 0127 3C0001            cmp [_Buzzer],1
 012A B003              jnz L27
 012C                   .dbline 149
 012C 900B              xcall _Pitido
 012E           L27:
 012E                   .dbline 150
 012E 3D0000            cmp [X+0],0
 0131 A003              jz L29
 0133                   .dbline 151
 0133                   .dbline 152
 0133 90F7              xcall _Menu
 0135                   .dbline 153
 0135           L29:
 0135                   .dbline -2
 0135                   .dbline 154
 0135           ; }
 0135           ; }
 0135           ; }
 0135           ; }
 0135           ; }
 0135           L26:
 0135 38FD              add SP,-3
 0137 20                pop X
 0138                   .dbline 0 ; func end
 0138 7F                ret
 0139                   .dbsym l x 1 i
 0139                   .dbsym l boton 0 c
 0139                   .dbend
 0139                   .dbfunc e Pitido _Pitido fV
 0139           ;             xx -> X+0
 0139           _Pitido::
 0139                   .dbline -1
 0139 10                push X
 013A 4F                mov X,SP
 013B 3802              add SP,2
 013D                   .dbline 165
 013D           ; }
 013D           ; }
 013D           ; }
 013D           ; }
 013D           ; }
 013D           ; }
 013D           ; }
 013D           ; }
 013D           ; }
 013D           ; }
 013D           ; }
 013D                   .dbline 168
 013D           ; }
 013D           ; }
 013D           ; }
 013D 430008            or REG[ 0],8
 0140                   .dbline 169
 0140 560100            mov [X+1],0
 0143 560000            mov [X+0],0
 0146           L32:
 0146                   .dbline 169
 0146 5D00              mov A,REG[ 0]
 0148 62D000            mov REG[0xd0],>__r0
 014B 6000              mov REG[ 0],A
 014D           L33:
 014D                   .dbline 169
 014D           ; }
 014D 7701              inc [X+1]
 014F 0F0000            adc [X+0],0
 0152                   .dbline 169
 0152 5201              mov A,[X+1]
 0154 11A0              sub A,-96
 0156 5200              mov A,[X+0]
 0158 3180              xor A,-128
 015A 198F              sbb A,(15 ^ 0x80)
 015C CFE9              jc L32
 015E           X1:
 015E                   .dbline 170
 015E           ; }
 015E 4100F7            and REG[ 0],-9
 0161                   .dbline -2
 0161                   .dbline 171
 0161           ; }
 0161           L31:
 0161 38FE              add SP,-2
 0163 20                pop X
 0164                   .dbline 0 ; func end
 0164 7F                ret
 0165                   .dbsym l xx 0 I
 0165                   .dbend
 0165                   .dbfunc e Reset_PdT _Reset_PdT fV
 0165           ;              x -> X+0
 0165           _Reset_PdT::
 0165                   .dbline -1
 0165 10                push X
 0166 4F                mov X,SP
 0167 3802              add SP,2
 0169                   .dbline 187
 0169           ; }
 0169           ; }
 0169           ; }
 0169           ; }
 0169           ; }
 0169           ; }
 0169           ; }
 0169           ; }
 0169           ; }
 0169           ; }
 0169           ; }
 0169           ; }
 0169           ; }
 0169           ; }
 0169           ; }
 0169           ; }
 0169                   .dbline 190
 0169           ; }
 0169           ; }
 0169           ; }
 0169 430004            or REG[ 0],4
 016C                   .dbline 191
 016C 560100            mov [X+1],0
 016F 560000            mov [X+0],0
 0172           L37:
 0172                   .dbline 191
 0172           L38:
 0172                   .dbline 191
 0172           ; }
 0172 7701              inc [X+1]
 0174 0F0000            adc [X+0],0
 0177                   .dbline 191
 0177 5201              mov A,[X+1]
 0179 11F4              sub A,-12
 017B 5200              mov A,[X+0]
 017D 3180              xor A,-128
 017F 1981              sbb A,(1 ^ 0x80)
 0181 CFF0              jc L37
 0183           X2:
 0183                   .dbline 192
 0183           ; }
 0183 4100FB            and REG[ 0],-5
 0186                   .dbline -2
 0186                   .dbline 193
 0186           ; }
 0186           L36:
 0186 38FE              add SP,-2
 0188 20                pop X
 0189                   .dbline 0 ; func end
 0189 7F                ret
 018A                   .dbsym l x 0 I
 018A                   .dbend
 018A                   .dbfunc e Pulsador _Pulsador fc
 018A           ;          aviso -> X+3
 018A           ;        pulsado -> X+2
 018A           ;              x -> X+0
 018A           _Pulsador::
 018A                   .dbline -1
 018A 10                push X
 018B 4F                mov X,SP
 018C 3804              add SP,4
 018E                   .dbline 207
 018E           ; }
 018E           ; }
 018E           ; }
 018E           ; }
 018E           ; }
 018E           ; }
 018E           ; }
 018E           ; }
 018E           ; }
 018E           ; }
 018E           ; }
 018E           ; }
 018E           ; }
 018E           ; }
 018E                   .dbline 211
 018E           ; }
 018E           ; }
 018E           ; }
 018E           ; }
 018E 560200            mov [X+2],0
 0191           L42:
 0191                   .dbline 215
 0191           ; }
 0191           ; }
 0191           ; }
 0191           ; }
 0191                   .dbline 216
 0191           ; }
 0191 10                push X
 0192 7C0000            xcall _UART_cReadChar
 0195 62D000            mov REG[0xd0],>__r0
 0198 20                pop X
 0199 5403              mov [X+3],A
 019B                   .dbline 217
 019B           ; }
 019B 3D03FF            cmp [X+3],-1
 019E B001              jnz L45
 01A0                   .dbline 217
 01A0           L45:
 01A0                   .dbline 218
 01A0           ; }
 01A0 5D00              mov A,REG[ 0]
 01A2 62D000            mov REG[0xd0],>__r0
 01A5 5300              mov [__r0],A
 01A7 2600A0            and [__r0],-96
 01AA 3C0020            cmp [__r0],32
 01AD B004              jnz L47
 01AF                   .dbline 218
 01AF 560201            mov [X+2],1
 01B2           L47:
 01B2                   .dbline 219
 01B2           ; }
 01B2 5D00              mov A,REG[ 0]
 01B4 62D000            mov REG[0xd0],>__r0
 01B7 5300              mov [__r0],A
 01B9 2600A0            and [__r0],-96
 01BC 3C0080            cmp [__r0],-128
 01BF B004              jnz L49
 01C1                   .dbline 219
 01C1 560202            mov [X+2],2
 01C4           L49:
 01C4                   .dbline 220
 01C4           ; }
 01C4 3D0200            cmp [X+2],0
 01C7 A048              jz L51
 01C9                   .dbline 221
 01C9           ; }
 01C9                   .dbline 222
 01C9 560100            mov [X+1],0
 01CC 560000            mov [X+0],0
 01CF 8006              xjmp L56
 01D1           L53:
 01D1                   .dbline 222
 01D1           L54:
 01D1                   .dbline 222
 01D1 7701              inc [X+1]
 01D3 0F0000            adc [X+0],0
 01D6           L56:
 01D6                   .dbline 222
 01D6           ; }
 01D6 5201              mov A,[X+1]
 01D8 1164              sub A,100
 01DA 5200              mov A,[X+0]
 01DC 1900              sbb A,0
 01DE CFF2              jc L53
 01E0           X3:
 01E0                   .dbline 223
 01E0           ; }
 01E0 560100            mov [X+1],0
 01E3 560000            mov [X+0],0
 01E6 801C              xjmp L60
 01E8           L57:
 01E8                   .dbline 224
 01E8           ; }
 01E8                   .dbline 225
 01E8           ; }
 01E8 5D00              mov A,REG[ 0]
 01EA 62D000            mov REG[0xd0],>__r0
 01ED 5300              mov [__r0],A
 01EF 2600A0            and [__r0],-96
 01F2 3C00A0            cmp [__r0],-96
 01F5 B005              jnz L61
 01F7                   .dbline 225
 01F7 5202              mov A,[X+2]
 01F9 802E              xjmp L41
 01FB           L61:
 01FB                   .dbline 226
 01FB 4300A0            or REG[ 0],-96
 01FE                   .dbline 227
 01FE           L58:
 01FE                   .dbline 223
 01FE 7701              inc [X+1]
 0200 0F0000            adc [X+0],0
 0203           L60:
 0203                   .dbline 223
 0203 5201              mov A,[X+1]
 0205 1130              sub A,48
 0207 5200              mov A,[X+0]
 0209 1975              sbb A,117
 020B CFDC              jc L57
 020D           X4:
 020D                   .dbline 228
 020D           ; }
 020D           ; }
 020D           ; }
 020D 070202            add [X+2],2
 0210                   .dbline 229
 0210           ; }
 0210           L51:
 0210                   .dbline 230
 0210           ; }
 0210 10                push X
 0211 7C0000            xcall _UART_cReadChar
 0214 62D000            mov REG[0xd0],>__r0
 0217 20                pop X
 0218 39FB              cmp A,-5
 021A B003              jnz L63
 021C                   .dbline 230
 021C 9EFE              xcall _Principal
 021E           L63:
 021E                   .dbline 231
 021E           L43:
 021E                   .dbline 231
 021E           ; }
 021E 3D0200            cmp [X+2],0
 0221 AF6F              jz L42
 0223                   .dbline 232
 0223           ; }
 0223 5202              mov A,[X+2]
 0225 62D000            mov REG[0xd0],>__r0
 0228                   .dbline -2
 0228           L41:
 0228 38FC              add SP,-4
 022A 20                pop X
 022B                   .dbline 0 ; func end
 022B 7F                ret
 022C                   .dbsym l aviso 3 c
 022C                   .dbsym l pulsado 2 c
 022C                   .dbsym l x 0 i
 022C                   .dbend
 022C                   .dbfunc e Menu _Menu fV
 022C           ;              x -> X+2
 022C           ;         pulsat -> X+1
 022C           ;          index -> X+0
 022C           _Menu::
 022C                   .dbline -1
 022C 10                push X
 022D 4F                mov X,SP
 022E 3804              add SP,4
 0230                   .dbline 243
 0230           ; }
 0230           ; }
 0230           ; }
 0230           ; }
 0230           ; }
 0230           ; }
 0230           ; }
 0230           ; }
 0230           ; }
 0230           ; }
 0230           ; }
 0230                   .dbline 244
 0230           ; }
 0230 560001            mov [X+0],1
 0233           L66:
 0233                   .dbline 248
 0233           ; }
 0233           ; }
 0233           ; }
 0233           ; }
 0233                   .dbline 249
 0233           ; }
 0233 10                push X
 0234 5001              mov A,1
 0236 7C0000            xcall _LCD_Control
 0239                   .dbline 250
 0239           ; }
 0239 5000              mov A,>L69
 023B 08                push A
 023C 5000              mov A,<L69
 023E 5C                mov X,A
 023F 18                pop A
 0240 7C0000            xcall _LCD_PrCString
 0243                   .dbline 251
 0243           ; }
 0243 5700              mov X,0
 0245 5001              mov A,1
 0247 7C0000            xcall _LCD_Position
 024A 20                pop X
 024B                   .dbline 252
 024B           ; }
 024B 3D0001            cmp [X+0],1
 024E B00F              jnz L70
 0250                   .dbline 252
 0250 10                push X
 0251 50EF              mov A,>L72
 0253 08                push A
 0254 50EF              mov A,<L72
 0256 5C                mov X,A
 0257 18                pop A
 0258 7C0000            xcall _LCD_PrCString
 025B 20                pop X
 025C 804B              xjmp L71
 025E           L70:
 025E                   .dbline 253
 025E           ; }
 025E 3D0002            cmp [X+0],2
 0261 B00F              jnz L73
 0263                   .dbline 253
 0263 10                push X
 0264 50DF              mov A,>L75
 0266 08                push A
 0267 50DF              mov A,<L75
 0269 5C                mov X,A
 026A 18                pop A
 026B 7C0000            xcall _LCD_PrCString
 026E 20                pop X
 026F 8038              xjmp L74
 0271           L73:
 0271                   .dbline 254
 0271           ; }
 0271 3D0003            cmp [X+0],3
 0274 B00F              jnz L76
 0276                   .dbline 254
 0276 10                push X
 0277 50CF              mov A,>L78
 0279 08                push A
 027A 50CF              mov A,<L78
 027C 5C                mov X,A
 027D 18                pop A
 027E 7C0000            xcall _LCD_PrCString
 0281 20                pop X
 0282 8025              xjmp L77
 0284           L76:
 0284                   .dbline 255
 0284           ; }
 0284 3D0004            cmp [X+0],4
 0287 B00F              jnz L79
 0289                   .dbline 255
 0289 10                push X
 028A 50C4              mov A,>L81
 028C 08                push A
 028D 50C4              mov A,<L81
 028F 5C                mov X,A
 0290 18                pop A
 0291 7C0000            xcall _LCD_PrCString
 0294 20                pop X
 0295 8012              xjmp L80
 0297           L79:
 0297                   .dbline 256
 0297           ; }
 0297 3D0005            cmp [X+0],5
 029A B00D              jnz L82
 029C                   .dbline 256
 029C 10                push X
 029D 50B4              mov A,>L84
 029F 08                push A
 02A0 50B4              mov A,<L84
 02A2 5C                mov X,A
 02A3 18                pop A
 02A4 7C0000            xcall _LCD_PrCString
 02A7 20                pop X
 02A8           L82:
 02A8           L80:
 02A8           L77:
 02A8           L74:
 02A8           L71:
 02A8                   .dbline 257
 02A8           ; }
 02A8 9E3E              xcall _bucle_temp
 02AA                   .dbline 258
 02AA           ; }
 02AA 9EDE              xcall _Pulsador
 02AC 5401              mov [X+1],A
 02AE                   .dbline 259
 02AE           ; }
 02AE 62D000            mov REG[0xd0],>_Buzzer
 02B1 3C0001            cmp [_Buzzer],1
 02B4 B003              jnz L85
 02B6                   .dbline 259
 02B6 9E81              xcall _Pitido
 02B8           L85:
 02B8                   .dbline 260
 02B8           ; }
 02B8 3D0101            cmp [X+1],1
 02BB B019              jnz L87
 02BD                   .dbline 261
 02BD           ; }
 02BD                   .dbline 262
 02BD           ; }
 02BD 62D000            mov REG[0xd0],>__r0
 02C0 5200              mov A,[X+0]
 02C2 0101              add A,1
 02C4 5300              mov [__r0],A
 02C6 5005              mov A,5
 02C8 3A00              cmp A,[__r0]
 02CA D006              jnc L89
 02CC           X5:
 02CC                   .dbline 262
 02CC 560001            mov [X+0],1
 02CF 8050              xjmp L88
 02D1           L89:
 02D1                   .dbline 263
 02D1           ; }
 02D1 7700              inc [X+0]
 02D3                   .dbline 264
 02D3           ; }
 02D3 804C              xjmp L88
 02D5           L87:
 02D5                   .dbline 265
 02D5           ; }
 02D5 3D0103            cmp [X+1],3
 02D8 B030              jnz L91
 02DA                   .dbline 266
 02DA           ; }
 02DA                   .dbline 267
 02DA           ; }
 02DA 3D0001            cmp [X+0],1
 02DD B005              jnz L93
 02DF                   .dbline 267
 02DF 9048              xcall _Sensors
 02E1 803E              xjmp L92
 02E3           L93:
 02E3                   .dbline 268
 02E3           ; }
 02E3 3D0002            cmp [X+0],2
 02E6 B005              jnz L95
 02E8                   .dbline 268
 02E8 9326              xcall _Flashes
 02EA 8035              xjmp L92
 02EC           L95:
 02EC                   .dbline 269
 02EC           ; }
 02EC 3D0003            cmp [X+0],3
 02EF B005              jnz L97
 02F1                   .dbline 269
 02F1 968E              xcall _Dispar
 02F3 802C              xjmp L92
 02F5           L97:
 02F5                   .dbline 270
 02F5           ; }
 02F5 3D0004            cmp [X+0],4
 02F8 B006              jnz L99
 02FA                   .dbline 270
 02FA 7C1036            xcall _Executar
 02FD 8022              xjmp L92
 02FF           L99:
 02FF                   .dbline 271
 02FF           ; }
 02FF 3D0005            cmp [X+0],5
 0302 B01D              jnz L92
 0304                   .dbline 271
 0304 7C12C0            xcall _Sistema
 0307                   .dbline 272
 0307           ; }
 0307 8018              xjmp L92
 0309           L91:
 0309                   .dbline 273
 0309           ; }
 0309 3D0102            cmp [X+1],2
 030C B013              jnz L103
 030E                   .dbline 274
 030E           ; }
 030E                   .dbline 275
 030E           ; }
 030E 62D000            mov REG[0xd0],>__r0
 0311 5200              mov A,[X+0]
 0313 1101              sub A,1
 0315 3901              cmp A,1
 0317 D006              jnc L105
 0319           X6:
 0319                   .dbline 275
 0319 560005            mov [X+0],5
 031C 8003              xjmp L106
 031E           L105:
 031E                   .dbline 276
 031E           ; }
 031E 7B00              dec [X+0]
 0320           L106:
 0320                   .dbline 277
 0320           ; }
 0320           L103:
 0320           L92:
 0320           L88:
 0320                   .dbline 278
 0320           L67:
 0320                   .dbline 278
 0320           ; }
 0320 3D0104            cmp [X+1],4
 0323 BF0F              jnz L66
 0325                   .dbline -2
 0325                   .dbline 279
 0325           ; }
 0325           L65:
 0325 38FC              add SP,-4
 0327 20                pop X
 0328                   .dbline 0 ; func end
 0328 7F                ret
 0329                   .dbsym l x 2 i
 0329                   .dbsym l pulsat 1 c
 0329                   .dbsym l index 0 c
 0329                   .dbend
 0329                   .dbfunc e Sensors _Sensors fV
 0329           ;              x -> X+2
 0329           ;           menu -> X+1
 0329           ;         pulsat -> X+0
 0329           _Sensors::
 0329                   .dbline -1
 0329 10                push X
 032A 4F                mov X,SP
 032B 3804              add SP,4
 032D                   .dbline 289
 032D           ; }
 032D           ; }
 032D           ; }
 032D           ; }
 032D           ; }
 032D           ; }
 032D           ; }
 032D           ; }
 032D           ; }
 032D           ; }
 032D                   .dbline 290
 032D           ; }
 032D 560101            mov [X+1],1
 0330           L108:
 0330                   .dbline 294
 0330           ; }
 0330           ; }
 0330           ; }
 0330           ; }
 0330                   .dbline 295
 0330           ; }
 0330 10                push X
 0331 5001              mov A,1
 0333 7C0000            xcall _LCD_Control
 0336                   .dbline 296
 0336           ; }
 0336 50A4              mov A,>L111
 0338 08                push A
 0339 50A4              mov A,<L111
 033B 5C                mov X,A
 033C 18                pop A
 033D 7C0000            xcall _LCD_PrCString
 0340                   .dbline 297
 0340           ; }
 0340 5700              mov X,0
 0342 5001              mov A,1
 0344 7C0000            xcall _LCD_Position
 0347 20                pop X
 0348                   .dbline 298
 0348           ; }
 0348 3D0101            cmp [X+1],1
 034B B00F              jnz L112
 034D                   .dbline 298
 034D 10                push X
 034E 5094              mov A,>L114
 0350 08                push A
 0351 5094              mov A,<L114
 0353 5C                mov X,A
 0354 18                pop A
 0355 7C0000            xcall _LCD_PrCString
 0358 20                pop X
 0359 8038              xjmp L113
 035B           L112:
 035B                   .dbline 299
 035B           ; }
 035B 3D0102            cmp [X+1],2
 035E B00F              jnz L115
 0360                   .dbline 299
 0360 10                push X
 0361 5084              mov A,>L117
 0363 08                push A
 0364 5084              mov A,<L117
 0366 5C                mov X,A
 0367 18                pop A
 0368 7C0000            xcall _LCD_PrCString
 036B 20                pop X
 036C 8025              xjmp L116
 036E           L115:
 036E                   .dbline 300
 036E           ; }
 036E 3D0103            cmp [X+1],3
 0371 B00F              jnz L118
 0373                   .dbline 300
 0373 10                push X
 0374 5075              mov A,>L120
 0376 08                push A
 0377 5075              mov A,<L120
 0379 5C                mov X,A
 037A 18                pop A
 037B 7C0000            xcall _LCD_PrCString
 037E 20                pop X
 037F 8012              xjmp L119
 0381           L118:
 0381                   .dbline 301
 0381           ; }
 0381 3D0104            cmp [X+1],4
 0384 B00D              jnz L121
 0386                   .dbline 301
 0386 10                push X
 0387 5066              mov A,>L123
 0389 08                push A
 038A 5066              mov A,<L123
 038C 5C                mov X,A
 038D 18                pop A
 038E 7C0000            xcall _LCD_PrCString
 0391 20                pop X
 0392           L121:
 0392           L119:
 0392           L116:
 0392           L113:
 0392                   .dbline 302
 0392           ; }
 0392 9D54              xcall _bucle_temp
 0394                   .dbline 303
 0394           ; }
 0394 9DF4              xcall _Pulsador
 0396 5400              mov [X+0],A
 0398                   .dbline 304
 0398           ; }
 0398 62D000            mov REG[0xd0],>_Buzzer
 039B 3C0001            cmp [_Buzzer],1
 039E B003              jnz L124
 03A0                   .dbline 304
 03A0 9D97              xcall _Pitido
 03A2           L124:
 03A2                   .dbline 305
 03A2           ; }
 03A2 3D0001            cmp [X+0],1
 03A5 B019              jnz L126
 03A7                   .dbline 306
 03A7           ; }
 03A7                   .dbline 307
 03A7           ; }
 03A7 62D000            mov REG[0xd0],>__r0
 03AA 5201              mov A,[X+1]
 03AC 0101              add A,1
 03AE 5300              mov [__r0],A
 03B0 5004              mov A,4
 03B2 3A00              cmp A,[__r0]
 03B4 D006              jnc L128
 03B6           X7:
 03B6                   .dbline 307
 03B6 560101            mov [X+1],1
 03B9 8045              xjmp L127
 03BB           L128:
 03BB                   .dbline 308
 03BB           ; }
 03BB 7701              inc [X+1]
 03BD                   .dbline 309
 03BD           ; }
 03BD 8041              xjmp L127
 03BF           L126:
 03BF                   .dbline 310
 03BF           ; }
 03BF 3D0003            cmp [X+0],3
 03C2 B025              jnz L130
 03C4                   .dbline 311
 03C4           ; }
 03C4                   .dbline 312
 03C4           ; }
 03C4 3D0101            cmp [X+1],1
 03C7 B005              jnz L132
 03C9                   .dbline 312
 03C9 903D              xcall _Entrada1
 03CB 8033              xjmp L131
 03CD           L132:
 03CD                   .dbline 313
 03CD           ; }
 03CD 3D0102            cmp [X+1],2
 03D0 B005              jnz L134
 03D2                   .dbline 313
 03D2 90B6              xcall _Entrada2
 03D4 802A              xjmp L131
 03D6           L134:
 03D6                   .dbline 314
 03D6           ; }
 03D6 3D0103            cmp [X+1],3
 03D9 B005              jnz L136
 03DB                   .dbline 314
 03DB 912F              xcall _Entrada3
 03DD 8021              xjmp L131
 03DF           L136:
 03DF                   .dbline 315
 03DF           ; }
 03DF 3D0104            cmp [X+1],4
 03E2 B01C              jnz L131
 03E4                   .dbline 315
 03E4 91A8              xcall _Entrada4
 03E6                   .dbline 316
 03E6           ; }
 03E6 8018              xjmp L131
 03E8           L130:
 03E8                   .dbline 317
 03E8           ; }
 03E8 3D0002            cmp [X+0],2
 03EB B013              jnz L140
 03ED                   .dbline 318
 03ED           ; }
 03ED                   .dbline 319
 03ED           ; }
 03ED 62D000            mov REG[0xd0],>__r0
 03F0 5201              mov A,[X+1]
 03F2 1101              sub A,1
 03F4 3901              cmp A,1
 03F6 D006              jnc L142
 03F8           X8:
 03F8                   .dbline 319
 03F8 560104            mov [X+1],4
 03FB 8003              xjmp L143
 03FD           L142:
 03FD                   .dbline 320
 03FD           ; }
 03FD 7B01              dec [X+1]
 03FF           L143:
 03FF                   .dbline 321
 03FF           ; }
 03FF           L140:
 03FF           L131:
 03FF           L127:
 03FF                   .dbline 322
 03FF           L109:
 03FF                   .dbline 322
 03FF           ; }
 03FF 3D0004            cmp [X+0],4
 0402 BF2D              jnz L108
 0404                   .dbline -2
 0404                   .dbline 323
 0404           ; }
 0404           L107:
 0404 38FC              add SP,-4
 0406 20                pop X
 0407                   .dbline 0 ; func end
 0407 7F                ret
 0408                   .dbsym l x 2 i
 0408                   .dbsym l menu 1 c
 0408                   .dbsym l pulsat 0 c
 0408                   .dbend
 0408                   .dbfunc e Entrada1 _Entrada1 fV
 0408           ;              x -> X+1
 0408           ;         pulsat -> X+0
 0408           _Entrada1::
 0408                   .dbline -1
 0408 10                push X
 0409 4F                mov X,SP
 040A 3803              add SP,3
 040C                   .dbline 333
 040C           ; }
 040C           ; }
 040C           ; }
 040C           ; }
 040C           ; }
 040C           ; }
 040C           ; }
 040C           ; }
 040C           ; }
 040C           ; }
 040C           L145:
 040C                   .dbline 338
 040C           ; }
 040C           ; }
 040C           ; }
 040C           ; }
 040C           ; }
 040C                   .dbline 339
 040C           ; }
 040C 10                push X
 040D 5001              mov A,1
 040F 7C0000            xcall _LCD_Control
 0412                   .dbline 340
 0412           ; }
 0412 5057              mov A,>L148
 0414 08                push A
 0415 5057              mov A,<L148
 0417 5C                mov X,A
 0418 18                pop A
 0419 7C0000            xcall _LCD_PrCString
 041C                   .dbline 341
 041C           ; }
 041C 5700              mov X,0
 041E 5001              mov A,1
 0420 7C0000            xcall _LCD_Position
 0423 20                pop X
 0424                   .dbline 342
 0424           ; }
 0424 62D000            mov REG[0xd0],>_Ent1
 0427 3C0000            cmp [_Ent1],0
 042A B00F              jnz L149
 042C                   .dbline 342
 042C 10                push X
 042D 5053              mov A,>L151
 042F 08                push A
 0430 5053              mov A,<L151
 0432 5C                mov X,A
 0433 18                pop A
 0434 7C0000            xcall _LCD_PrCString
 0437 20                pop X
 0438 800D              xjmp L150
 043A           L149:
 043A                   .dbline 343
 043A           ; }
 043A 10                push X
 043B 5050              mov A,>L152
 043D 08                push A
 043E 5050              mov A,<L152
 0440 5C                mov X,A
 0441 18                pop A
 0442 7C0000            xcall _LCD_PrCString
 0445 20                pop X
 0446           L150:
 0446                   .dbline 344
 0446           ; }
 0446 9CA0              xcall _bucle_temp
 0448                   .dbline 345
 0448           ; }
 0448 9D40              xcall _Pulsador
 044A 5400              mov [X+0],A
 044C                   .dbline 346
 044C           ; }
 044C 62D000            mov REG[0xd0],>_Buzzer
 044F 3C0001            cmp [_Buzzer],1
 0452 B003              jnz L153
 0454                   .dbline 346
 0454 9CE3              xcall _Pitido
 0456           L153:
 0456                   .dbline 347
 0456           ; }
 0456 3D0001            cmp [X+0],1
 0459 A006              jz L157
 045B 3D0002            cmp [X+0],2
 045E B00A              jnz L155
 0460           L157:
 0460                   .dbline 348
 0460           ; }
 0460                   .dbline 349
 0460           ; }
 0460 5D00              mov A,REG[ 0]
 0462 62D000            mov REG[0xd0],>__r0
 0465 6000              mov REG[ 0],A
 0467                   .dbline 350
 0467           ; }
 0467 8019              xjmp L156
 0469           L155:
 0469                   .dbline 351
 0469           ; }
 0469 3D0003            cmp [X+0],3
 046C B014              jnz L158
 046E                   .dbline 352
 046E           ; }
 046E                   .dbline 353
 046E           ; }
 046E 62D000            mov REG[0xd0],>_Ent1
 0471 3C0000            cmp [_Ent1],0
 0474 B006              jnz L160
 0476                   .dbline 353
 0476 550001            mov [_Ent1],1
 0479 8007              xjmp L161
 047B           L160:
 047B                   .dbline 354
 047B           ; }
 047B 62D000            mov REG[0xd0],>_Ent1
 047E 550000            mov [_Ent1],0
 0481           L161:
 0481                   .dbline 355
 0481           ; }
 0481           L158:
 0481           L156:
 0481                   .dbline 356
 0481           L146:
 0481                   .dbline 356
 0481           ; }
 0481 3D0004            cmp [X+0],4
 0484 BF87              jnz L145
 0486                   .dbline -2
 0486                   .dbline 357
 0486           ; }
 0486           L144:
 0486 38FD              add SP,-3
 0488 20                pop X
 0489                   .dbline 0 ; func end
 0489 7F                ret
 048A                   .dbsym l x 1 i
 048A                   .dbsym l pulsat 0 c
 048A                   .dbend
 048A                   .dbfunc e Entrada2 _Entrada2 fV
 048A           ;              x -> X+1
 048A           ;         pulsat -> X+0
 048A           _Entrada2::
 048A                   .dbline -1
 048A 10                push X
 048B 4F                mov X,SP
 048C 3803              add SP,3
 048E                   .dbline 367
 048E           ; }
 048E           ; }
 048E           ; }
 048E           ; }
 048E           ; }
 048E           ; }
 048E           ; }
 048E           ; }
 048E           ; }
 048E           ; }
 048E           L163:
 048E                   .dbline 372
 048E           ; }
 048E           ; }
 048E           ; }
 048E           ; }
 048E           ; }
 048E                   .dbline 373
 048E           ; }
 048E 10                push X
 048F 5001              mov A,1
 0491 7C0000            xcall _LCD_Control
 0494                   .dbline 374
 0494           ; }
 0494 5041              mov A,>L166
 0496 08                push A
 0497 5041              mov A,<L166
 0499 5C                mov X,A
 049A 18                pop A
 049B 7C0000            xcall _LCD_PrCString
 049E                   .dbline 375
 049E           ; }
 049E 5700              mov X,0
 04A0 5001              mov A,1
 04A2 7C0000            xcall _LCD_Position
 04A5 20                pop X
 04A6                   .dbline 376
 04A6           ; }
 04A6 62D000            mov REG[0xd0],>_Ent2
 04A9 3C0000            cmp [_Ent2],0
 04AC B00F              jnz L167
 04AE                   .dbline 376
 04AE 10                push X
 04AF 5053              mov A,>L151
 04B1 08                push A
 04B2 5053              mov A,<L151
 04B4 5C                mov X,A
 04B5 18                pop A
 04B6 7C0000            xcall _LCD_PrCString
 04B9 20                pop X
 04BA 800D              xjmp L168
 04BC           L167:
 04BC                   .dbline 377
 04BC           ; }
 04BC 10                push X
 04BD 5050              mov A,>L152
 04BF 08                push A
 04C0 5050              mov A,<L152
 04C2 5C                mov X,A
 04C3 18                pop A
 04C4 7C0000            xcall _LCD_PrCString
 04C7 20                pop X
 04C8           L168:
 04C8                   .dbline 378
 04C8           ; }
 04C8 9C1E              xcall _bucle_temp
 04CA                   .dbline 379
 04CA           ; }
 04CA 9CBE              xcall _Pulsador
 04CC 5400              mov [X+0],A
 04CE                   .dbline 380
 04CE           ; }
 04CE 62D000            mov REG[0xd0],>_Buzzer
 04D1 3C0001            cmp [_Buzzer],1
 04D4 B003              jnz L169
 04D6                   .dbline 380
 04D6 9C61              xcall _Pitido
 04D8           L169:
 04D8                   .dbline 381
 04D8           ; }
 04D8 3D0001            cmp [X+0],1
 04DB A006              jz L173
 04DD 3D0002            cmp [X+0],2
 04E0 B00A              jnz L171
 04E2           L173:
 04E2                   .dbline 382
 04E2           ; }
 04E2                   .dbline 383
 04E2           ; }
 04E2 5D00              mov A,REG[ 0]
 04E4 62D000            mov REG[0xd0],>__r0
 04E7 6000              mov REG[ 0],A
 04E9                   .dbline 384
 04E9           ; }
 04E9 8019              xjmp L172
 04EB           L171:
 04EB                   .dbline 385
 04EB           ; }
 04EB 3D0003            cmp [X+0],3
 04EE B014              jnz L174
 04F0                   .dbline 386
 04F0           ; }
 04F0                   .dbline 387
 04F0           ; }
 04F0 62D000            mov REG[0xd0],>_Ent2
 04F3 3C0000            cmp [_Ent2],0
 04F6 B006              jnz L176
 04F8                   .dbline 387
 04F8 550001            mov [_Ent2],1
 04FB 8007              xjmp L177
 04FD           L176:
 04FD                   .dbline 388
 04FD           ; }
 04FD 62D000            mov REG[0xd0],>_Ent2
 0500 550000            mov [_Ent2],0
 0503           L177:
 0503                   .dbline 389
 0503           ; }
 0503           L174:
 0503           L172:
 0503                   .dbline 390
 0503           L164:
 0503                   .dbline 390
 0503           ; }
 0503 3D0004            cmp [X+0],4
 0506 BF87              jnz L163
 0508                   .dbline -2
 0508                   .dbline 391
 0508           ; }
 0508           L162:
 0508 38FD              add SP,-3
 050A 20                pop X
 050B                   .dbline 0 ; func end
 050B 7F                ret
 050C                   .dbsym l x 1 i
 050C                   .dbsym l pulsat 0 c
 050C                   .dbend
 050C                   .dbfunc e Entrada3 _Entrada3 fV
 050C           ;              x -> X+1
 050C           ;         pulsat -> X+0
 050C           _Entrada3::
 050C                   .dbline -1
 050C 10                push X
 050D 4F                mov X,SP
 050E 3803              add SP,3
 0510                   .dbline 401
 0510           ; }
 0510           ; }
 0510           ; }
 0510           ; }
 0510           ; }
 0510           ; }
 0510           ; }
 0510           ; }
 0510           ; }
 0510           ; }
 0510           L179:
 0510                   .dbline 406
 0510           ; }
 0510           ; }
 0510           ; }
 0510           ; }
 0510           ; }
 0510                   .dbline 407
 0510           ; }
 0510 10                push X
 0511 5001              mov A,1
 0513 7C0000            xcall _LCD_Control
 0516                   .dbline 408
 0516           ; }
 0516 5033              mov A,>L182
 0518 08                push A
 0519 5033              mov A,<L182
 051B 5C                mov X,A
 051C 18                pop A
 051D 7C0000            xcall _LCD_PrCString
 0520                   .dbline 409
 0520           ; }
 0520 5700              mov X,0
 0522 5001              mov A,1
 0524 7C0000            xcall _LCD_Position
 0527 20                pop X
 0528                   .dbline 410
 0528           ; }
 0528 62D000            mov REG[0xd0],>_Ent3
 052B 3C0000            cmp [_Ent3],0
 052E B00F              jnz L183
 0530                   .dbline 410
 0530 10                push X
 0531 5053              mov A,>L151
 0533 08                push A
 0534 5053              mov A,<L151
 0536 5C                mov X,A
 0537 18                pop A
 0538 7C0000            xcall _LCD_PrCString
 053B 20                pop X
 053C 800D              xjmp L184
 053E           L183:
 053E                   .dbline 411
 053E           ; }
 053E 10                push X
 053F 5050              mov A,>L152
 0541 08                push A
 0542 5050              mov A,<L152
 0544 5C                mov X,A
 0545 18                pop A
 0546 7C0000            xcall _LCD_PrCString
 0549 20                pop X
 054A           L184:
 054A                   .dbline 412
 054A           ; }
 054A 9B9C              xcall _bucle_temp
 054C                   .dbline 413
 054C           ; }
 054C 9C3C              xcall _Pulsador
 054E 5400              mov [X+0],A
 0550                   .dbline 414
 0550           ; }
 0550 62D000            mov REG[0xd0],>_Buzzer
 0553 3C0001            cmp [_Buzzer],1
 0556 B003              jnz L185
 0558                   .dbline 414
 0558 9BDF              xcall _Pitido
 055A           L185:
 055A                   .dbline 415
 055A           ; }
 055A 3D0001            cmp [X+0],1
 055D A006              jz L189
 055F 3D0002            cmp [X+0],2
 0562 B00A              jnz L187
 0564           L189:
 0564                   .dbline 416
 0564           ; }
 0564                   .dbline 417
 0564           ; }
 0564 5D00              mov A,REG[ 0]
 0566 62D000            mov REG[0xd0],>__r0
 0569 6000              mov REG[ 0],A
 056B                   .dbline 418
 056B           ; }
 056B 8019              xjmp L188
 056D           L187:
 056D                   .dbline 419
 056D           ; }
 056D 3D0003            cmp [X+0],3
 0570 B014              jnz L190
 0572                   .dbline 420
 0572           ; }
 0572                   .dbline 421
 0572           ; }
 0572 62D000            mov REG[0xd0],>_Ent3
 0575 3C0000            cmp [_Ent3],0
 0578 B006              jnz L192
 057A                   .dbline 421
 057A 550001            mov [_Ent3],1
 057D 8007              xjmp L193
 057F           L192:
 057F                   .dbline 422
 057F           ; }
 057F 62D000            mov REG[0xd0],>_Ent3
 0582 550000            mov [_Ent3],0
 0585           L193:
 0585                   .dbline 423
 0585           ; }
 0585           L190:
 0585           L188:
 0585                   .dbline 424
 0585           L180:
 0585                   .dbline 424
 0585           ; }
 0585 3D0004            cmp [X+0],4
 0588 BF87              jnz L179
 058A                   .dbline -2
 058A                   .dbline 425
 058A           ; }
 058A           L178:
 058A 38FD              add SP,-3
 058C 20                pop X
 058D                   .dbline 0 ; func end
 058D 7F                ret
 058E                   .dbsym l x 1 i
 058E                   .dbsym l pulsat 0 c
 058E                   .dbend
 058E                   .dbfunc e Entrada4 _Entrada4 fV
 058E           ;              x -> X+1
 058E           ;         pulsat -> X+0
 058E           _Entrada4::
 058E                   .dbline -1
 058E 10                push X
 058F 4F                mov X,SP
 0590 3803              add SP,3
 0592                   .dbline 435
 0592           ; }
 0592           ; }
 0592           ; }
 0592           ; }
 0592           ; }
 0592           ; }
 0592           ; }
 0592           ; }
 0592           ; }
 0592           ; }
 0592           L195:
 0592                   .dbline 440
 0592           ; }
 0592           ; }
 0592           ; }
 0592           ; }
 0592           ; }
 0592                   .dbline 441
 0592           ; }
 0592 10                push X
 0593 5001              mov A,1
 0595 7C0000            xcall _LCD_Control
 0598                   .dbline 442
 0598           ; }
 0598 5025              mov A,>L198
 059A 08                push A
 059B 5025              mov A,<L198
 059D 5C                mov X,A
 059E 18                pop A
 059F 7C0000            xcall _LCD_PrCString
 05A2                   .dbline 443
 05A2           ; }
 05A2 5700              mov X,0
 05A4 5001              mov A,1
 05A6 7C0000            xcall _LCD_Position
 05A9 20                pop X
 05AA                   .dbline 444
 05AA           ; }
 05AA 62D000            mov REG[0xd0],>_Ent4
 05AD 3C0000            cmp [_Ent4],0
 05B0 B00F              jnz L199
 05B2                   .dbline 444
 05B2 10                push X
 05B3 5053              mov A,>L151
 05B5 08                push A
 05B6 5053              mov A,<L151
 05B8 5C                mov X,A
 05B9 18                pop A
 05BA 7C0000            xcall _LCD_PrCString
 05BD 20                pop X
 05BE 800D              xjmp L200
 05C0           L199:
 05C0                   .dbline 445
 05C0           ; }
 05C0 10                push X
 05C1 5050              mov A,>L152
 05C3 08                push A
 05C4 5050              mov A,<L152
 05C6 5C                mov X,A
 05C7 18                pop A
 05C8 7C0000            xcall _LCD_PrCString
 05CB 20                pop X
 05CC           L200:
 05CC                   .dbline 446
 05CC           ; }
 05CC 9B1A              xcall _bucle_temp
 05CE                   .dbline 447
 05CE           ; }
 05CE 9BBA              xcall _Pulsador
 05D0 5400              mov [X+0],A
 05D2                   .dbline 448
 05D2           ; }
 05D2 62D000            mov REG[0xd0],>_Buzzer
 05D5 3C0001            cmp [_Buzzer],1
 05D8 B003              jnz L201
 05DA                   .dbline 448
 05DA 9B5D              xcall _Pitido
 05DC           L201:
 05DC                   .dbline 449
 05DC           ; }
 05DC 3D0001            cmp [X+0],1
 05DF A006              jz L205
 05E1 3D0002            cmp [X+0],2
 05E4 B00A              jnz L203
 05E6           L205:
 05E6                   .dbline 450
 05E6           ; }
 05E6                   .dbline 451
 05E6           ; }
 05E6 5D00              mov A,REG[ 0]
 05E8 62D000            mov REG[0xd0],>__r0
 05EB 6000              mov REG[ 0],A
 05ED                   .dbline 452
 05ED           ; }
 05ED 8019              xjmp L204
 05EF           L203:
 05EF                   .dbline 453
 05EF           ; }
 05EF 3D0003            cmp [X+0],3
 05F2 B014              jnz L206
 05F4                   .dbline 454
 05F4           ; }
 05F4                   .dbline 455
 05F4           ; }
 05F4 62D000            mov REG[0xd0],>_Ent4
 05F7 3C0000            cmp [_Ent4],0
 05FA B006              jnz L208
 05FC                   .dbline 455
 05FC 550001            mov [_Ent4],1
 05FF 8007              xjmp L209
 0601           L208:
 0601                   .dbline 456
 0601           ; }
 0601 62D000            mov REG[0xd0],>_Ent4
 0604 550000            mov [_Ent4],0
 0607           L209:
 0607                   .dbline 457
 0607           ; }
 0607           L206:
 0607           L204:
 0607                   .dbline 458
 0607           L196:
 0607                   .dbline 458
 0607           ; }
 0607 3D0004            cmp [X+0],4
 060A BF87              jnz L195
 060C                   .dbline -2
 060C                   .dbline 459
 060C           ; }
 060C           L194:
 060C 38FD              add SP,-3
 060E 20                pop X
 060F                   .dbline 0 ; func end
 060F 7F                ret
 0610                   .dbsym l x 1 i
 0610                   .dbsym l pulsat 0 c
 0610                   .dbend
 0610                   .dbfunc e Flashes _Flashes fV
 0610           ;              x -> X+2
 0610           ;           menu -> X+1
 0610           ;         pulsat -> X+0
 0610           _Flashes::
 0610                   .dbline -1
 0610 10                push X
 0611 4F                mov X,SP
 0612 3804              add SP,4
 0614                   .dbline 469
 0614           ; }
 0614           ; }
 0614           ; }
 0614           ; }
 0614           ; }
 0614           ; }
 0614           ; }
 0614           ; }
 0614           ; }
 0614           ; }
 0614                   .dbline 470
 0614           ; }
 0614 560101            mov [X+1],1
 0617           L211:
 0617                   .dbline 474
 0617           ; }
 0617           ; }
 0617           ; }
 0617           ; }
 0617                   .dbline 475
 0617           ; }
 0617 10                push X
 0618 5001              mov A,1
 061A 7C0000            xcall _LCD_Control
 061D                   .dbline 476
 061D           ; }
 061D 5016              mov A,>L214
 061F 08                push A
 0620 5016              mov A,<L214
 0622 5C                mov X,A
 0623 18                pop A
 0624 7C0000            xcall _LCD_PrCString
 0627                   .dbline 477
 0627           ; }
 0627 5700              mov X,0
 0629 5001              mov A,1
 062B 7C0000            xcall _LCD_Position
 062E 20                pop X
 062F                   .dbline 478
 062F           ; }
 062F 3D0101            cmp [X+1],1
 0632 B031              jnz L215
 0634                   .dbline 479
 0634           ; }
 0634                   .dbline 480
 0634           ; }
 0634 10                push X
 0635 500C              mov A,>L217
 0637 08                push A
 0638 500C              mov A,<L217
 063A 5C                mov X,A
 063B 18                pop A
 063C 7C0000            xcall _LCD_PrCString
 063F 20                pop X
 0640                   .dbline 481
 0640           ; }
 0640 62D000            mov REG[0xd0],>_Fla1
 0643 3C0000            cmp [_Fla1],0
 0646 B00F              jnz L218
 0648                   .dbline 481
 0648 10                push X
 0649 5005              mov A,>L220
 064B 08                push A
 064C 5005              mov A,<L220
 064E 5C                mov X,A
 064F 18                pop A
 0650 7C0000            xcall _LCD_PrCString
 0653 20                pop X
 0654 80AC              xjmp L216
 0656           L218:
 0656                   .dbline 482
 0656           ; }
 0656 10                push X
 0657 50FF              mov A,>L221
 0659 08                push A
 065A 50FF              mov A,<L221
 065C 5C                mov X,A
 065D 18                pop A
 065E 7C0000            xcall _LCD_PrCString
 0661 20                pop X
 0662                   .dbline 483
 0662           ; }
 0662 809E              xjmp L216
 0664           L215:
 0664                   .dbline 484
 0664           ; }
 0664 3D0102            cmp [X+1],2
 0667 B031              jnz L222
 0669                   .dbline 485
 0669           ; }
 0669                   .dbline 486
 0669           ; }
 0669 10                push X
 066A 50F5              mov A,>L224
 066C 08                push A
 066D 50F5              mov A,<L224
 066F 5C                mov X,A
 0670 18                pop A
 0671 7C0000            xcall _LCD_PrCString
 0674 20                pop X
 0675                   .dbline 487
 0675           ; }
 0675 62D000            mov REG[0xd0],>_Fla2
 0678 3C0000            cmp [_Fla2],0
 067B B00F              jnz L225
 067D                   .dbline 487
 067D 10                push X
 067E 5005              mov A,>L220
 0680 08                push A
 0681 5005              mov A,<L220
 0683 5C                mov X,A
 0684 18                pop A
 0685 7C0000            xcall _LCD_PrCString
 0688 20                pop X
 0689 8077              xjmp L223
 068B           L225:
 068B                   .dbline 488
 068B           ; }
 068B 10                push X
 068C 50FF              mov A,>L221
 068E 08                push A
 068F 50FF              mov A,<L221
 0691 5C                mov X,A
 0692 18                pop A
 0693 7C0000            xcall _LCD_PrCString
 0696 20                pop X
 0697                   .dbline 489
 0697           ; }
 0697 8069              xjmp L223
 0699           L222:
 0699                   .dbline 490
 0699           ; }
 0699 3D0103            cmp [X+1],3
 069C B031              jnz L227
 069E                   .dbline 491
 069E           ; }
 069E                   .dbline 493
 069E           ; }
 069E           ; }
 069E 10                push X
 069F 50EB              mov A,>L229
 06A1 08                push A
 06A2 50EB              mov A,<L229
 06A4 5C                mov X,A
 06A5 18                pop A
 06A6 7C0000            xcall _LCD_PrCString
 06A9 20                pop X
 06AA                   .dbline 494
 06AA           ; }
 06AA 62D000            mov REG[0xd0],>_Fla3
 06AD 3C0000            cmp [_Fla3],0
 06B0 B00F              jnz L230
 06B2                   .dbline 494
 06B2 10                push X
 06B3 5005              mov A,>L220
 06B5 08                push A
 06B6 5005              mov A,<L220
 06B8 5C                mov X,A
 06B9 18                pop A
 06BA 7C0000            xcall _LCD_PrCString
 06BD 20                pop X
 06BE 8042              xjmp L228
 06C0           L230:
 06C0                   .dbline 495
 06C0           ; }
 06C0 10                push X
 06C1 50FF              mov A,>L221
 06C3 08                push A
 06C4 50FF              mov A,<L221
 06C6 5C                mov X,A
 06C7 18                pop A
 06C8 7C0000            xcall _LCD_PrCString
 06CB 20                pop X
 06CC                   .dbline 496
 06CC           ; }
 06CC 8034              xjmp L228
 06CE           L227:
 06CE                   .dbline 497
 06CE           ; }
 06CE 3D0104            cmp [X+1],4
 06D1 B02F              jnz L232
 06D3                   .dbline 498
 06D3           ; }
 06D3                   .dbline 499
 06D3           ; }
 06D3 10                push X
 06D4 50E1              mov A,>L234
 06D6 08                push A
 06D7 50E1              mov A,<L234
 06D9 5C                mov X,A
 06DA 18                pop A
 06DB 7C0000            xcall _LCD_PrCString
 06DE 20                pop X
 06DF                   .dbline 500
 06DF           ; }
 06DF 62D000            mov REG[0xd0],>_Fla4
 06E2 3C0000            cmp [_Fla4],0
 06E5 B00F              jnz L235
 06E7                   .dbline 500
 06E7 10                push X
 06E8 50D9              mov A,>L237
 06EA 08                push A
 06EB 50D9              mov A,<L237
 06ED 5C                mov X,A
 06EE 18                pop A
 06EF 7C0000            xcall _LCD_PrCString
 06F2 20                pop X
 06F3 800D              xjmp L236
 06F5           L235:
 06F5                   .dbline 501
 06F5           ; }
 06F5 10                push X
 06F6 50FF              mov A,>L221
 06F8 08                push A
 06F9 50FF              mov A,<L221
 06FB 5C                mov X,A
 06FC 18                pop A
 06FD 7C0000            xcall _LCD_PrCString
 0700 20                pop X
 0701           L236:
 0701                   .dbline 502
 0701           ; }
 0701           L232:
 0701           L228:
 0701           L223:
 0701           L216:
 0701                   .dbline 503
 0701           ; }
 0701 99E5              xcall _bucle_temp
 0703                   .dbline 504
 0703           ; }
 0703 9A85              xcall _Pulsador
 0705 5400              mov [X+0],A
 0707                   .dbline 505
 0707           ; }
 0707 62D000            mov REG[0xd0],>_Buzzer
 070A 3C0001            cmp [_Buzzer],1
 070D B003              jnz L238
 070F                   .dbline 505
 070F 9A28              xcall _Pitido
 0711           L238:
 0711                   .dbline 506
 0711           ; }
 0711 3D0001            cmp [X+0],1
 0714 B019              jnz L240
 0716                   .dbline 507
 0716           ; }
 0716                   .dbline 508
 0716           ; }
 0716 62D000            mov REG[0xd0],>__r0
 0719 5201              mov A,[X+1]
 071B 0101              add A,1
 071D 5300              mov [__r0],A
 071F 5004              mov A,4
 0721 3A00              cmp A,[__r0]
 0723 D006              jnc L242
 0725           X9:
 0725                   .dbline 508
 0725 560101            mov [X+1],1
 0728 8045              xjmp L241
 072A           L242:
 072A                   .dbline 509
 072A           ; }
 072A 7701              inc [X+1]
 072C                   .dbline 510
 072C           ; }
 072C 8041              xjmp L241
 072E           L240:
 072E                   .dbline 511
 072E           ; }
 072E 3D0003            cmp [X+0],3
 0731 B025              jnz L244
 0733                   .dbline 512
 0733           ; }
 0733                   .dbline 513
 0733           ; }
 0733 3D0101            cmp [X+1],1
 0736 B005              jnz L246
 0738                   .dbline 513
 0738 903D              xcall _Flash1
 073A 8033              xjmp L245
 073C           L246:
 073C                   .dbline 514
 073C           ; }
 073C 3D0102            cmp [X+1],2
 073F B005              jnz L248
 0741                   .dbline 514
 0741 90B6              xcall _Flash2
 0743 802A              xjmp L245
 0745           L248:
 0745                   .dbline 515
 0745           ; }
 0745 3D0103            cmp [X+1],3
 0748 B005              jnz L250
 074A                   .dbline 515
 074A 912F              xcall _Flash3
 074C 8021              xjmp L245
 074E           L250:
 074E                   .dbline 516
 074E           ; }
 074E 3D0104            cmp [X+1],4
 0751 B01C              jnz L245
 0753                   .dbline 516
 0753 91A8              xcall _Flash4
 0755                   .dbline 517
 0755           ; }
 0755 8018              xjmp L245
 0757           L244:
 0757                   .dbline 518
 0757           ; }
 0757 3D0002            cmp [X+0],2
 075A B013              jnz L254
 075C                   .dbline 519
 075C           ; }
 075C                   .dbline 520
 075C           ; }
 075C 62D000            mov REG[0xd0],>__r0
 075F 5201              mov A,[X+1]
 0761 1101              sub A,1
 0763 3901              cmp A,1
 0765 D006              jnc L256
 0767           X10:
 0767                   .dbline 520
 0767 560104            mov [X+1],4
 076A 8003              xjmp L257
 076C           L256:
 076C                   .dbline 521
 076C           ; }
 076C 7B01              dec [X+1]
 076E           L257:
 076E                   .dbline 522
 076E           ; }
 076E           L254:
 076E           L245:
 076E           L241:
 076E                   .dbline 523
 076E           L212:
 076E                   .dbline 523
 076E           ; }
 076E 3D0004            cmp [X+0],4
 0771 BEA5              jnz L211
 0773                   .dbline -2
 0773                   .dbline 524
 0773           ; }
 0773           L210:
 0773 38FC              add SP,-4
 0775 20                pop X
 0776                   .dbline 0 ; func end
 0776 7F                ret
 0777                   .dbsym l x 2 i
 0777                   .dbsym l menu 1 c
 0777                   .dbsym l pulsat 0 c
 0777                   .dbend
 0777                   .dbfunc e Flash1 _Flash1 fV
 0777           ;              x -> X+1
 0777           ;         pulsat -> X+0
 0777           _Flash1::
 0777                   .dbline -1
 0777 10                push X
 0778 4F                mov X,SP
 0779 3803              add SP,3
 077B                   .dbline 533
 077B           ; }
 077B           ; }
 077B           ; }
 077B           ; }
 077B           ; }
 077B           ; }
 077B           ; }
 077B           ; }
 077B           ; }
 077B           L259:
 077B                   .dbline 538
 077B           ; }
 077B           ; }
 077B           ; }
 077B           ; }
 077B           ; }
 077B                   .dbline 539
 077B           ; }
 077B 10                push X
 077C 5001              mov A,1
 077E 7C0000            xcall _LCD_Control
 0781                   .dbline 540
 0781           ; }
 0781 50D0              mov A,>L262
 0783 08                push A
 0784 50D0              mov A,<L262
 0786 5C                mov X,A
 0787 18                pop A
 0788 7C0000            xcall _LCD_PrCString
 078B                   .dbline 541
 078B           ; }
 078B 5700              mov X,0
 078D 5001              mov A,1
 078F 7C0000            xcall _LCD_Position
 0792 20                pop X
 0793                   .dbline 542
 0793           ; }
 0793 62D000            mov REG[0xd0],>_Fla1
 0796 3C0000            cmp [_Fla1],0
 0799 B00F              jnz L263
 079B                   .dbline 542
 079B 10                push X
 079C 5053              mov A,>L151
 079E 08                push A
 079F 5053              mov A,<L151
 07A1 5C                mov X,A
 07A2 18                pop A
 07A3 7C0000            xcall _LCD_PrCString
 07A6 20                pop X
 07A7 800D              xjmp L264
 07A9           L263:
 07A9                   .dbline 543
 07A9           ; }
 07A9 10                push X
 07AA 5050              mov A,>L152
 07AC 08                push A
 07AD 5050              mov A,<L152
 07AF 5C                mov X,A
 07B0 18                pop A
 07B1 7C0000            xcall _LCD_PrCString
 07B4 20                pop X
 07B5           L264:
 07B5                   .dbline 544
 07B5           ; }
 07B5 9931              xcall _bucle_temp
 07B7                   .dbline 545
 07B7           ; }
 07B7 99D1              xcall _Pulsador
 07B9 5400              mov [X+0],A
 07BB                   .dbline 546
 07BB           ; }
 07BB 62D000            mov REG[0xd0],>_Buzzer
 07BE 3C0001            cmp [_Buzzer],1
 07C1 B003              jnz L265
 07C3                   .dbline 546
 07C3 9974              xcall _Pitido
 07C5           L265:
 07C5                   .dbline 547
 07C5           ; }
 07C5 3D0001            cmp [X+0],1
 07C8 A006              jz L269
 07CA 3D0002            cmp [X+0],2
 07CD B00A              jnz L267
 07CF           L269:
 07CF                   .dbline 548
 07CF           ; }
 07CF                   .dbline 549
 07CF           ; }
 07CF 5D00              mov A,REG[ 0]
 07D1 62D000            mov REG[0xd0],>__r0
 07D4 6000              mov REG[ 0],A
 07D6                   .dbline 550
 07D6           ; }
 07D6 8019              xjmp L268
 07D8           L267:
 07D8                   .dbline 551
 07D8           ; }
 07D8 3D0003            cmp [X+0],3
 07DB B014              jnz L270
 07DD                   .dbline 552
 07DD           ; }
 07DD                   .dbline 553
 07DD           ; }
 07DD 62D000            mov REG[0xd0],>_Fla1
 07E0 3C0000            cmp [_Fla1],0
 07E3 B006              jnz L272
 07E5                   .dbline 553
 07E5 550001            mov [_Fla1],1
 07E8 8007              xjmp L273
 07EA           L272:
 07EA                   .dbline 554
 07EA           ; }
 07EA 62D000            mov REG[0xd0],>_Fla1
 07ED 550000            mov [_Fla1],0
 07F0           L273:
 07F0                   .dbline 555
 07F0           ; }
 07F0           L270:
 07F0           L268:
 07F0                   .dbline 556
 07F0           L260:
 07F0                   .dbline 556
 07F0           ; }
 07F0 3D0004            cmp [X+0],4
 07F3 BF87              jnz L259
 07F5                   .dbline -2
 07F5                   .dbline 557
 07F5           ; }
 07F5           L258:
 07F5 38FD              add SP,-3
 07F7 20                pop X
 07F8                   .dbline 0 ; func end
 07F8 7F                ret
 07F9                   .dbsym l x 1 i
 07F9                   .dbsym l pulsat 0 c
 07F9                   .dbend
 07F9                   .dbfunc e Flash2 _Flash2 fV
 07F9           ;              x -> X+1
 07F9           ;         pulsat -> X+0
 07F9           _Flash2::
 07F9                   .dbline -1
 07F9 10                push X
 07FA 4F                mov X,SP
 07FB 3803              add SP,3
 07FD                   .dbline 567
 07FD           ; }
 07FD           ; }
 07FD           ; }
 07FD           ; }
 07FD           ; }
 07FD           ; }
 07FD           ; }
 07FD           ; }
 07FD           ; }
 07FD           ; }
 07FD           L275:
 07FD                   .dbline 572
 07FD           ; }
 07FD           ; }
 07FD           ; }
 07FD           ; }
 07FD           ; }
 07FD                   .dbline 573
 07FD           ; }
 07FD 10                push X
 07FE 5001              mov A,1
 0800 7C0000            xcall _LCD_Control
 0803                   .dbline 574
 0803           ; }
 0803 50C7              mov A,>L278
 0805 08                push A
 0806 50C7              mov A,<L278
 0808 5C                mov X,A
 0809 18                pop A
 080A 7C0000            xcall _LCD_PrCString
 080D                   .dbline 575
 080D           ; }
 080D 5700              mov X,0
 080F 5001              mov A,1
 0811 7C0000            xcall _LCD_Position
 0814 20                pop X
 0815                   .dbline 576
 0815           ; }
 0815 62D000            mov REG[0xd0],>_Fla2
 0818 3C0000            cmp [_Fla2],0
 081B B00F              jnz L279
 081D                   .dbline 576
 081D 10                push X
 081E 5053              mov A,>L151
 0820 08                push A
 0821 5053              mov A,<L151
 0823 5C                mov X,A
 0824 18                pop A
 0825 7C0000            xcall _LCD_PrCString
 0828 20                pop X
 0829 800D              xjmp L280
 082B           L279:
 082B                   .dbline 577
 082B           ; }
 082B 10                push X
 082C 5050              mov A,>L152
 082E 08                push A
 082F 5050              mov A,<L152
 0831 5C                mov X,A
 0832 18                pop A
 0833 7C0000            xcall _LCD_PrCString
 0836 20                pop X
 0837           L280:
 0837                   .dbline 578
 0837           ; }
 0837 98AF              xcall _bucle_temp
 0839                   .dbline 579
 0839           ; }
 0839 994F              xcall _Pulsador
 083B 5400              mov [X+0],A
 083D                   .dbline 580
 083D           ; }
 083D 62D000            mov REG[0xd0],>_Buzzer
 0840 3C0001            cmp [_Buzzer],1
 0843 B003              jnz L281
 0845                   .dbline 580
 0845 98F2              xcall _Pitido
 0847           L281:
 0847                   .dbline 581
 0847           ; }
 0847 3D0001            cmp [X+0],1
 084A A006              jz L285
 084C 3D0002            cmp [X+0],2
 084F B00A              jnz L283
 0851           L285:
 0851                   .dbline 582
 0851           ; }
 0851                   .dbline 583
 0851           ; }
 0851 5D00              mov A,REG[ 0]
 0853 62D000            mov REG[0xd0],>__r0
 0856 6000              mov REG[ 0],A
 0858                   .dbline 584
 0858           ; }
 0858 8019              xjmp L284
 085A           L283:
 085A                   .dbline 585
 085A           ; }
 085A 3D0003            cmp [X+0],3
 085D B014              jnz L286
 085F                   .dbline 586
 085F           ; }
 085F                   .dbline 587
 085F           ; }
 085F 62D000            mov REG[0xd0],>_Fla2
 0862 3C0000            cmp [_Fla2],0
 0865 B006              jnz L288
 0867                   .dbline 587
 0867 550001            mov [_Fla2],1
 086A 8007              xjmp L289
 086C           L288:
 086C                   .dbline 588
 086C           ; }
 086C 62D000            mov REG[0xd0],>_Fla2
 086F 550000            mov [_Fla2],0
 0872           L289:
 0872                   .dbline 589
 0872           ; }
 0872           L286:
 0872           L284:
 0872                   .dbline 590
 0872           L276:
 0872                   .dbline 590
 0872           ; }
 0872 3D0004            cmp [X+0],4
 0875 BF87              jnz L275
 0877                   .dbline -2
 0877                   .dbline 591
 0877           ; }
 0877           L274:
 0877 38FD              add SP,-3
 0879 20                pop X
 087A                   .dbline 0 ; func end
 087A 7F                ret
 087B                   .dbsym l x 1 i
 087B                   .dbsym l pulsat 0 c
 087B                   .dbend
 087B                   .dbfunc e Flash3 _Flash3 fV
 087B           ;              x -> X+1
 087B           ;         pulsat -> X+0
 087B           _Flash3::
 087B                   .dbline -1
 087B 10                push X
 087C 4F                mov X,SP
 087D 3803              add SP,3
 087F                   .dbline 600
 087F           ; }
 087F           ; }
 087F           ; }
 087F           ; }
 087F           ; }
 087F           ; }
 087F           ; }
 087F           ; }
 087F           ; }
 087F           L291:
 087F                   .dbline 605
 087F           ; }
 087F           ; }
 087F           ; }
 087F           ; }
 087F           ; }
 087F                   .dbline 606
 087F           ; }
 087F 10                push X
 0880 5001              mov A,1
 0882 7C0000            xcall _LCD_Control
 0885                   .dbline 607
 0885           ; }
 0885 50BE              mov A,>L294
 0887 08                push A
 0888 50BE              mov A,<L294
 088A 5C                mov X,A
 088B 18                pop A
 088C 7C0000            xcall _LCD_PrCString
 088F                   .dbline 608
 088F           ; }
 088F 5700              mov X,0
 0891 5001              mov A,1
 0893 7C0000            xcall _LCD_Position
 0896 20                pop X
 0897                   .dbline 609
 0897           ; }
 0897 62D000            mov REG[0xd0],>_Fla3
 089A 3C0000            cmp [_Fla3],0
 089D B00F              jnz L295
 089F                   .dbline 609
 089F 10                push X
 08A0 5053              mov A,>L151
 08A2 08                push A
 08A3 5053              mov A,<L151
 08A5 5C                mov X,A
 08A6 18                pop A
 08A7 7C0000            xcall _LCD_PrCString
 08AA 20                pop X
 08AB 800D              xjmp L296
 08AD           L295:
 08AD                   .dbline 610
 08AD           ; }
 08AD 10                push X
 08AE 5050              mov A,>L152
 08B0 08                push A
 08B1 5050              mov A,<L152
 08B3 5C                mov X,A
 08B4 18                pop A
 08B5 7C0000            xcall _LCD_PrCString
 08B8 20                pop X
 08B9           L296:
 08B9                   .dbline 611
 08B9           ; }
 08B9 982D              xcall _bucle_temp
 08BB                   .dbline 612
 08BB           ; }
 08BB 98CD              xcall _Pulsador
 08BD 5400              mov [X+0],A
 08BF                   .dbline 613
 08BF           ; }
 08BF 62D000            mov REG[0xd0],>_Buzzer
 08C2 3C0001            cmp [_Buzzer],1
 08C5 B003              jnz L297
 08C7                   .dbline 613
 08C7 9870              xcall _Pitido
 08C9           L297:
 08C9                   .dbline 614
 08C9           ; }
 08C9 3D0001            cmp [X+0],1
 08CC A006              jz L301
 08CE 3D0002            cmp [X+0],2
 08D1 B00A              jnz L299
 08D3           L301:
 08D3                   .dbline 615
 08D3           ; }
 08D3                   .dbline 616
 08D3           ; }
 08D3 5D00              mov A,REG[ 0]
 08D5 62D000            mov REG[0xd0],>__r0
 08D8 6000              mov REG[ 0],A
 08DA                   .dbline 617
 08DA           ; }
 08DA 8019              xjmp L300
 08DC           L299:
 08DC                   .dbline 618
 08DC           ; }
 08DC 3D0003            cmp [X+0],3
 08DF B014              jnz L302
 08E1                   .dbline 619
 08E1           ; }
 08E1                   .dbline 620
 08E1           ; }
 08E1 62D000            mov REG[0xd0],>_Fla3
 08E4 3C0000            cmp [_Fla3],0
 08E7 B006              jnz L304
 08E9                   .dbline 620
 08E9 550001            mov [_Fla3],1
 08EC 8007              xjmp L305
 08EE           L304:
 08EE                   .dbline 621
 08EE           ; }
 08EE 62D000            mov REG[0xd0],>_Fla3
 08F1 550000            mov [_Fla3],0
 08F4           L305:
 08F4                   .dbline 622
 08F4           ; }
 08F4           L302:
 08F4           L300:
 08F4                   .dbline 623
 08F4           L292:
 08F4                   .dbline 623
 08F4           ; }
 08F4 3D0004            cmp [X+0],4
 08F7 BF87              jnz L291
 08F9                   .dbline -2
 08F9                   .dbline 624
 08F9           ; }
 08F9           L290:
 08F9 38FD              add SP,-3
 08FB 20                pop X
 08FC                   .dbline 0 ; func end
 08FC 7F                ret
 08FD                   .dbsym l x 1 i
 08FD                   .dbsym l pulsat 0 c
 08FD                   .dbend
 08FD                   .dbfunc e Flash4 _Flash4 fV
 08FD           ;              x -> X+1
 08FD           ;         pulsat -> X+0
 08FD           _Flash4::
 08FD                   .dbline -1
 08FD 10                push X
 08FE 4F                mov X,SP
 08FF 3803              add SP,3
 0901                   .dbline 633
 0901           ; }
 0901           ; }
 0901           ; }
 0901           ; }
 0901           ; }
 0901           ; }
 0901           ; }
 0901           ; }
 0901           ; }
 0901           L307:
 0901                   .dbline 638
 0901           ; }
 0901           ; }
 0901           ; }
 0901           ; }
 0901           ; }
 0901                   .dbline 639
 0901           ; }
 0901 10                push X
 0902 5001              mov A,1
 0904 7C0000            xcall _LCD_Control
 0907                   .dbline 640
 0907           ; }
 0907 50B5              mov A,>L310
 0909 08                push A
 090A 50B5              mov A,<L310
 090C 5C                mov X,A
 090D 18                pop A
 090E 7C0000            xcall _LCD_PrCString
 0911                   .dbline 641
 0911           ; }
 0911 5700              mov X,0
 0913 5001              mov A,1
 0915 7C0000            xcall _LCD_Position
 0918 20                pop X
 0919                   .dbline 642
 0919           ; }
 0919 62D000            mov REG[0xd0],>_Fla4
 091C 3C0000            cmp [_Fla4],0
 091F B00F              jnz L311
 0921                   .dbline 642
 0921 10                push X
 0922 5053              mov A,>L151
 0924 08                push A
 0925 5053              mov A,<L151
 0927 5C                mov X,A
 0928 18                pop A
 0929 7C0000            xcall _LCD_PrCString
 092C 20                pop X
 092D 800D              xjmp L312
 092F           L311:
 092F                   .dbline 643
 092F           ; }
 092F 10                push X
 0930 5050              mov A,>L152
 0932 08                push A
 0933 5050              mov A,<L152
 0935 5C                mov X,A
 0936 18                pop A
 0937 7C0000            xcall _LCD_PrCString
 093A 20                pop X
 093B           L312:
 093B                   .dbline 644
 093B           ; }
 093B 7C00E8            xcall _bucle_temp
 093E                   .dbline 645
 093E           ; }
 093E 984A              xcall _Pulsador
 0940 5400              mov [X+0],A
 0942                   .dbline 646
 0942           ; }
 0942 62D000            mov REG[0xd0],>_Buzzer
 0945 3C0001            cmp [_Buzzer],1
 0948 B004              jnz L313
 094A                   .dbline 646
 094A 7C0139            xcall _Pitido
 094D           L313:
 094D                   .dbline 647
 094D           ; }
 094D 3D0001            cmp [X+0],1
 0950 A006              jz L317
 0952 3D0002            cmp [X+0],2
 0955 B00A              jnz L315
 0957           L317:
 0957                   .dbline 648
 0957           ; }
 0957                   .dbline 649
 0957           ; }
 0957 5D00              mov A,REG[ 0]
 0959 62D000            mov REG[0xd0],>__r0
 095C 6000              mov REG[ 0],A
 095E                   .dbline 650
 095E           ; }
 095E 8019              xjmp L316
 0960           L315:
 0960                   .dbline 651
 0960           ; }
 0960 3D0003            cmp [X+0],3
 0963 B014              jnz L318
 0965                   .dbline 652
 0965           ; }
 0965                   .dbline 653
 0965           ; }
 0965 62D000            mov REG[0xd0],>_Fla4
 0968 3C0000            cmp [_Fla4],0
 096B B006              jnz L320
 096D                   .dbline 653
 096D 550001            mov [_Fla4],1
 0970 8007              xjmp L321
 0972           L320:
 0972                   .dbline 654
 0972           ; }
 0972 62D000            mov REG[0xd0],>_Fla4
 0975 550000            mov [_Fla4],0
 0978           L321:
 0978                   .dbline 655
 0978           ; }
 0978           L318:
 0978           L316:
 0978                   .dbline 656
 0978           L308:
 0978                   .dbline 656
 0978           ; }
 0978 3D0004            cmp [X+0],4
 097B BF85              jnz L307
 097D                   .dbline -2
 097D                   .dbline 657
 097D           ; }
 097D           L306:
 097D 38FD              add SP,-3
 097F 20                pop X
 0980                   .dbline 0 ; func end
 0980 7F                ret
 0981                   .dbsym l x 1 i
 0981                   .dbsym l pulsat 0 c
 0981                   .dbend
 0981                   .dbfunc e Dispar _Dispar fV
 0981           ;              x -> X+2
 0981           ;           menu -> X+1
 0981           ;         pulsat -> X+0
 0981           _Dispar::
 0981                   .dbline -1
 0981 10                push X
 0982 4F                mov X,SP
 0983 3804              add SP,4
 0985                   .dbline 667
 0985           ; }
 0985           ; }
 0985           ; }
 0985           ; }
 0985           ; }
 0985           ; }
 0985           ; }
 0985           ; }
 0985           ; }
 0985           ; }
 0985                   .dbline 669
 0985           ; }
 0985           ; }
 0985 560101            mov [X+1],1
 0988           L323:
 0988                   .dbline 673
 0988           ; }
 0988           ; }
 0988           ; }
 0988           ; }
 0988                   .dbline 674
 0988           ; }
 0988 10                push X
 0989 5001              mov A,1
 098B 7C0000            xcall _LCD_Control
 098E                   .dbline 675
 098E           ; }
 098E 50A6              mov A,>L326
 0990 08                push A
 0991 50A6              mov A,<L326
 0993 5C                mov X,A
 0994 18                pop A
 0995 7C0000            xcall _LCD_PrCString
 0998                   .dbline 676
 0998           ; }
 0998 5700              mov X,0
 099A 5001              mov A,1
 099C 7C0000            xcall _LCD_Position
 099F 20                pop X
 09A0                   .dbline 677
 09A0           ; }
 09A0 3D0101            cmp [X+1],1
 09A3 B00F              jnz L327
 09A5                   .dbline 677
 09A5 10                push X
 09A6 509B              mov A,>L329
 09A8 08                push A
 09A9 509B              mov A,<L329
 09AB 5C                mov X,A
 09AC 18                pop A
 09AD 7C0000            xcall _LCD_PrCString
 09B0 20                pop X
 09B1 8012              xjmp L328
 09B3           L327:
 09B3                   .dbline 678
 09B3           ; }
 09B3 3D0102            cmp [X+1],2
 09B6 B00D              jnz L330
 09B8                   .dbline 678
 09B8 10                push X
 09B9 5090              mov A,>L332
 09BB 08                push A
 09BC 5090              mov A,<L332
 09BE 5C                mov X,A
 09BF 18                pop A
 09C0 7C0000            xcall _LCD_PrCString
 09C3 20                pop X
 09C4           L330:
 09C4           L328:
 09C4                   .dbline 679
 09C4           ; }
 09C4 7C00E8            xcall _bucle_temp
 09C7                   .dbline 680
 09C7           ; }
 09C7 7C018A            xcall _Pulsador
 09CA 5400              mov [X+0],A
 09CC                   .dbline 681
 09CC           ; }
 09CC 62D000            mov REG[0xd0],>_Buzzer
 09CF 3C0001            cmp [_Buzzer],1
 09D2 B004              jnz L333
 09D4                   .dbline 681
 09D4 7C0139            xcall _Pitido
 09D7           L333:
 09D7                   .dbline 682
 09D7           ; }
 09D7 3D0001            cmp [X+0],1
 09DA B019              jnz L335
 09DC                   .dbline 683
 09DC           ; }
 09DC                   .dbline 684
 09DC           ; }
 09DC 62D000            mov REG[0xd0],>__r0
 09DF 5201              mov A,[X+1]
 09E1 0101              add A,1
 09E3 5300              mov [__r0],A
 09E5 5002              mov A,2
 09E7 3A00              cmp A,[__r0]
 09E9 D006              jnc L337
 09EB           X11:
 09EB                   .dbline 684
 09EB 560101            mov [X+1],1
 09EE 8033              xjmp L336
 09F0           L337:
 09F0                   .dbline 685
 09F0           ; }
 09F0 7701              inc [X+1]
 09F2                   .dbline 686
 09F2           ; }
 09F2 802F              xjmp L336
 09F4           L335:
 09F4                   .dbline 687
 09F4           ; }
 09F4 3D0003            cmp [X+0],3
 09F7 B013              jnz L339
 09F9                   .dbline 688
 09F9           ; }
 09F9                   .dbline 689
 09F9           ; }
 09F9 3D0101            cmp [X+1],1
 09FC B005              jnz L341
 09FE                   .dbline 689
 09FE 902B              xcall _Camara1
 0A00 8021              xjmp L340
 0A02           L341:
 0A02                   .dbline 690
 0A02           ; }
 0A02 3D0102            cmp [X+1],2
 0A05 B01C              jnz L340
 0A07                   .dbline 690
 0A07 90CF              xcall _Camara2
 0A09                   .dbline 691
 0A09           ; }
 0A09 8018              xjmp L340
 0A0B           L339:
 0A0B                   .dbline 692
 0A0B           ; }
 0A0B 3D0002            cmp [X+0],2
 0A0E B013              jnz L345
 0A10                   .dbline 693
 0A10           ; }
 0A10                   .dbline 694
 0A10           ; }
 0A10 62D000            mov REG[0xd0],>__r0
 0A13 5201              mov A,[X+1]
 0A15 1101              sub A,1
 0A17 3901              cmp A,1
 0A19 D006              jnc L347
 0A1B           X12:
 0A1B                   .dbline 694
 0A1B 560102            mov [X+1],2
 0A1E 8003              xjmp L348
 0A20           L347:
 0A20                   .dbline 695
 0A20           ; }
 0A20 7B01              dec [X+1]
 0A22           L348:
 0A22                   .dbline 696
 0A22           ; }
 0A22           L345:
 0A22           L340:
 0A22           L336:
 0A22                   .dbline 697
 0A22           L324:
 0A22                   .dbline 697
 0A22           ; }
 0A22 3D0004            cmp [X+0],4
 0A25 BF62              jnz L323
 0A27                   .dbline -2
 0A27                   .dbline 698
 0A27           ; }
 0A27           L322:
 0A27 38FC              add SP,-4
 0A29 20                pop X
 0A2A                   .dbline 0 ; func end
 0A2A 7F                ret
 0A2B                   .dbsym l x 2 i
 0A2B                   .dbsym l menu 1 c
 0A2B                   .dbsym l pulsat 0 c
 0A2B                   .dbend
 0A2B                   .dbfunc e Camara1 _Camara1 fV
 0A2B           ;              x -> X+1
 0A2B           ;         pulsat -> X+0
 0A2B           _Camara1::
 0A2B                   .dbline -1
 0A2B 10                push X
 0A2C 4F                mov X,SP
 0A2D 3803              add SP,3
 0A2F                   .dbline 707
 0A2F           ; }
 0A2F           ; }
 0A2F           ; }
 0A2F           ; }
 0A2F           ; }
 0A2F           ; }
 0A2F           ; }
 0A2F           ; }
 0A2F           ; }
 0A2F           L350:
 0A2F                   .dbline 712
 0A2F           ; }
 0A2F           ; }
 0A2F           ; }
 0A2F           ; }
 0A2F           ; }
 0A2F                   .dbline 713
 0A2F           ; }
 0A2F 10                push X
 0A30 5001              mov A,1
 0A32 7C0000            xcall _LCD_Control
 0A35                   .dbline 714
 0A35           ; }
 0A35 5086              mov A,>L353
 0A37 08                push A
 0A38 5086              mov A,<L353
 0A3A 5C                mov X,A
 0A3B 18                pop A
 0A3C 7C0000            xcall _LCD_PrCString
 0A3F                   .dbline 715
 0A3F           ; }
 0A3F 5700              mov X,0
 0A41 5001              mov A,1
 0A43 7C0000            xcall _LCD_Position
 0A46 20                pop X
 0A47                   .dbline 716
 0A47           ; }
 0A47 62D000            mov REG[0xd0],>_Cam1
 0A4A 3C0000            cmp [_Cam1],0
 0A4D B00F              jnz L354
 0A4F                   .dbline 716
 0A4F 10                push X
 0A50 507B              mov A,>L356
 0A52 08                push A
 0A53 507B              mov A,<L356
 0A55 5C                mov X,A
 0A56 18                pop A
 0A57 7C0000            xcall _LCD_PrCString
 0A5A 20                pop X
 0A5B 8041              xjmp L355
 0A5D           L354:
 0A5D                   .dbline 717
 0A5D           ; }
 0A5D 62D000            mov REG[0xd0],>_Cam1
 0A60 3C0001            cmp [_Cam1],1
 0A63 B00F              jnz L357
 0A65                   .dbline 717
 0A65 10                push X
 0A66 506F              mov A,>L359
 0A68 08                push A
 0A69 506F              mov A,<L359
 0A6B 5C                mov X,A
 0A6C 18                pop A
 0A6D 7C0000            xcall _LCD_PrCString
 0A70 20                pop X
 0A71 802B              xjmp L358
 0A73           L357:
 0A73                   .dbline 718
 0A73           ; }
 0A73 62D000            mov REG[0xd0],>_Cam1
 0A76 3C0002            cmp [_Cam1],2
 0A79 B00F              jnz L360
 0A7B                   .dbline 718
 0A7B 10                push X
 0A7C 5060              mov A,>L362
 0A7E 08                push A
 0A7F 5060              mov A,<L362
 0A81 5C                mov X,A
 0A82 18                pop A
 0A83 7C0000            xcall _LCD_PrCString
 0A86 20                pop X
 0A87 8015              xjmp L361
 0A89           L360:
 0A89                   .dbline 719
 0A89           ; }
 0A89 62D000            mov REG[0xd0],>_Cam1
 0A8C 3C0003            cmp [_Cam1],3
 0A8F B00D              jnz L363
 0A91                   .dbline 719
 0A91 10                push X
 0A92 5055              mov A,>L365
 0A94 08                push A
 0A95 5055              mov A,<L365
 0A97 5C                mov X,A
 0A98 18                pop A
 0A99 7C0000            xcall _LCD_PrCString
 0A9C 20                pop X
 0A9D           L363:
 0A9D           L361:
 0A9D           L358:
 0A9D           L355:
 0A9D                   .dbline 720
 0A9D           ; }
 0A9D 7C00E8            xcall _bucle_temp
 0AA0                   .dbline 721
 0AA0           ; }
 0AA0 7C018A            xcall _Pulsador
 0AA3 5400              mov [X+0],A
 0AA5                   .dbline 722
 0AA5           ; }
 0AA5 62D000            mov REG[0xd0],>_Buzzer
 0AA8 3C0001            cmp [_Buzzer],1
 0AAB B004              jnz L366
 0AAD                   .dbline 722
 0AAD 7C0139            xcall _Pitido
 0AB0           L366:
 0AB0                   .dbline 723
 0AB0           ; }
 0AB0 3D0001            cmp [X+0],1
 0AB3 A006              jz L370
 0AB5 3D0002            cmp [X+0],2
 0AB8 B00A              jnz L368
 0ABA           L370:
 0ABA                   .dbline 724
 0ABA           ; }
 0ABA                   .dbline 725
 0ABA           ; }
 0ABA 5D00              mov A,REG[ 0]
 0ABC 62D000            mov REG[0xd0],>__r0
 0ABF 6000              mov REG[ 0],A
 0AC1                   .dbline 726
 0AC1           ; }
 0AC1 800D              xjmp L369
 0AC3           L368:
 0AC3                   .dbline 727
 0AC3           ; }
 0AC3 3D0003            cmp [X+0],3
 0AC6 B008              jnz L371
 0AC8                   .dbline 728
 0AC8           ; }
 0AC8                   .dbline 729
 0AC8           ; }
 0AC8 5001              mov A,1
 0ACA 08                push A
 0ACB 90B8              xcall _Tipo_disp
 0ACD 38FF              add SP,-1
 0ACF                   .dbline 730
 0ACF           ; }
 0ACF           L371:
 0ACF           L369:
 0ACF                   .dbline 731
 0ACF           L351:
 0ACF                   .dbline 731
 0ACF           ; }
 0ACF 3D0004            cmp [X+0],4
 0AD2 BF5C              jnz L350
 0AD4                   .dbline -2
 0AD4                   .dbline 732
 0AD4           ; }
 0AD4           L349:
 0AD4 38FD              add SP,-3
 0AD6 20                pop X
 0AD7                   .dbline 0 ; func end
 0AD7 7F                ret
 0AD8                   .dbsym l x 1 i
 0AD8                   .dbsym l pulsat 0 c
 0AD8                   .dbend
 0AD8                   .dbfunc e Camara2 _Camara2 fV
 0AD8           ;              x -> X+1
 0AD8           ;         pulsat -> X+0
 0AD8           _Camara2::
 0AD8                   .dbline -1
 0AD8 10                push X
 0AD9 4F                mov X,SP
 0ADA 3803              add SP,3
 0ADC                   .dbline 741
 0ADC           ; }
 0ADC           ; }
 0ADC           ; }
 0ADC           ; }
 0ADC           ; }
 0ADC           ; }
 0ADC           ; }
 0ADC           ; }
 0ADC           ; }
 0ADC           L374:
 0ADC                   .dbline 746
 0ADC           ; }
 0ADC           ; }
 0ADC           ; }
 0ADC           ; }
 0ADC           ; }
 0ADC                   .dbline 747
 0ADC           ; }
 0ADC 10                push X
 0ADD 5001              mov A,1
 0ADF 7C0000            xcall _LCD_Control
 0AE2                   .dbline 748
 0AE2           ; }
 0AE2 504B              mov A,>L377
 0AE4 08                push A
 0AE5 504B              mov A,<L377
 0AE7 5C                mov X,A
 0AE8 18                pop A
 0AE9 7C0000            xcall _LCD_PrCString
 0AEC                   .dbline 749
 0AEC           ; }
 0AEC 5700              mov X,0
 0AEE 5001              mov A,1
 0AF0 7C0000            xcall _LCD_Position
 0AF3 20                pop X
 0AF4                   .dbline 750
 0AF4           ; }
 0AF4 62D000            mov REG[0xd0],>_Cam2
 0AF7 3C0000            cmp [_Cam2],0
 0AFA B00F              jnz L378
 0AFC                   .dbline 750
 0AFC 10                push X
 0AFD 507B              mov A,>L356
 0AFF 08                push A
 0B00 507B              mov A,<L356
 0B02 5C                mov X,A
 0B03 18                pop A
 0B04 7C0000            xcall _LCD_PrCString
 0B07 20                pop X
 0B08 8041              xjmp L379
 0B0A           L378:
 0B0A                   .dbline 751
 0B0A           ; }
 0B0A 62D000            mov REG[0xd0],>_Cam2
 0B0D 3C0001            cmp [_Cam2],1
 0B10 B00F              jnz L380
 0B12                   .dbline 751
 0B12 10                push X
 0B13 506F              mov A,>L359
 0B15 08                push A
 0B16 506F              mov A,<L359
 0B18 5C                mov X,A
 0B19 18                pop A
 0B1A 7C0000            xcall _LCD_PrCString
 0B1D 20                pop X
 0B1E 802B              xjmp L381
 0B20           L380:
 0B20                   .dbline 752
 0B20           ; }
 0B20 62D000            mov REG[0xd0],>_Cam2
 0B23 3C0002            cmp [_Cam2],2
 0B26 B00F              jnz L382
 0B28                   .dbline 752
 0B28 10                push X
 0B29 5060              mov A,>L362
 0B2B 08                push A
 0B2C 5060              mov A,<L362
 0B2E 5C                mov X,A
 0B2F 18                pop A
 0B30 7C0000            xcall _LCD_PrCString
 0B33 20                pop X
 0B34 8015              xjmp L383
 0B36           L382:
 0B36                   .dbline 753
 0B36           ; }
 0B36 62D000            mov REG[0xd0],>_Cam2
 0B39 3C0003            cmp [_Cam2],3
 0B3C B00D              jnz L384
 0B3E                   .dbline 753
 0B3E 10                push X
 0B3F 5055              mov A,>L365
 0B41 08                push A
 0B42 5055              mov A,<L365
 0B44 5C                mov X,A
 0B45 18                pop A
 0B46 7C0000            xcall _LCD_PrCString
 0B49 20                pop X
 0B4A           L384:
 0B4A           L383:
 0B4A           L381:
 0B4A           L379:
 0B4A                   .dbline 754
 0B4A           ; }
 0B4A 7C00E8            xcall _bucle_temp
 0B4D                   .dbline 755
 0B4D           ; }
 0B4D 7C018A            xcall _Pulsador
 0B50 5400              mov [X+0],A
 0B52                   .dbline 756
 0B52           ; }
 0B52 62D000            mov REG[0xd0],>_Buzzer
 0B55 3C0001            cmp [_Buzzer],1
 0B58 B004              jnz L386
 0B5A                   .dbline 756
 0B5A 7C0139            xcall _Pitido
 0B5D           L386:
 0B5D                   .dbline 757
 0B5D           ; }
 0B5D 3D0001            cmp [X+0],1
 0B60 A006              jz L390
 0B62 3D0002            cmp [X+0],2
 0B65 B00A              jnz L388
 0B67           L390:
 0B67                   .dbline 758
 0B67           ; }
 0B67                   .dbline 759
 0B67           ; }
 0B67 5D00              mov A,REG[ 0]
 0B69 62D000            mov REG[0xd0],>__r0
 0B6C 6000              mov REG[ 0],A
 0B6E                   .dbline 760
 0B6E           ; }
 0B6E 800D              xjmp L389
 0B70           L388:
 0B70                   .dbline 761
 0B70           ; }
 0B70 3D0003            cmp [X+0],3
 0B73 B008              jnz L391
 0B75                   .dbline 762
 0B75           ; }
 0B75                   .dbline 763
 0B75           ; }
 0B75 5002              mov A,2
 0B77 08                push A
 0B78 900B              xcall _Tipo_disp
 0B7A 38FF              add SP,-1
 0B7C                   .dbline 764
 0B7C           ; }
 0B7C           L391:
 0B7C           L389:
 0B7C                   .dbline 765
 0B7C           L375:
 0B7C                   .dbline 765
 0B7C           ; }
 0B7C 3D0004            cmp [X+0],4
 0B7F BF5C              jnz L374
 0B81                   .dbline -2
 0B81                   .dbline 766
 0B81           ; }
 0B81           L373:
 0B81 38FD              add SP,-3
 0B83 20                pop X
 0B84                   .dbline 0 ; func end
 0B84 7F                ret
 0B85                   .dbsym l x 1 i
 0B85                   .dbsym l pulsat 0 c
 0B85                   .dbend
 0B85                   .dbfunc e Tipo_disp _Tipo_disp fV
 0B85           ;              x -> X+2
 0B85           ;           menu -> X+1
 0B85           ;         pulsat -> X+0
 0B85           ;         camara -> X-4
 0B85           _Tipo_disp::
 0B85                   .dbline -1
 0B85 10                push X
 0B86 4F                mov X,SP
 0B87 3804              add SP,4
 0B89                   .dbline 776
 0B89           ; }
 0B89           ; }
 0B89           ; }
 0B89           ; }
 0B89           ; }
 0B89           ; }
 0B89           ; }
 0B89           ; }
 0B89           ; }
 0B89           ; }
 0B89                   .dbline 780
 0B89           ; }
 0B89           ; }
 0B89           ; }
 0B89           ; }
 0B89 3DFC01            cmp [X-4],1
 0B8C B00C              jnz L394
 0B8E                   .dbline 780
 0B8E 62D000            mov REG[0xd0],>_Cam1
 0B91 5100              mov A,[_Cam1]
 0B93 0101              add A,1
 0B95 5401              mov [X+1],A
 0B97 800F              xjmp L395
 0B99           L394:
 0B99                   .dbline 781
 0B99           ; }
 0B99 3DFC02            cmp [X-4],2
 0B9C B00A              jnz L396
 0B9E                   .dbline 781
 0B9E 62D000            mov REG[0xd0],>_Cam2
 0BA1 5100              mov A,[_Cam2]
 0BA3 0101              add A,1
 0BA5 5401              mov [X+1],A
 0BA7           L396:
 0BA7           L395:
 0BA7           L398:
 0BA7                   .dbline 784
 0BA7           ; }
 0BA7           ; }
 0BA7           ; }
 0BA7                   .dbline 785
 0BA7           ; }
 0BA7 10                push X
 0BA8 5001              mov A,1
 0BAA 7C0000            xcall _LCD_Control
 0BAD                   .dbline 786
 0BAD           ; }
 0BAD 503C              mov A,>L401
 0BAF 08                push A
 0BB0 503C              mov A,<L401
 0BB2 5C                mov X,A
 0BB3 18                pop A
 0BB4 7C0000            xcall _LCD_PrCString
 0BB7                   .dbline 787
 0BB7           ; }
 0BB7 5700              mov X,0
 0BB9 5001              mov A,1
 0BBB 7C0000            xcall _LCD_Position
 0BBE 20                pop X
 0BBF                   .dbline 788
 0BBF           ; }
 0BBF 3D0101            cmp [X+1],1
 0BC2 B00F              jnz L402
 0BC4                   .dbline 788
 0BC4 10                push X
 0BC5 507B              mov A,>L356
 0BC7 08                push A
 0BC8 507B              mov A,<L356
 0BCA 5C                mov X,A
 0BCB 18                pop A
 0BCC 7C0000            xcall _LCD_PrCString
 0BCF 20                pop X
 0BD0 8038              xjmp L403
 0BD2           L402:
 0BD2                   .dbline 789
 0BD2           ; }
 0BD2 3D0102            cmp [X+1],2
 0BD5 B00F              jnz L404
 0BD7                   .dbline 789
 0BD7 10                push X
 0BD8 506F              mov A,>L359
 0BDA 08                push A
 0BDB 506F              mov A,<L359
 0BDD 5C                mov X,A
 0BDE 18                pop A
 0BDF 7C0000            xcall _LCD_PrCString
 0BE2 20                pop X
 0BE3 8025              xjmp L405
 0BE5           L404:
 0BE5                   .dbline 790
 0BE5           ; }
 0BE5 3D0103            cmp [X+1],3
 0BE8 B00F              jnz L406
 0BEA                   .dbline 790
 0BEA 10                push X
 0BEB 5060              mov A,>L362
 0BED 08                push A
 0BEE 5060              mov A,<L362
 0BF0 5C                mov X,A
 0BF1 18                pop A
 0BF2 7C0000            xcall _LCD_PrCString
 0BF5 20                pop X
 0BF6 8012              xjmp L407
 0BF8           L406:
 0BF8                   .dbline 791
 0BF8           ; }
 0BF8 3D0104            cmp [X+1],4
 0BFB B00D              jnz L408
 0BFD                   .dbline 791
 0BFD 10                push X
 0BFE 5055              mov A,>L365
 0C00 08                push A
 0C01 5055              mov A,<L365
 0C03 5C                mov X,A
 0C04 18                pop A
 0C05 7C0000            xcall _LCD_PrCString
 0C08 20                pop X
 0C09           L408:
 0C09           L407:
 0C09           L405:
 0C09           L403:
 0C09                   .dbline 792
 0C09           ; }
 0C09 7C00E8            xcall _bucle_temp
 0C0C                   .dbline 793
 0C0C           ; }
 0C0C 7C018A            xcall _Pulsador
 0C0F 5400              mov [X+0],A
 0C11                   .dbline 794
 0C11           ; }
 0C11 62D000            mov REG[0xd0],>_Buzzer
 0C14 3C0001            cmp [_Buzzer],1
 0C17 B004              jnz L410
 0C19                   .dbline 794
 0C19 7C0139            xcall _Pitido
 0C1C           L410:
 0C1C                   .dbline 795
 0C1C           ; }
 0C1C 3D0001            cmp [X+0],1
 0C1F B019              jnz L412
 0C21                   .dbline 796
 0C21           ; }
 0C21                   .dbline 797
 0C21           ; }
 0C21 62D000            mov REG[0xd0],>__r0
 0C24 5201              mov A,[X+1]
 0C26 0101              add A,1
 0C28 5300              mov [__r0],A
 0C2A 5004              mov A,4
 0C2C 3A00              cmp A,[__r0]
 0C2E D006              jnc L414
 0C30           X13:
 0C30                   .dbline 797
 0C30 560101            mov [X+1],1
 0C33 806A              xjmp L413
 0C35           L414:
 0C35                   .dbline 798
 0C35           ; }
 0C35 7701              inc [X+1]
 0C37                   .dbline 799
 0C37           ; }
 0C37 8066              xjmp L413
 0C39           L412:
 0C39                   .dbline 800
 0C39           ; }
 0C39 3D0003            cmp [X+0],3
 0C3C B04A              jnz L416
 0C3E                   .dbline 801
 0C3E           ; }
 0C3E                   .dbline 802
 0C3E           ; }
 0C3E 3D0101            cmp [X+1],1
 0C41 A006              jz L420
 0C43 3D0102            cmp [X+1],2
 0C46 B021              jnz L418
 0C48           L420:
 0C48                   .dbline 803
 0C48           ; }
 0C48                   .dbline 804
 0C48           ; }
 0C48 3DFC01            cmp [X-4],1
 0C4B B00C              jnz L421
 0C4D                   .dbline 804
 0C4D 5201              mov A,[X+1]
 0C4F 1101              sub A,1
 0C51 62D000            mov REG[0xd0],>_Cam1
 0C54 5300              mov [_Cam1],A
 0C56 802B              xjmp L419
 0C58           L421:
 0C58                   .dbline 805
 0C58           ; }
 0C58 3DFC02            cmp [X-4],2
 0C5B B026              jnz L419
 0C5D                   .dbline 805
 0C5D 5201              mov A,[X+1]
 0C5F 1101              sub A,1
 0C61 62D000            mov REG[0xd0],>_Cam2
 0C64 5300              mov [_Cam2],A
 0C66                   .dbline 806
 0C66           ; }
 0C66 801B              xjmp L419
 0C68           L418:
 0C68                   .dbline 807
 0C68           ; }
 0C68 3D0103            cmp [X+1],3
 0C6B B00A              jnz L425
 0C6D                   .dbline 807
 0C6D 52FC              mov A,[X-4]
 0C6F 08                push A
 0C70 9035              xcall _Intervalometro
 0C72 38FF              add SP,-1
 0C74 800D              xjmp L426
 0C76           L425:
 0C76                   .dbline 808
 0C76           ; }
 0C76 3D0104            cmp [X+1],4
 0C79 B008              jnz L427
 0C7B                   .dbline 808
 0C7B 52FC              mov A,[X-4]
 0C7D 08                push A
 0C7E 9127              xcall _TimeLapse
 0C80 38FF              add SP,-1
 0C82           L427:
 0C82           L426:
 0C82           L419:
 0C82                   .dbline 809
 0C82           ; }
 0C82 560004            mov [X+0],4
 0C85                   .dbline 810
 0C85           ; }
 0C85 8018              xjmp L417
 0C87           L416:
 0C87                   .dbline 811
 0C87           ; }
 0C87 3D0002            cmp [X+0],2
 0C8A B013              jnz L429
 0C8C                   .dbline 812
 0C8C           ; }
 0C8C                   .dbline 813
 0C8C           ; }
 0C8C 62D000            mov REG[0xd0],>__r0
 0C8F 5201              mov A,[X+1]
 0C91 1101              sub A,1
 0C93 3901              cmp A,1
 0C95 D006              jnc L431
 0C97           X14:
 0C97                   .dbline 813
 0C97 560104            mov [X+1],4
 0C9A 8003              xjmp L432
 0C9C           L431:
 0C9C                   .dbline 814
 0C9C           ; }
 0C9C 7B01              dec [X+1]
 0C9E           L432:
 0C9E                   .dbline 815
 0C9E           ; }
 0C9E           L429:
 0C9E           L417:
 0C9E           L413:
 0C9E                   .dbline 816
 0C9E           L399:
 0C9E                   .dbline 816
 0C9E           ; }
 0C9E 3D0004            cmp [X+0],4
 0CA1 BF05              jnz L398
 0CA3                   .dbline -2
 0CA3                   .dbline 817
 0CA3           ; }
 0CA3           L393:
 0CA3 38FC              add SP,-4
 0CA5 20                pop X
 0CA6                   .dbline 0 ; func end
 0CA6 7F                ret
 0CA7                   .dbsym l x 2 i
 0CA7                   .dbsym l menu 1 c
 0CA7                   .dbsym l pulsat 0 c
 0CA7                   .dbsym l camara -4 c
 0CA7                   .dbend
 0CA7                   .dbfunc e Intervalometro _Intervalometro fV
 0CA7           ;              x -> X+2
 0CA7           ;           menu -> X+1
 0CA7           ;         pulsat -> X+0
 0CA7           ;         camara -> X-4
 0CA7           _Intervalometro::
 0CA7                   .dbline -1
 0CA7 10                push X
 0CA8 4F                mov X,SP
 0CA9 3804              add SP,4
 0CAB                   .dbline 825
 0CAB           ; }
 0CAB           ; }
 0CAB           ; }
 0CAB           ; }
 0CAB           ; }
 0CAB           ; }
 0CAB           ; }
 0CAB           ; }
 0CAB                   .dbline 826
 0CAB           ; }
 0CAB 560101            mov [X+1],1
 0CAE                   .dbline 829
 0CAE           ; }
 0CAE           ; }
 0CAE           ; }
 0CAE 3DFC01            cmp [X-4],1
 0CB1 B009              jnz L434
 0CB3                   .dbline 829
 0CB3 62D000            mov REG[0xd0],>_Cam1
 0CB6 550002            mov [_Cam1],2
 0CB9 800C              xjmp L435
 0CBB           L434:
 0CBB                   .dbline 830
 0CBB           ; }
 0CBB 3DFC02            cmp [X-4],2
 0CBE B007              jnz L436
 0CC0                   .dbline 830
 0CC0 62D000            mov REG[0xd0],>_Cam2
 0CC3 550002            mov [_Cam2],2
 0CC6           L436:
 0CC6           L435:
 0CC6           L438:
 0CC6                   .dbline 832
 0CC6           ; }
 0CC6           ; }
 0CC6                   .dbline 833
 0CC6           ; }
 0CC6 10                push X
 0CC7 5001              mov A,1
 0CC9 7C0000            xcall _LCD_Control
 0CCC                   .dbline 834
 0CCC           ; }
 0CCC 502C              mov A,>L441
 0CCE 08                push A
 0CCF 502C              mov A,<L441
 0CD1 5C                mov X,A
 0CD2 18                pop A
 0CD3 7C0000            xcall _LCD_PrCString
 0CD6                   .dbline 835
 0CD6           ; }
 0CD6 5700              mov X,0
 0CD8 5001              mov A,1
 0CDA 7C0000            xcall _LCD_Position
 0CDD 20                pop X
 0CDE                   .dbline 836
 0CDE           ; }
 0CDE 3D0101            cmp [X+1],1
 0CE1 B00F              jnz L442
 0CE3                   .dbline 836
 0CE3 10                push X
 0CE4 501F              mov A,>L444
 0CE6 08                push A
 0CE7 501F              mov A,<L444
 0CE9 5C                mov X,A
 0CEA 18                pop A
 0CEB 7C0000            xcall _LCD_PrCString
 0CEE 20                pop X
 0CEF 8012              xjmp L443
 0CF1           L442:
 0CF1                   .dbline 837
 0CF1           ; }
 0CF1 3D0102            cmp [X+1],2
 0CF4 B00D              jnz L445
 0CF6                   .dbline 837
 0CF6 10                push X
 0CF7 500F              mov A,>L447
 0CF9 08                push A
 0CFA 500F              mov A,<L447
 0CFC 5C                mov X,A
 0CFD 18                pop A
 0CFE 7C0000            xcall _LCD_PrCString
 0D01 20                pop X
 0D02           L445:
 0D02           L443:
 0D02                   .dbline 838
 0D02           ; }
 0D02 7C00E8            xcall _bucle_temp
 0D05                   .dbline 839
 0D05           ; }
 0D05 7C018A            xcall _Pulsador
 0D08 5400              mov [X+0],A
 0D0A                   .dbline 840
 0D0A           ; }
 0D0A 62D000            mov REG[0xd0],>_Buzzer
 0D0D 3C0001            cmp [_Buzzer],1
 0D10 B004              jnz L448
 0D12                   .dbline 840
 0D12 7C0139            xcall _Pitido
 0D15           L448:
 0D15                   .dbline 841
 0D15           ; }
 0D15 3D0001            cmp [X+0],1
 0D18 B019              jnz L450
 0D1A                   .dbline 842
 0D1A           ; }
 0D1A                   .dbline 843
 0D1A           ; }
 0D1A 62D000            mov REG[0xd0],>__r0
 0D1D 5201              mov A,[X+1]
 0D1F 0101              add A,1
 0D21 5300              mov [__r0],A
 0D23 5002              mov A,2
 0D25 3A00              cmp A,[__r0]
 0D27 D006              jnc L452
 0D29           X15:
 0D29                   .dbline 843
 0D29 560101            mov [X+1],1
 0D2C 8071              xjmp L451
 0D2E           L452:
 0D2E                   .dbline 844
 0D2E           ; }
 0D2E 7701              inc [X+1]
 0D30                   .dbline 845
 0D30           ; }
 0D30 806D              xjmp L451
 0D32           L450:
 0D32                   .dbline 846
 0D32           ; }
 0D32 3D0003            cmp [X+0],3
 0D35 B051              jnz L454
 0D37                   .dbline 847
 0D37           ; }
 0D37                   .dbline 848
 0D37           ; }
 0D37 3D0101            cmp [X+1],1
 0D3A B02B              jnz L456
 0D3C                   .dbline 849
 0D3C           ; }
 0D3C                   .dbline 850
 0D3C           ; }
 0D3C 3DFC01            cmp [X-4],1
 0D3F B011              jnz L458
 0D41                   .dbline 851
 0D41           ; }
 0D41                   .dbline 852
 0D41           ; }
 0D41 9172              xcall _Numeros
 0D43 62D000            mov REG[0xd0],>_Int1_Tdisp
 0D46 5300              mov [_Int1_Tdisp],A
 0D48                   .dbline 853
 0D48           ; }
 0D48 923A              xcall _Tiempos
 0D4A 62D000            mov REG[0xd0],>_Int1_Tdisp_Uni
 0D4D 5300              mov [_Int1_Tdisp_Uni],A
 0D4F                   .dbline 854
 0D4F           ; }
 0D4F 804E              xjmp L455
 0D51           L458:
 0D51                   .dbline 855
 0D51           ; }
 0D51 3DFC02            cmp [X-4],2
 0D54 B049              jnz L455
 0D56                   .dbline 856
 0D56           ; }
 0D56                   .dbline 857
 0D56           ; }
 0D56 915D              xcall _Numeros
 0D58 62D000            mov REG[0xd0],>_Int2_Tdisp
 0D5B 5300              mov [_Int2_Tdisp],A
 0D5D                   .dbline 858
 0D5D           ; }
 0D5D 9225              xcall _Tiempos
 0D5F 62D000            mov REG[0xd0],>_Int2_Tdisp_Uni
 0D62 5300              mov [_Int2_Tdisp_Uni],A
 0D64                   .dbline 859
 0D64           ; }
 0D64                   .dbline 860
 0D64           ; }
 0D64 8039              xjmp L455
 0D66           L456:
 0D66                   .dbline 861
 0D66           ; }
 0D66 3D0102            cmp [X+1],2
 0D69 B034              jnz L455
 0D6B                   .dbline 862
 0D6B           ; }
 0D6B                   .dbline 863
 0D6B           ; }
 0D6B 3DFC01            cmp [X-4],1
 0D6E B00A              jnz L464
 0D70                   .dbline 863
 0D70 9143              xcall _Numeros
 0D72 62D000            mov REG[0xd0],>_Int1_Ndisp
 0D75 5300              mov [_Int1_Ndisp],A
 0D77 8026              xjmp L455
 0D79           L464:
 0D79                   .dbline 864
 0D79           ; }
 0D79 3DFC02            cmp [X-4],2
 0D7C B021              jnz L455
 0D7E                   .dbline 864
 0D7E 9135              xcall _Numeros
 0D80 62D000            mov REG[0xd0],>_Int2_Ndisp
 0D83 5300              mov [_Int2_Ndisp],A
 0D85                   .dbline 865
 0D85           ; }
 0D85                   .dbline 866
 0D85           ; }
 0D85 8018              xjmp L455
 0D87           L454:
 0D87                   .dbline 867
 0D87           ; }
 0D87 3D0002            cmp [X+0],2
 0D8A B013              jnz L468
 0D8C                   .dbline 868
 0D8C           ; }
 0D8C                   .dbline 869
 0D8C           ; }
 0D8C 62D000            mov REG[0xd0],>__r0
 0D8F 5201              mov A,[X+1]
 0D91 1101              sub A,1
 0D93 3901              cmp A,1
 0D95 D006              jnc L470
 0D97           X16:
 0D97                   .dbline 869
 0D97 560102            mov [X+1],2
 0D9A 8003              xjmp L471
 0D9C           L470:
 0D9C                   .dbline 870
 0D9C           ; }
 0D9C 7B01              dec [X+1]
 0D9E           L471:
 0D9E                   .dbline 871
 0D9E           ; }
 0D9E           L468:
 0D9E           L455:
 0D9E           L451:
 0D9E                   .dbline 872
 0D9E           L439:
 0D9E                   .dbline 872
 0D9E           ; }
 0D9E 3D0004            cmp [X+0],4
 0DA1 BF24              jnz L438
 0DA3                   .dbline -2
 0DA3                   .dbline 874
 0DA3           ; }
 0DA3           ; }
 0DA3           L433:
 0DA3 38FC              add SP,-4
 0DA5 20                pop X
 0DA6                   .dbline 0 ; func end
 0DA6 7F                ret
 0DA7                   .dbsym l x 2 i
 0DA7                   .dbsym l menu 1 c
 0DA7                   .dbsym l pulsat 0 c
 0DA7                   .dbsym l camara -4 c
 0DA7                   .dbend
 0DA7                   .dbfunc e TimeLapse _TimeLapse fV
 0DA7           ;              x -> X+2
 0DA7           ;           menu -> X+1
 0DA7           ;         pulsat -> X+0
 0DA7           ;         camara -> X-4
 0DA7           _TimeLapse::
 0DA7                   .dbline -1
 0DA7 10                push X
 0DA8 4F                mov X,SP
 0DA9 3804              add SP,4
 0DAB                   .dbline 882
 0DAB           ; }
 0DAB           ; }
 0DAB           ; }
 0DAB           ; }
 0DAB           ; }
 0DAB           ; }
 0DAB           ; }
 0DAB           ; }
 0DAB                   .dbline 883
 0DAB           ; }
 0DAB 560101            mov [X+1],1
 0DAE                   .dbline 886
 0DAE           ; }
 0DAE           ; }
 0DAE           ; }
 0DAE 3DFC01            cmp [X-4],1
 0DB1 B009              jnz L473
 0DB3                   .dbline 886
 0DB3 62D000            mov REG[0xd0],>_Cam1
 0DB6 550003            mov [_Cam1],3
 0DB9 800C              xjmp L474
 0DBB           L473:
 0DBB                   .dbline 887
 0DBB           ; }
 0DBB 3DFC02            cmp [X-4],2
 0DBE B007              jnz L475
 0DC0                   .dbline 887
 0DC0 62D000            mov REG[0xd0],>_Cam2
 0DC3 550003            mov [_Cam2],3
 0DC6           L475:
 0DC6           L474:
 0DC6           L477:
 0DC6                   .dbline 889
 0DC6           ; }
 0DC6           ; }
 0DC6                   .dbline 890
 0DC6           ; }
 0DC6 10                push X
 0DC7 5001              mov A,1
 0DC9 7C0000            xcall _LCD_Control
 0DCC                   .dbline 891
 0DCC           ; }
 0DCC 5003              mov A,>L480
 0DCE 08                push A
 0DCF 5003              mov A,<L480
 0DD1 5C                mov X,A
 0DD2 18                pop A
 0DD3 7C0000            xcall _LCD_PrCString
 0DD6                   .dbline 892
 0DD6           ; }
 0DD6 5700              mov X,0
 0DD8 5001              mov A,1
 0DDA 7C0000            xcall _LCD_Position
 0DDD 20                pop X
 0DDE                   .dbline 893
 0DDE           ; }
 0DDE 3D0101            cmp [X+1],1
 0DE1 B00F              jnz L481
 0DE3                   .dbline 893
 0DE3 10                push X
 0DE4 50F7              mov A,>L483
 0DE6 08                push A
 0DE7 50F7              mov A,<L483
 0DE9 5C                mov X,A
 0DEA 18                pop A
 0DEB 7C0000            xcall _LCD_PrCString
 0DEE 20                pop X
 0DEF 8012              xjmp L482
 0DF1           L481:
 0DF1                   .dbline 894
 0DF1           ; }
 0DF1 3D0102            cmp [X+1],2
 0DF4 B00D              jnz L484
 0DF6                   .dbline 894
 0DF6 10                push X
 0DF7 50EA              mov A,>L486
 0DF9 08                push A
 0DFA 50EA              mov A,<L486
 0DFC 5C                mov X,A
 0DFD 18                pop A
 0DFE 7C0000            xcall _LCD_PrCString
 0E01 20                pop X
 0E02           L484:
 0E02           L482:
 0E02                   .dbline 895
 0E02           ; }
 0E02 7C00E8            xcall _bucle_temp
 0E05                   .dbline 896
 0E05           ; }
 0E05 7C018A            xcall _Pulsador
 0E08 5400              mov [X+0],A
 0E0A                   .dbline 897
 0E0A           ; }
 0E0A 62D000            mov REG[0xd0],>_Buzzer
 0E0D 3C0001            cmp [_Buzzer],1
 0E10 B004              jnz L487
 0E12                   .dbline 897
 0E12 7C0139            xcall _Pitido
 0E15           L487:
 0E15                   .dbline 898
 0E15           ; }
 0E15 3D0001            cmp [X+0],1
 0E18 B019              jnz L489
 0E1A                   .dbline 899
 0E1A           ; }
 0E1A                   .dbline 900
 0E1A           ; }
 0E1A 62D000            mov REG[0xd0],>__r0
 0E1D 5201              mov A,[X+1]
 0E1F 0101              add A,1
 0E21 5300              mov [__r0],A
 0E23 5002              mov A,2
 0E25 3A00              cmp A,[__r0]
 0E27 D006              jnc L491
 0E29           X17:
 0E29                   .dbline 900
 0E29 560101            mov [X+1],1
 0E2C 807F              xjmp L490
 0E2E           L491:
 0E2E                   .dbline 901
 0E2E           ; }
 0E2E 7701              inc [X+1]
 0E30                   .dbline 902
 0E30           ; }
 0E30 807B              xjmp L490
 0E32           L489:
 0E32                   .dbline 903
 0E32           ; }
 0E32 3D0003            cmp [X+0],3
 0E35 B05F              jnz L493
 0E37                   .dbline 904
 0E37           ; }
 0E37                   .dbline 905
 0E37           ; }
 0E37 3D0101            cmp [X+1],1
 0E3A B02B              jnz L495
 0E3C                   .dbline 906
 0E3C           ; }
 0E3C                   .dbline 907
 0E3C           ; }
 0E3C 3DFC01            cmp [X-4],1
 0E3F B011              jnz L497
 0E41                   .dbline 908
 0E41           ; }
 0E41                   .dbline 909
 0E41           ; }
 0E41 9072              xcall _Numeros
 0E43 62D000            mov REG[0xd0],>_TL1_Treal
 0E46 5300              mov [_TL1_Treal],A
 0E48                   .dbline 910
 0E48           ; }
 0E48 913A              xcall _Tiempos
 0E4A 62D000            mov REG[0xd0],>_TL1_Treal_Uni
 0E4D 5300              mov [_TL1_Treal_Uni],A
 0E4F                   .dbline 911
 0E4F           ; }
 0E4F 805C              xjmp L494
 0E51           L497:
 0E51                   .dbline 912
 0E51           ; }
 0E51 3DFC02            cmp [X-4],2
 0E54 B057              jnz L494
 0E56                   .dbline 913
 0E56           ; }
 0E56                   .dbline 914
 0E56           ; }
 0E56 905D              xcall _Numeros
 0E58 62D000            mov REG[0xd0],>_TL2_Treal
 0E5B 5300              mov [_TL2_Treal],A
 0E5D                   .dbline 915
 0E5D           ; }
 0E5D 9125              xcall _Tiempos
 0E5F 62D000            mov REG[0xd0],>_TL2_Treal_Uni
 0E62 5300              mov [_TL2_Treal_Uni],A
 0E64                   .dbline 916
 0E64           ; }
 0E64                   .dbline 917
 0E64           ; }
 0E64 8047              xjmp L494
 0E66           L495:
 0E66                   .dbline 918
 0E66           ; }
 0E66 3D0102            cmp [X+1],2
 0E69 B042              jnz L494
 0E6B                   .dbline 919
 0E6B           ; }
 0E6B                   .dbline 920
 0E6B           ; }
 0E6B 3DFC01            cmp [X-4],1
 0E6E B011              jnz L503
 0E70                   .dbline 921
 0E70           ; }
 0E70                   .dbline 922
 0E70           ; }
 0E70 9043              xcall _Numeros
 0E72 62D000            mov REG[0xd0],>_TL1_Tfilm
 0E75 5300              mov [_TL1_Tfilm],A
 0E77                   .dbline 923
 0E77           ; }
 0E77 910B              xcall _Tiempos
 0E79 62D000            mov REG[0xd0],>_TL1_Tfilm_Uni
 0E7C 5300              mov [_TL1_Tfilm_Uni],A
 0E7E                   .dbline 924
 0E7E           ; }
 0E7E 802D              xjmp L494
 0E80           L503:
 0E80                   .dbline 925
 0E80           ; }
 0E80 3DFC02            cmp [X-4],2
 0E83 B028              jnz L494
 0E85                   .dbline 926
 0E85           ; }
 0E85                   .dbline 927
 0E85           ; }
 0E85 902E              xcall _Numeros
 0E87 62D000            mov REG[0xd0],>_TL2_Tfilm
 0E8A 5300              mov [_TL2_Tfilm],A
 0E8C                   .dbline 928
 0E8C           ; }
 0E8C 90F6              xcall _Tiempos
 0E8E 62D000            mov REG[0xd0],>_TL2_Tfilm_Uni
 0E91 5300              mov [_TL2_Tfilm_Uni],A
 0E93                   .dbline 929
 0E93           ; }
 0E93                   .dbline 930
 0E93           ; }
 0E93                   .dbline 931
 0E93           ; }
 0E93 8018              xjmp L494
 0E95           L493:
 0E95                   .dbline 932
 0E95           ; }
 0E95 3D0002            cmp [X+0],2
 0E98 B013              jnz L507
 0E9A                   .dbline 933
 0E9A           ; }
 0E9A                   .dbline 934
 0E9A           ; }
 0E9A 62D000            mov REG[0xd0],>__r0
 0E9D 5201              mov A,[X+1]
 0E9F 1101              sub A,1
 0EA1 3901              cmp A,1
 0EA3 D006              jnc L509
 0EA5           X18:
 0EA5                   .dbline 934
 0EA5 560102            mov [X+1],2
 0EA8 8003              xjmp L510
 0EAA           L509:
 0EAA                   .dbline 935
 0EAA           ; }
 0EAA 7B01              dec [X+1]
 0EAC           L510:
 0EAC                   .dbline 936
 0EAC           ; }
 0EAC           L507:
 0EAC           L494:
 0EAC           L490:
 0EAC                   .dbline 937
 0EAC           L478:
 0EAC                   .dbline 937
 0EAC           ; }
 0EAC 3D0004            cmp [X+0],4
 0EAF BF16              jnz L477
 0EB1                   .dbline -2
 0EB1                   .dbline 939
 0EB1           ; }
 0EB1           ; }
 0EB1           L472:
 0EB1 38FC              add SP,-4
 0EB3 20                pop X
 0EB4                   .dbline 0 ; func end
 0EB4 7F                ret
 0EB5                   .dbsym l x 2 i
 0EB5                   .dbsym l menu 1 c
 0EB5                   .dbsym l pulsat 0 c
 0EB5                   .dbsym l camara -4 c
 0EB5                   .dbend
 0EB5                   .dbfunc e Numeros _Numeros fc
 0EB5           ;           menu -> X+6
 0EB5           ;         pulsat -> X+5
 0EB5           ;        mostrar -> X+4
 0EB5           ;              x -> X+2
 0EB5           ;       recortar -> X+1
 0EB5           ;          zeros -> X+0
 0EB5           _Numeros::
 0EB5                   .dbline -1
 0EB5 10                push X
 0EB6 4F                mov X,SP
 0EB7 3807              add SP,7
 0EB9                   .dbline 947
 0EB9           ; }
 0EB9           ; }
 0EB9           ; }
 0EB9           ; }
 0EB9           ; }
 0EB9           ; }
 0EB9           ; }
 0EB9           ; }
 0EB9                   .dbline 948
 0EB9           ; }
 0EB9 560601            mov [X+6],1
 0EBC           L512:
 0EBC                   .dbline 952
 0EBC           ; }
 0EBC           ; }
 0EBC           ; }
 0EBC           ; }
 0EBC                   .dbline 953
 0EBC           ; }
 0EBC 10                push X
 0EBD 5001              mov A,1
 0EBF 7C0000            xcall _LCD_Control
 0EC2                   .dbline 954
 0EC2           ; }
 0EC2 50DC              mov A,>L515
 0EC4 08                push A
 0EC5 50DC              mov A,<L515
 0EC7 5C                mov X,A
 0EC8 18                pop A
 0EC9 7C0000            xcall _LCD_PrCString
 0ECC                   .dbline 955
 0ECC           ; }
 0ECC 5700              mov X,0
 0ECE 5001              mov A,1
 0ED0 7C0000            xcall _LCD_Position
 0ED3 20                pop X
 0ED4                   .dbline 956
 0ED4           ; }
 0ED4 560300            mov [X+3],0
 0ED7 560200            mov [X+2],0
 0EDA 560064            mov [X+0],100
 0EDD 5206              mov A,[X+6]
 0EDF 5401              mov [X+1],A
 0EE1 803C              xjmp L519
 0EE3           L516:
 0EE3                   .dbline 957
 0EE3                   .dbline 958
 0EE3 5200              mov A,[X+0]
 0EE5 08                push A
 0EE6 5201              mov A,[X+1]
 0EE8 08                push A
 0EE9 62D000            mov REG[0xd0],>__r0
 0EEC 7C0000            xcall __divmodu_8X8_8
 0EEF 18                pop A
 0EF0 5404              mov [X+4],A
 0EF2 38FF              add SP,-1
 0EF4                   .dbline 959
 0EF4 5200              mov A,[X+0]
 0EF6 08                push A
 0EF7 5201              mov A,[X+1]
 0EF9 08                push A
 0EFA 7C0000            xcall __divmodu_8X8_8
 0EFD 38FF              add SP,-1
 0EFF 18                pop A
 0F00 5401              mov [X+1],A
 0F02                   .dbline 960
 0F02 500A              mov A,10
 0F04 08                push A
 0F05 5200              mov A,[X+0]
 0F07 08                push A
 0F08 7C0000            xcall __divmodu_8X8_8
 0F0B 18                pop A
 0F0C 5400              mov [X+0],A
 0F0E 38FF              add SP,-1
 0F10                   .dbline 961
 0F10 5204              mov A,[X+4]
 0F12 0130              add A,48
 0F14 10                push X
 0F15 7C0000            xcall _LCD_WriteData
 0F18 20                pop X
 0F19                   .dbline 962
 0F19           L517:
 0F19                   .dbline 956
 0F19 7703              inc [X+3]
 0F1B 0F0200            adc [X+2],0
 0F1E           L519:
 0F1E                   .dbline 956
 0F1E 5203              mov A,[X+3]
 0F20 1103              sub A,3
 0F22 5202              mov A,[X+2]
 0F24 1900              sbb A,0
 0F26 CFBC              jc L516
 0F28           X19:
 0F28                   .dbline 963
 0F28           ; }
 0F28           ; }
 0F28           ; }
 0F28           ; }
 0F28           ; }
 0F28           ; }
 0F28           ; }
 0F28 7C00E8            xcall _bucle_temp
 0F2B                   .dbline 964
 0F2B           ; }
 0F2B 7C018A            xcall _Pulsador
 0F2E 5405              mov [X+5],A
 0F30                   .dbline 965
 0F30           ; }
 0F30 62D000            mov REG[0xd0],>_Buzzer
 0F33 3C0001            cmp [_Buzzer],1
 0F36 B004              jnz L520
 0F38                   .dbline 965
 0F38 7C0139            xcall _Pitido
 0F3B           L520:
 0F3B                   .dbline 966
 0F3B           ; }
 0F3B 3D0501            cmp [X+5],1
 0F3E B019              jnz L522
 0F40                   .dbline 967
 0F40           ; }
 0F40                   .dbline 968
 0F40           ; }
 0F40 62D000            mov REG[0xd0],>__r0
 0F43 5206              mov A,[X+6]
 0F45 0101              add A,1
 0F47 5300              mov [__r0],A
 0F49 5064              mov A,100
 0F4B 3A00              cmp A,[__r0]
 0F4D D006              jnc L524
 0F4F           X20:
 0F4F                   .dbline 968
 0F4F 560601            mov [X+6],1
 0F52 8028              xjmp L523
 0F54           L524:
 0F54                   .dbline 969
 0F54           ; }
 0F54 7706              inc [X+6]
 0F56                   .dbline 970
 0F56           ; }
 0F56 8024              xjmp L523
 0F58           L522:
 0F58                   .dbline 971
 0F58           ; }
 0F58 3D0503            cmp [X+5],3
 0F5B B008              jnz L526
 0F5D                   .dbline 972
 0F5D           ; }
 0F5D                   .dbline 973
 0F5D           ; }
 0F5D 5206              mov A,[X+6]
 0F5F 62D000            mov REG[0xd0],>__r0
 0F62 801D              xjmp L511
 0F64           L526:
 0F64                   .dbline 975
 0F64           ; }
 0F64           ; }
 0F64 3D0502            cmp [X+5],2
 0F67 B013              jnz L528
 0F69                   .dbline 976
 0F69           ; }
 0F69                   .dbline 977
 0F69           ; }
 0F69 62D000            mov REG[0xd0],>__r0
 0F6C 5206              mov A,[X+6]
 0F6E 1101              sub A,1
 0F70 3901              cmp A,1
 0F72 D006              jnc L530
 0F74           X21:
 0F74                   .dbline 977
 0F74 560664            mov [X+6],100
 0F77 8003              xjmp L531
 0F79           L530:
 0F79                   .dbline 978
 0F79           ; }
 0F79 7B06              dec [X+6]
 0F7B           L531:
 0F7B                   .dbline 979
 0F7B           ; }
 0F7B           L528:
 0F7B           L523:
 0F7B                   .dbline 980
 0F7B           L513:
 0F7B                   .dbline 980
 0F7B           ; }
 0F7B 3D0505            cmp [X+5],5
 0F7E BF3D              jnz L512
 0F80                   .dbline -2
 0F80                   .dbline 981
 0F80           ; }
 0F80           L511:
 0F80 38F9              add SP,-7
 0F82 20                pop X
 0F83                   .dbline 0 ; func end
 0F83 7F                ret
 0F84                   .dbsym l menu 6 c
 0F84                   .dbsym l pulsat 5 c
 0F84                   .dbsym l mostrar 4 c
 0F84                   .dbsym l x 2 i
 0F84                   .dbsym l recortar 1 c
 0F84                   .dbsym l zeros 0 c
 0F84                   .dbend
 0F84                   .dbfunc e Tiempos _Tiempos fc
 0F84           ;              x -> X+2
 0F84           ;           menu -> X+1
 0F84           ;         pulsat -> X+0
 0F84           _Tiempos::
 0F84                   .dbline -1
 0F84 10                push X
 0F85 4F                mov X,SP
 0F86 3804              add SP,4
 0F88                   .dbline 989
 0F88           ; }
 0F88           ; }
 0F88           ; }
 0F88           ; }
 0F88           ; }
 0F88           ; }
 0F88           ; }
 0F88           ; }
 0F88                   .dbline 990
 0F88           ; }
 0F88 560101            mov [X+1],1
 0F8B           L533:
 0F8B                   .dbline 994
 0F8B           ; }
 0F8B           ; }
 0F8B           ; }
 0F8B           ; }
 0F8B                   .dbline 995
 0F8B           ; }
 0F8B 10                push X
 0F8C 5001              mov A,1
 0F8E 7C0000            xcall _LCD_Control
 0F91                   .dbline 996
 0F91           ; }
 0F91 50CC              mov A,>L536
 0F93 08                push A
 0F94 50CC              mov A,<L536
 0F96 5C                mov X,A
 0F97 18                pop A
 0F98 7C0000            xcall _LCD_PrCString
 0F9B                   .dbline 997
 0F9B           ; }
 0F9B 5700              mov X,0
 0F9D 5001              mov A,1
 0F9F 7C0000            xcall _LCD_Position
 0FA2 20                pop X
 0FA3                   .dbline 998
 0FA3           ; }
 0FA3 3D0101            cmp [X+1],1
 0FA6 B00F              jnz L537
 0FA8                   .dbline 998
 0FA8 10                push X
 0FA9 50C3              mov A,>L539
 0FAB 08                push A
 0FAC 50C3              mov A,<L539
 0FAE 5C                mov X,A
 0FAF 18                pop A
 0FB0 7C0000            xcall _LCD_PrCString
 0FB3 20                pop X
 0FB4 8025              xjmp L538
 0FB6           L537:
 0FB6                   .dbline 999
 0FB6           ; }
 0FB6 3D0102            cmp [X+1],2
 0FB9 B00F              jnz L540
 0FBB                   .dbline 999
 0FBB 10                push X
 0FBC 50BB              mov A,>L542
 0FBE 08                push A
 0FBF 50BB              mov A,<L542
 0FC1 5C                mov X,A
 0FC2 18                pop A
 0FC3 7C0000            xcall _LCD_PrCString
 0FC6 20                pop X
 0FC7 8012              xjmp L541
 0FC9           L540:
 0FC9                   .dbline 1000
 0FC9           ; }
 0FC9 3D0103            cmp [X+1],3
 0FCC B00D              jnz L543
 0FCE                   .dbline 1000
 0FCE 10                push X
 0FCF 50B5              mov A,>L545
 0FD1 08                push A
 0FD2 50B5              mov A,<L545
 0FD4 5C                mov X,A
 0FD5 18                pop A
 0FD6 7C0000            xcall _LCD_PrCString
 0FD9 20                pop X
 0FDA           L543:
 0FDA           L541:
 0FDA           L538:
 0FDA                   .dbline 1001
 0FDA           ; }
 0FDA 7C00E8            xcall _bucle_temp
 0FDD                   .dbline 1002
 0FDD           ; }
 0FDD 7C018A            xcall _Pulsador
 0FE0 5400              mov [X+0],A
 0FE2                   .dbline 1003
 0FE2           ; }
 0FE2 62D000            mov REG[0xd0],>_Buzzer
 0FE5 3C0001            cmp [_Buzzer],1
 0FE8 B004              jnz L546
 0FEA                   .dbline 1003
 0FEA 7C0139            xcall _Pitido
 0FED           L546:
 0FED                   .dbline 1004
 0FED           ; }
 0FED 3D0001            cmp [X+0],1
 0FF0 B019              jnz L548
 0FF2                   .dbline 1005
 0FF2           ; }
 0FF2                   .dbline 1006
 0FF2           ; }
 0FF2 62D000            mov REG[0xd0],>__r0
 0FF5 5201              mov A,[X+1]
 0FF7 0101              add A,1
 0FF9 5300              mov [__r0],A
 0FFB 5003              mov A,3
 0FFD 3A00              cmp A,[__r0]
 0FFF D006              jnc L550
 1001           X22:
 1001                   .dbline 1006
 1001 560101            mov [X+1],1
 1004 8028              xjmp L549
 1006           L550:
 1006                   .dbline 1007
 1006           ; }
 1006 7701              inc [X+1]
 1008                   .dbline 1008
 1008           ; }
 1008 8024              xjmp L549
 100A           L548:
 100A                   .dbline 1009
 100A           ; }
 100A 3D0003            cmp [X+0],3
 100D B008              jnz L552
 100F                   .dbline 1010
 100F           ; }
 100F                   .dbline 1011
 100F           ; }
 100F 5201              mov A,[X+1]
 1011 62D000            mov REG[0xd0],>__r0
 1014 801D              xjmp L532
 1016           L552:
 1016                   .dbline 1013
 1016           ; }
 1016           ; }
 1016 3D0002            cmp [X+0],2
 1019 B013              jnz L554
 101B                   .dbline 1014
 101B           ; }
 101B                   .dbline 1015
 101B           ; }
 101B 62D000            mov REG[0xd0],>__r0
 101E 5201              mov A,[X+1]
 1020 1101              sub A,1
 1022 3901              cmp A,1
 1024 D006              jnc L556
 1026           X23:
 1026                   .dbline 1015
 1026 560103            mov [X+1],3
 1029 8003              xjmp L557
 102B           L556:
 102B                   .dbline 1016
 102B           ; }
 102B 7B01              dec [X+1]
 102D           L557:
 102D                   .dbline 1017
 102D           ; }
 102D           L554:
 102D           L549:
 102D                   .dbline 1018
 102D           L534:
 102D                   .dbline 1018
 102D           ; }
 102D 3D0005            cmp [X+0],5
 1030 BF5A              jnz L533
 1032                   .dbline -2
 1032                   .dbline 1019
 1032           ; }
 1032           L532:
 1032 38FC              add SP,-4
 1034 20                pop X
 1035                   .dbline 0 ; func end
 1035 7F                ret
 1036                   .dbsym l x 2 i
 1036                   .dbsym l menu 1 c
 1036                   .dbsym l pulsat 0 c
 1036                   .dbend
 1036                   .dbfunc e Executar _Executar fV
 1036           ;              x -> X+2
 1036           ;           menu -> X+1
 1036           ;         pulsat -> X+0
 1036           _Executar::
 1036                   .dbline -1
 1036 10                push X
 1037 4F                mov X,SP
 1038 3804              add SP,4
 103A                   .dbline 1029
 103A           ; }
 103A           ; }
 103A           ; }
 103A           ; }
 103A           ; }
 103A           ; }
 103A           ; }
 103A           ; }
 103A           ; }
 103A           ; }
 103A                   .dbline 1030
 103A           ; }
 103A 560101            mov [X+1],1
 103D           L559:
 103D                   .dbline 1034
 103D           ; }
 103D           ; }
 103D           ; }
 103D           ; }
 103D                   .dbline 1035
 103D           ; }
 103D 10                push X
 103E 5001              mov A,1
 1040 7C0000            xcall _LCD_Control
 1043                   .dbline 1036
 1043           ; }
 1043 50AB              mov A,>L562
 1045 08                push A
 1046 50AB              mov A,<L562
 1048 5C                mov X,A
 1049 18                pop A
 104A 7C0000            xcall _LCD_PrCString
 104D                   .dbline 1037
 104D           ; }
 104D 5700              mov X,0
 104F 5001              mov A,1
 1051 7C0000            xcall _LCD_Position
 1054                   .dbline 1038
 1054           ; }
 1054 50A3              mov A,>L563
 1056 08                push A
 1057 50A3              mov A,<L563
 1059 5C                mov X,A
 105A 18                pop A
 105B 7C0000            xcall _LCD_PrCString
 105E 20                pop X
 105F                   .dbline 1039
 105F           ; }
 105F 7C00E8            xcall _bucle_temp
 1062                   .dbline 1040
 1062           ; }
 1062 7C018A            xcall _Pulsador
 1065 5400              mov [X+0],A
 1067                   .dbline 1041
 1067           ; }
 1067 62D000            mov REG[0xd0],>_Buzzer
 106A 3C0001            cmp [_Buzzer],1
 106D B006              jnz L564
 106F                   .dbline 1041
 106F 7C0139            xcall _Pitido
 1072 800D              xjmp L565
 1074           L564:
 1074                   .dbline 1042
 1074           ; }
 1074 3D0003            cmp [X+0],3
 1077 B008              jnz L566
 1079                   .dbline 1043
 1079           ; }
 1079                   .dbline 1044
 1079           ; }
 1079 3D0101            cmp [X+1],1
 107C B003              jnz L568
 107E                   .dbline 1044
 107E 912E              xcall _Ara
 1080           L568:
 1080                   .dbline 1045
 1080           ; }
 1080           L566:
 1080           L565:
 1080                   .dbline 1046
 1080           L560:
 1080                   .dbline 1046
 1080           ; }
 1080 3D0004            cmp [X+0],4
 1083 BFB9              jnz L559
 1085                   .dbline -2
 1085                   .dbline 1047
 1085           ; }
 1085           L558:
 1085 38FC              add SP,-4
 1087 20                pop X
 1088                   .dbline 0 ; func end
 1088 7F                ret
 1089                   .dbsym l x 2 i
 1089                   .dbsym l menu 1 c
 1089                   .dbsym l pulsat 0 c
 1089                   .dbend
 1089                   .dbfunc e envio_valores _envio_valores fV
 1089           _envio_valores::
 1089                   .dbline -1
 1089                   .dbline 1062
 1089           ; }
 1089           ; }
 1089           ; }
 1089           ; }
 1089           ; }
 1089           ; }
 1089           ; }
 1089           ; }
 1089           ; }
 1089           ; }
 1089           ; }
 1089           ; }
 1089           ; }
 1089           ; }
 1089           ; }
 1089                   .dbline 1063
 1089           ; }
 1089 7C0165            xcall _Reset_PdT
 108C                   .dbline 1064
 108C           ; }
 108C 62D000            mov REG[0xd0],>_Cam1
 108F 5100              mov A,[_Cam1]
 1091 08                push A
 1092 7C0000            xcall _envia
 1095                   .dbline 1065
 1095           ; }
 1095 62D000            mov REG[0xd0],>_Cam2
 1098 5100              mov A,[_Cam2]
 109A 08                push A
 109B 7C0000            xcall _envia
 109E 38FE              add SP,-2
 10A0                   .dbline 1066
 10A0           ; }
 10A0 62D000            mov REG[0xd0],>_Ent1
 10A3 5100              mov A,[_Ent1]
 10A5 08                push A
 10A6 7C0000            xcall _envia
 10A9                   .dbline 1067
 10A9           ; }
 10A9 62D000            mov REG[0xd0],>_Ent2
 10AC 5100              mov A,[_Ent2]
 10AE 08                push A
 10AF 7C0000            xcall _envia
 10B2 38FE              add SP,-2
 10B4                   .dbline 1068
 10B4           ; }
 10B4 62D000            mov REG[0xd0],>_Ent3
 10B7 5100              mov A,[_Ent3]
 10B9 08                push A
 10BA 7C0000            xcall _envia
 10BD                   .dbline 1069
 10BD           ; }
 10BD 62D000            mov REG[0xd0],>_Ent4
 10C0 5100              mov A,[_Ent4]
 10C2 08                push A
 10C3 7C0000            xcall _envia
 10C6 38FE              add SP,-2
 10C8                   .dbline 1070
 10C8           ; }
 10C8 62D000            mov REG[0xd0],>_Fla1
 10CB 5100              mov A,[_Fla1]
 10CD 08                push A
 10CE 7C0000            xcall _envia
 10D1                   .dbline 1071
 10D1           ; }
 10D1 62D000            mov REG[0xd0],>_Fla2
 10D4 5100              mov A,[_Fla2]
 10D6 08                push A
 10D7 7C0000            xcall _envia
 10DA 38FE              add SP,-2
 10DC                   .dbline 1072
 10DC           ; }
 10DC 62D000            mov REG[0xd0],>_Fla3
 10DF 5100              mov A,[_Fla3]
 10E1 08                push A
 10E2 7C0000            xcall _envia
 10E5                   .dbline 1073
 10E5           ; }
 10E5 62D000            mov REG[0xd0],>_Fla4
 10E8 5100              mov A,[_Fla4]
 10EA 08                push A
 10EB 7C0000            xcall _envia
 10EE 38FE              add SP,-2
 10F0                   .dbline 1075
 10F0           ; }
 10F0           ; }
 10F0 62D000            mov REG[0xd0],>_Cam1
 10F3 3C0002            cmp [_Cam1],2
 10F6 B00C              jnz L571
 10F8                   .dbline 1076
 10F8           ; }
 10F8 62D000            mov REG[0xd0],>_Int1_Tdisp
 10FB 5100              mov A,[_Int1_Tdisp]
 10FD 08                push A
 10FE 7C0000            xcall _envia
 1101 38FF              add SP,-1
 1103           L571:
 1103                   .dbline 1077
 1103           ; }
 1103 62D000            mov REG[0xd0],>_Int1_Tdisp_Uni
 1106 5100              mov A,[_Int1_Tdisp_Uni]
 1108 08                push A
 1109 7C0000            xcall _envia
 110C                   .dbline 1078
 110C           ; }
 110C 62D000            mov REG[0xd0],>_Int1_Ndisp
 110F 5100              mov A,[_Int1_Ndisp]
 1111 08                push A
 1112 7C0000            xcall _envia
 1115 38FE              add SP,-2
 1117                   .dbline 1080
 1117           ; }
 1117           ; }
 1117 62D000            mov REG[0xd0],>_Cam2
 111A 3C0002            cmp [_Cam2],2
 111D B00C              jnz L573
 111F                   .dbline 1081
 111F           ; }
 111F 62D000            mov REG[0xd0],>_Int2_Tdisp
 1122 5100              mov A,[_Int2_Tdisp]
 1124 08                push A
 1125 7C0000            xcall _envia
 1128 38FF              add SP,-1
 112A           L573:
 112A                   .dbline 1082
 112A           ; }
 112A 62D000            mov REG[0xd0],>_Int2_Tdisp_Uni
 112D 5100              mov A,[_Int2_Tdisp_Uni]
 112F 08                push A
 1130 7C0000            xcall _envia
 1133                   .dbline 1083
 1133           ; }
 1133 62D000            mov REG[0xd0],>_Int2_Ndisp
 1136 5100              mov A,[_Int2_Ndisp]
 1138 08                push A
 1139 7C0000            xcall _envia
 113C 38FE              add SP,-2
 113E                   .dbline 1085
 113E           ; }
 113E           ; }
 113E 62D000            mov REG[0xd0],>_Cam1
 1141 3C0003            cmp [_Cam1],3
 1144 B00C              jnz L575
 1146                   .dbline 1086
 1146           ; }
 1146 62D000            mov REG[0xd0],>_TL1_Treal
 1149 5100              mov A,[_TL1_Treal]
 114B 08                push A
 114C 7C0000            xcall _envia
 114F 38FF              add SP,-1
 1151           L575:
 1151                   .dbline 1087
 1151           ; }
 1151 62D000            mov REG[0xd0],>_TL1_Treal_Uni
 1154 5100              mov A,[_TL1_Treal_Uni]
 1156 08                push A
 1157 7C0000            xcall _envia
 115A 38FF              add SP,-1
 115C                   .dbline 1088
 115C           ; }
 115C 62D000            mov REG[0xd0],>_TL1_Tfilm
 115F 5100              mov A,[_TL1_Tfilm]
 1161 08                push A
 1162 7C0000            xcall _envia
 1165                   .dbline 1089
 1165           ; }
 1165 62D000            mov REG[0xd0],>_TL1_Tfilm_Uni
 1168 5100              mov A,[_TL1_Tfilm_Uni]
 116A 08                push A
 116B 7C0000            xcall _envia
 116E 38FE              add SP,-2
 1170                   .dbline 1091
 1170           ; }
 1170           ; }
 1170 62D000            mov REG[0xd0],>_Cam2
 1173 3C0003            cmp [_Cam2],3
 1176 B00C              jnz L577
 1178                   .dbline 1092
 1178           ; }
 1178 62D000            mov REG[0xd0],>_TL2_Treal
 117B 5100              mov A,[_TL2_Treal]
 117D 08                push A
 117E 7C0000            xcall _envia
 1181 38FF              add SP,-1
 1183           L577:
 1183                   .dbline 1093
 1183 62D000            mov REG[0xd0],>_TL2_Treal_Uni
 1186 5100              mov A,[_TL2_Treal_Uni]
 1188 08                push A
 1189 7C0000            xcall _envia
 118C 38FF              add SP,-1
 118E                   .dbline 1094
 118E 62D000            mov REG[0xd0],>_TL2_Tfilm
 1191 5100              mov A,[_TL2_Tfilm]
 1193 08                push A
 1194 7C0000            xcall _envia
 1197                   .dbline 1095
 1197 62D000            mov REG[0xd0],>_TL2_Tfilm_Uni
 119A 5100              mov A,[_TL2_Tfilm_Uni]
 119C 08                push A
 119D 7C0000            xcall _envia
 11A0 38FE              add SP,-2
 11A2                   .dbline 1097
 11A2 62D000            mov REG[0xd0],>_Buzzer
 11A5 3C0001            cmp [_Buzzer],1
 11A8 B004              jnz L579
 11AA                   .dbline 1097
 11AA 7C0139            xcall _Pitido
 11AD           L579:
 11AD                   .dbline -2
 11AD                   .dbline 1098
 11AD           ; }
 11AD           ; }
 11AD           ; }
 11AD           ; }
 11AD           ; }
 11AD           ; }
 11AD           L570:
 11AD                   .dbline 0 ; func end
 11AD 7F                ret
 11AE                   .dbend
 11AE                   .dbfunc e Ara _Ara fV
 11AE           _Ara::
 11AE                   .dbline -1
 11AE                   .dbline 1111
 11AE           ; }
 11AE           ; }
 11AE           ; }
 11AE           ; }
 11AE           ; }
 11AE           ; }
 11AE           ; }
 11AE           ; }
 11AE           ; }
 11AE           ; }
 11AE           ; }
 11AE           ; }
 11AE           ; }
 11AE                   .dbline 1112
 11AE           ; }
 11AE 9ED9              xcall _envio_valores
 11B0                   .dbline 1113
 11B0           ; }
 11B0 9001              xcall _Trabajando
 11B2                   .dbline -2
 11B2                   .dbline 1114
 11B2           ; }
 11B2           L581:
 11B2                   .dbline 0 ; func end
 11B2 7F                ret
 11B3                   .dbend
 11B3                   .dbfunc e Trabajando _Trabajando fV
 11B3           ;         pulsat -> X+2
 11B3           ;              x -> X+0
 11B3           _Trabajando::
 11B3                   .dbline -1
 11B3 10                push X
 11B4 4F                mov X,SP
 11B5 3803              add SP,3
 11B7                   .dbline 1124
 11B7           ; }
 11B7           ; }
 11B7           ; }
 11B7           ; }
 11B7           ; }
 11B7           ; }
 11B7           ; }
 11B7           ; }
 11B7           ; }
 11B7           ; }
 11B7                   .dbline 1128
 11B7           ; }
 11B7           ; }
 11B7           ; }
 11B7           ; }
 11B7 10                push X
 11B8 5001              mov A,1
 11BA 7C0000            xcall _LCD_Control
 11BD                   .dbline 1129
 11BD           ; }
 11BD 5093              mov A,>L583
 11BF 08                push A
 11C0 5093              mov A,<L583
 11C2 5C                mov X,A
 11C3 18                pop A
 11C4 7C0000            xcall _LCD_PrCString
 11C7 20                pop X
 11C8                   .dbline 1130
 11C8 560100            mov [X+1],0
 11CB 560000            mov [X+0],0
 11CE 8006              xjmp L587
 11D0           L584:
 11D0                   .dbline 1130
 11D0           L585:
 11D0                   .dbline 1130
 11D0 7701              inc [X+1]
 11D2 0F0000            adc [X+0],0
 11D5           L587:
 11D5                   .dbline 1130
 11D5           ; }
 11D5 62D000            mov REG[0xd0],>__r0
 11D8 5201              mov A,[X+1]
 11DA 5300              mov [__r3],A
 11DC 5200              mov A,[X+0]
 11DE 5300              mov [__r2],A
 11E0 5100              mov A,[__r3]
 11E2 1160              sub A,96
 11E4 5100              mov A,[__r2]
 11E6 19EA              sbb A,-22
 11E8 5000              mov A,0
 11EA 1900              sbb A,0
 11EC 5000              mov A,0
 11EE 3180              xor A,-128
 11F0 1980              sbb A,(0 ^ 0x80)
 11F2 CFDD              jc L584
 11F4           X25:
 11F4                   .dbline 1132
 11F4           ; }
 11F4           ; }
 11F4           L588:
 11F4                   .dbline 1133
 11F4           ; }
 11F4                   .dbline 1134
 11F4           ; }
 11F4 10                push X
 11F5 5008              mov A,8
 11F7 7C0000            xcall _LCD_Control
 11FA                   .dbline 1135
 11FA           ; }
 11FA 5001              mov A,1
 11FC 7C0000            xcall _LCD_Control
 11FF 20                pop X
 1200                   .dbline 1137
 1200           ; }
 1200           ; }
 1200 7C018A            xcall _Pulsador
 1203 5402              mov [X+2],A
 1205                   .dbline 1138
 1205           ; }
 1205 62D000            mov REG[0xd0],>_Buzzer
 1208 3C0001            cmp [_Buzzer],1
 120B B004              jnz L592
 120D                   .dbline 1138
 120D 7C0139            xcall _Pitido
 1210           L592:
 1210                   .dbline 1139
 1210           ; }
 1210 3D0201            cmp [X+2],1
 1213 A00B              jz L597
 1215 3D0202            cmp [X+2],2
 1218 A006              jz L597
 121A 3D0204            cmp [X+2],4
 121D B051              jnz L594
 121F           L597:
 121F                   .dbline 1140
 121F           ; }
 121F                   .dbline 1141
 121F           ; }
 121F 10                push X
 1220 500E              mov A,14
 1222 7C0000            xcall _LCD_Control
 1225                   .dbline 1142
 1225           ; }
 1225 5083              mov A,>L598
 1227 08                push A
 1228 5083              mov A,<L598
 122A 5C                mov X,A
 122B 18                pop A
 122C 7C0000            xcall _LCD_PrCString
 122F                   .dbline 1143
 122F           ; }
 122F 5700              mov X,0
 1231 5001              mov A,1
 1233 7C0000            xcall _LCD_Position
 1236                   .dbline 1144
 1236           ; }
 1236 5071              mov A,>L599
 1238 08                push A
 1239 5071              mov A,<L599
 123B 5C                mov X,A
 123C 18                pop A
 123D 7C0000            xcall _LCD_PrCString
 1240 20                pop X
 1241                   .dbline 1145
 1241 560100            mov [X+1],0
 1244 560000            mov [X+0],0
 1247 8006              xjmp L603
 1249           L600:
 1249                   .dbline 1145
 1249           L601:
 1249                   .dbline 1145
 1249 7701              inc [X+1]
 124B 0F0000            adc [X+0],0
 124E           L603:
 124E                   .dbline 1145
 124E           ; }
 124E 62D000            mov REG[0xd0],>__r0
 1251 5201              mov A,[X+1]
 1253 5300              mov [__r3],A
 1255 5200              mov A,[X+0]
 1257 5300              mov [__r2],A
 1259 5100              mov A,[__r3]
 125B 1150              sub A,80
 125D 5100              mov A,[__r2]
 125F 19C3              sbb A,-61
 1261 5000              mov A,0
 1263 1900              sbb A,0
 1265 5000              mov A,0
 1267 3180              xor A,-128
 1269 1980              sbb A,(0 ^ 0x80)
 126B CFDD              jc L600
 126D           X26:
 126D                   .dbline 1146
 126D           ; }
 126D 8F86              xjmp L588
 126F           L594:
 126F                   .dbline 1147
 126F           ; }
 126F 3D0203            cmp [X+2],3
 1272 BF81              jnz L588
 1274                   .dbline 1148
 1274           ; }
 1274                   .dbline 1149
 1274           ; }
 1274 10                push X
 1275 500E              mov A,14
 1277 7C0000            xcall _LCD_Control
 127A                   .dbline 1150
 127A           ; }
 127A 5062              mov A,>L606
 127C 08                push A
 127D 5062              mov A,<L606
 127F 5C                mov X,A
 1280 18                pop A
 1281 7C0000            xcall _LCD_PrCString
 1284 20                pop X
 1285                   .dbline 1151
 1285 560100            mov [X+1],0
 1288 560000            mov [X+0],0
 128B 8006              xjmp L610
 128D           L607:
 128D                   .dbline 1151
 128D           L608:
 128D                   .dbline 1151
 128D 7701              inc [X+1]
 128F 0F0000            adc [X+0],0
 1292           L610:
 1292                   .dbline 1151
 1292 62D000            mov REG[0xd0],>__r0
 1295 5201              mov A,[X+1]
 1297 5300              mov [__r3],A
 1299 5200              mov A,[X+0]
 129B 5300              mov [__r2],A
 129D 5100              mov A,[__r3]
 129F 1150              sub A,80
 12A1 5100              mov A,[__r2]
 12A3 19C3              sbb A,-61
 12A5 5000              mov A,0
 12A7 1900              sbb A,0
 12A9 5000              mov A,0
 12AB 3180              xor A,-128
 12AD 1980              sbb A,(0 ^ 0x80)
 12AF CFDD              jc L607
 12B1           X27:
 12B1                   .dbline 1152
 12B1 9006              xcall _Resetear
 12B3                   .dbline 1153
 12B3                   .dbline 1154
 12B3                   .dbline 1132
 12B3                   .dbline 1132
 12B3 8F40              xjmp L588
 12B5           X24:
 12B5                   .dbline -2
 12B5           L582:
 12B5 38FD              add SP,-3
 12B7 20                pop X
 12B8                   .dbline 0 ; func end
 12B8 7F                ret
 12B9                   .dbsym l pulsat 2 c
 12B9                   .dbsym l x 0 i
 12B9                   .dbend
 12B9                   .dbfunc e Resetear _Resetear fV
 12B9           _Resetear::
 12B9                   .dbline -1
 12B9                   .dbline 1164
 12B9           ; }
 12B9           ; }
 12B9           ; }
 12B9           ; }
 12B9           ; }
 12B9           ; }
 12B9           ; }
 12B9           ; }
 12B9           ; }
 12B9           ; }
 12B9           ; }
 12B9           ; }
 12B9           ; }
 12B9           ; }
 12B9                   .dbline 1165
 12B9           ; }
 12B9 7C0165            xcall _Reset_PdT
 12BC                   .dbline 1166
 12BC           ; }
 12BC 7C011C            xcall _Principal
 12BF                   .dbline -2
 12BF                   .dbline 1167
 12BF           ; }
 12BF           L611:
 12BF                   .dbline 0 ; func end
 12BF 7F                ret
 12C0                   .dbend
 12C0                   .dbfunc e Sistema _Sistema fV
 12C0           ;              x -> X+2
 12C0           ;           menu -> X+1
 12C0           ;         pulsat -> X+0
 12C0           _Sistema::
 12C0                   .dbline -1
 12C0 10                push X
 12C1 4F                mov X,SP
 12C2 3804              add SP,4
 12C4                   .dbline 1177
 12C4           ; }
 12C4           ; }
 12C4           ; }
 12C4           ; }
 12C4           ; }
 12C4           ; }
 12C4           ; }
 12C4           ; }
 12C4           ; }
 12C4           ; }
 12C4                   .dbline 1178
 12C4           ; }
 12C4 560101            mov [X+1],1
 12C7           L613:
 12C7                   .dbline 1182
 12C7           ; }
 12C7           ; }
 12C7           ; }
 12C7           ; }
 12C7                   .dbline 1183
 12C7           ; }
 12C7 10                push X
 12C8 5001              mov A,1
 12CA 7C0000            xcall _LCD_Control
 12CD                   .dbline 1184
 12CD           ; }
 12CD 5053              mov A,>L616
 12CF 08                push A
 12D0 5053              mov A,<L616
 12D2 5C                mov X,A
 12D3 18                pop A
 12D4 7C0000            xcall _LCD_PrCString
 12D7                   .dbline 1185
 12D7           ; }
 12D7 5700              mov X,0
 12D9 5001              mov A,1
 12DB 7C0000            xcall _LCD_Position
 12DE 20                pop X
 12DF                   .dbline 1186
 12DF           ; }
 12DF 3D0101            cmp [X+1],1
 12E2 B00F              jnz L617
 12E4                   .dbline 1186
 12E4 10                push X
 12E5 5049              mov A,>L619
 12E7 08                push A
 12E8 5049              mov A,<L619
 12EA 5C                mov X,A
 12EB 18                pop A
 12EC 7C0000            xcall _LCD_PrCString
 12EF 20                pop X
 12F0 8025              xjmp L618
 12F2           L617:
 12F2                   .dbline 1187
 12F2           ; }
 12F2 3D0102            cmp [X+1],2
 12F5 B00F              jnz L620
 12F7                   .dbline 1187
 12F7 10                push X
 12F8 5038              mov A,>L622
 12FA 08                push A
 12FB 5038              mov A,<L622
 12FD 5C                mov X,A
 12FE 18                pop A
 12FF 7C0000            xcall _LCD_PrCString
 1302 20                pop X
 1303 8012              xjmp L621
 1305           L620:
 1305                   .dbline 1188
 1305           ; }
 1305 3D0103            cmp [X+1],3
 1308 B00D              jnz L623
 130A                   .dbline 1188
 130A 10                push X
 130B 5028              mov A,>L625
 130D 08                push A
 130E 5028              mov A,<L625
 1310 5C                mov X,A
 1311 18                pop A
 1312 7C0000            xcall _LCD_PrCString
 1315 20                pop X
 1316           L623:
 1316           L621:
 1316           L618:
 1316                   .dbline 1189
 1316           ; }
 1316 7C00E8            xcall _bucle_temp
 1319                   .dbline 1190
 1319           ; }
 1319 7C018A            xcall _Pulsador
 131C 5400              mov [X+0],A
 131E                   .dbline 1191
 131E           ; }
 131E 62D000            mov REG[0xd0],>_Buzzer
 1321 3C0001            cmp [_Buzzer],1
 1324 B004              jnz L626
 1326                   .dbline 1191
 1326 7C0139            xcall _Pitido
 1329           L626:
 1329                   .dbline 1192
 1329           ; }
 1329 3D0001            cmp [X+0],1
 132C B019              jnz L628
 132E                   .dbline 1193
 132E           ; }
 132E                   .dbline 1194
 132E           ; }
 132E 62D000            mov REG[0xd0],>__r0
 1331 5201              mov A,[X+1]
 1333 0101              add A,1
 1335 5300              mov [__r0],A
 1337 5003              mov A,3
 1339 3A00              cmp A,[__r0]
 133B D006              jnc L630
 133D           X28:
 133D                   .dbline 1194
 133D 560101            mov [X+1],1
 1340 803C              xjmp L629
 1342           L630:
 1342                   .dbline 1195
 1342           ; }
 1342 7701              inc [X+1]
 1344                   .dbline 1196
 1344           ; }
 1344 8038              xjmp L629
 1346           L628:
 1346                   .dbline 1197
 1346           ; }
 1346 3D0003            cmp [X+0],3
 1349 B01C              jnz L632
 134B                   .dbline 1198
 134B           ; }
 134B                   .dbline 1199
 134B           ; }
 134B 3D0101            cmp [X+1],1
 134E B005              jnz L634
 1350                   .dbline 1199
 1350 9034              xcall _Reali_LCD
 1352 802A              xjmp L633
 1354           L634:
 1354                   .dbline 1200
 1354           ; }
 1354 3D0102            cmp [X+1],2
 1357 B005              jnz L636
 1359                   .dbline 1200
 1359 90B6              xcall _Zumbador
 135B 8021              xjmp L633
 135D           L636:
 135D                   .dbline 1201
 135D           ; }
 135D 3D0103            cmp [X+1],3
 1360 B01C              jnz L633
 1362                   .dbline 1201
 1362 9132              xcall _Ali_Led
 1364                   .dbline 1202
 1364           ; }
 1364 8018              xjmp L633
 1366           L632:
 1366                   .dbline 1203
 1366           ; }
 1366 3D0002            cmp [X+0],2
 1369 B013              jnz L640
 136B                   .dbline 1204
 136B           ; }
 136B                   .dbline 1205
 136B           ; }
 136B 62D000            mov REG[0xd0],>__r0
 136E 5201              mov A,[X+1]
 1370 1101              sub A,1
 1372 3901              cmp A,1
 1374 D006              jnc L642
 1376           X29:
 1376                   .dbline 1205
 1376 560103            mov [X+1],3
 1379 8003              xjmp L643
 137B           L642:
 137B                   .dbline 1206
 137B           ; }
 137B 7B01              dec [X+1]
 137D           L643:
 137D                   .dbline 1207
 137D           ; }
 137D           L640:
 137D           L633:
 137D           L629:
 137D                   .dbline 1208
 137D           L614:
 137D                   .dbline 1208
 137D           ; }
 137D 3D0004            cmp [X+0],4
 1380 BF46              jnz L613
 1382                   .dbline -2
 1382                   .dbline 1209
 1382           ; }
 1382           L612:
 1382 38FC              add SP,-4
 1384 20                pop X
 1385                   .dbline 0 ; func end
 1385 7F                ret
 1386                   .dbsym l x 2 i
 1386                   .dbsym l menu 1 c
 1386                   .dbsym l pulsat 0 c
 1386                   .dbend
 1386                   .dbfunc e Reali_LCD _Reali_LCD fV
 1386           ;              x -> X+1
 1386           ;         pulsat -> X+0
 1386           _Reali_LCD::
 1386                   .dbline -1
 1386 10                push X
 1387 4F                mov X,SP
 1388 3803              add SP,3
 138A                   .dbline 1218
 138A           ; }
 138A           ; }
 138A           ; }
 138A           ; }
 138A           ; }
 138A           ; }
 138A           ; }
 138A           ; }
 138A           ; }
 138A           L645:
 138A                   .dbline 1223
 138A           ; }
 138A           ; }
 138A           ; }
 138A           ; }
 138A           ; }
 138A                   .dbline 1224
 138A           ; }
 138A 10                push X
 138B 5001              mov A,1
 138D 7C0000            xcall _LCD_Control
 1390                   .dbline 1225
 1390           ; }
 1390 501F              mov A,>L648
 1392 08                push A
 1393 501F              mov A,<L648
 1395 5C                mov X,A
 1396 18                pop A
 1397 7C0000            xcall _LCD_PrCString
 139A                   .dbline 1226
 139A           ; }
 139A 5700              mov X,0
 139C 5001              mov A,1
 139E 7C0000            xcall _LCD_Position
 13A1 20                pop X
 13A2                   .dbline 1227
 13A2           ; }
 13A2 62D000            mov REG[0xd0],>_Luz_LCD
 13A5 3C0000            cmp [_Luz_LCD],0
 13A8 B00F              jnz L649
 13AA                   .dbline 1227
 13AA 10                push X
 13AB 5053              mov A,>L151
 13AD 08                push A
 13AE 5053              mov A,<L151
 13B0 5C                mov X,A
 13B1 18                pop A
 13B2 7C0000            xcall _LCD_PrCString
 13B5 20                pop X
 13B6 800D              xjmp L650
 13B8           L649:
 13B8                   .dbline 1228
 13B8           ; }
 13B8 10                push X
 13B9 5050              mov A,>L152
 13BB 08                push A
 13BC 5050              mov A,<L152
 13BE 5C                mov X,A
 13BF 18                pop A
 13C0 7C0000            xcall _LCD_PrCString
 13C3 20                pop X
 13C4           L650:
 13C4                   .dbline 1229
 13C4           ; }
 13C4 7C00E8            xcall _bucle_temp
 13C7                   .dbline 1230
 13C7           ; }
 13C7 7C018A            xcall _Pulsador
 13CA 5400              mov [X+0],A
 13CC                   .dbline 1231
 13CC           ; }
 13CC 62D000            mov REG[0xd0],>_Buzzer
 13CF 3C0001            cmp [_Buzzer],1
 13D2 B004              jnz L651
 13D4                   .dbline 1231
 13D4 7C0139            xcall _Pitido
 13D7           L651:
 13D7                   .dbline 1232
 13D7           ; }
 13D7 3D0001            cmp [X+0],1
 13DA A006              jz L655
 13DC 3D0002            cmp [X+0],2
 13DF B00A              jnz L653
 13E1           L655:
 13E1                   .dbline 1233
 13E1           ; }
 13E1                   .dbline 1234
 13E1           ; }
 13E1 5D00              mov A,REG[ 0]
 13E3 62D000            mov REG[0xd0],>__r0
 13E6 6000              mov REG[ 0],A
 13E8                   .dbline 1235
 13E8           ; }
 13E8 801F              xjmp L654
 13EA           L653:
 13EA                   .dbline 1236
 13EA           ; }
 13EA 3D0003            cmp [X+0],3
 13ED B01A              jnz L656
 13EF                   .dbline 1237
 13EF           ; }
 13EF                   .dbline 1238
 13EF           ; }
 13EF 62D000            mov REG[0xd0],>_Luz_LCD
 13F2 3C0000            cmp [_Luz_LCD],0
 13F5 B009              jnz L658
 13F7                   .dbline 1239
 13F7           ; }
 13F7                   .dbline 1240
 13F7           ; }
 13F7 430002            or REG[ 0],2
 13FA                   .dbline 1241
 13FA           ; }
 13FA 550001            mov [_Luz_LCD],1
 13FD                   .dbline 1242
 13FD           ; }
 13FD 800A              xjmp L659
 13FF           L658:
 13FF                   .dbline 1244
 13FF           ; }
 13FF           ; }
 13FF                   .dbline 1245
 13FF           ; }
 13FF 4100FD            and REG[ 0],-3
 1402                   .dbline 1246
 1402           ; }
 1402 62D000            mov REG[0xd0],>_Luz_LCD
 1405 550000            mov [_Luz_LCD],0
 1408                   .dbline 1247
 1408           ; }
 1408           L659:
 1408                   .dbline 1248
 1408           ; }
 1408           L656:
 1408           L654:
 1408                   .dbline 1249
 1408           L646:
 1408                   .dbline 1249
 1408           ; }
 1408 3D0004            cmp [X+0],4
 140B BF7E              jnz L645
 140D                   .dbline -2
 140D                   .dbline 1250
 140D           ; }
 140D           L644:
 140D 38FD              add SP,-3
 140F 20                pop X
 1410                   .dbline 0 ; func end
 1410 7F                ret
 1411                   .dbsym l x 1 i
 1411                   .dbsym l pulsat 0 c
 1411                   .dbend
 1411                   .dbfunc e Zumbador _Zumbador fV
 1411           ;              x -> X+1
 1411           ;         pulsat -> X+0
 1411           _Zumbador::
 1411                   .dbline -1
 1411 10                push X
 1412 4F                mov X,SP
 1413 3803              add SP,3
 1415                   .dbline 1259
 1415           ; }
 1415           ; }
 1415           ; }
 1415           ; }
 1415           ; }
 1415           ; }
 1415           ; }
 1415           ; }
 1415           ; }
 1415           L661:
 1415                   .dbline 1264
 1415           ; }
 1415           ; }
 1415           ; }
 1415           ; }
 1415           ; }
 1415                   .dbline 1265
 1415           ; }
 1415 10                push X
 1416 5001              mov A,1
 1418 7C0000            xcall _LCD_Control
 141B                   .dbline 1266
 141B           ; }
 141B 500F              mov A,>L664
 141D 08                push A
 141E 500F              mov A,<L664
 1420 5C                mov X,A
 1421 18                pop A
 1422 7C0000            xcall _LCD_PrCString
 1425                   .dbline 1267
 1425           ; }
 1425 5700              mov X,0
 1427 5001              mov A,1
 1429 7C0000            xcall _LCD_Position
 142C 20                pop X
 142D                   .dbline 1268
 142D           ; }
 142D 62D000            mov REG[0xd0],>_Buzzer
 1430 3C0000            cmp [_Buzzer],0
 1433 B00F              jnz L665
 1435                   .dbline 1268
 1435 10                push X
 1436 5053              mov A,>L151
 1438 08                push A
 1439 5053              mov A,<L151
 143B 5C                mov X,A
 143C 18                pop A
 143D 7C0000            xcall _LCD_PrCString
 1440 20                pop X
 1441 800D              xjmp L666
 1443           L665:
 1443                   .dbline 1269
 1443           ; }
 1443 10                push X
 1444 5050              mov A,>L152
 1446 08                push A
 1447 5050              mov A,<L152
 1449 5C                mov X,A
 144A 18                pop A
 144B 7C0000            xcall _LCD_PrCString
 144E 20                pop X
 144F           L666:
 144F                   .dbline 1270
 144F           ; }
 144F 7C00E8            xcall _bucle_temp
 1452                   .dbline 1271
 1452           ; }
 1452 7C018A            xcall _Pulsador
 1455 5400              mov [X+0],A
 1457                   .dbline 1272
 1457           ; }
 1457 62D000            mov REG[0xd0],>_Buzzer
 145A 3C0001            cmp [_Buzzer],1
 145D B004              jnz L667
 145F                   .dbline 1272
 145F 7C0139            xcall _Pitido
 1462           L667:
 1462                   .dbline 1273
 1462           ; }
 1462 3D0001            cmp [X+0],1
 1465 A006              jz L671
 1467 3D0002            cmp [X+0],2
 146A B00A              jnz L669
 146C           L671:
 146C                   .dbline 1274
 146C           ; }
 146C                   .dbline 1275
 146C           ; }
 146C 5D00              mov A,REG[ 0]
 146E 62D000            mov REG[0xd0],>__r0
 1471 6000              mov REG[ 0],A
 1473                   .dbline 1276
 1473           ; }
 1473 8019              xjmp L670
 1475           L669:
 1475                   .dbline 1277
 1475           ; }
 1475 3D0003            cmp [X+0],3
 1478 B014              jnz L672
 147A                   .dbline 1278
 147A           ; }
 147A                   .dbline 1279
 147A           ; }
 147A 62D000            mov REG[0xd0],>_Buzzer
 147D 3C0000            cmp [_Buzzer],0
 1480 B006              jnz L674
 1482                   .dbline 1279
 1482 550001            mov [_Buzzer],1
 1485 8007              xjmp L675
 1487           L674:
 1487                   .dbline 1280
 1487           ; }
 1487 62D000            mov REG[0xd0],>_Buzzer
 148A 550000            mov [_Buzzer],0
 148D           L675:
 148D                   .dbline 1281
 148D           ; }
 148D           L672:
 148D           L670:
 148D                   .dbline 1282
 148D           L662:
 148D                   .dbline 1282
 148D           ; }
 148D 3D0004            cmp [X+0],4
 1490 BF84              jnz L661
 1492                   .dbline -2
 1492                   .dbline 1283
 1492           ; }
 1492           L660:
 1492 38FD              add SP,-3
 1494 20                pop X
 1495                   .dbline 0 ; func end
 1495 7F                ret
 1496                   .dbsym l x 1 i
 1496                   .dbsym l pulsat 0 c
 1496                   .dbend
 1496                   .dbfunc e Ali_Led _Ali_Led fV
 1496           ;              x -> X+1
 1496           ;         pulsat -> X+0
 1496           _Ali_Led::
 1496                   .dbline -1
 1496 10                push X
 1497 4F                mov X,SP
 1498 3803              add SP,3
 149A                   .dbline 1292
 149A           ; }
 149A           ; }
 149A           ; }
 149A           ; }
 149A           ; }
 149A           ; }
 149A           ; }
 149A           ; }
 149A           ; }
 149A           L677:
 149A                   .dbline 1297
 149A           ; }
 149A           ; }
 149A           ; }
 149A           ; }
 149A           ; }
 149A                   .dbline 1298
 149A           ; }
 149A 10                push X
 149B 5001              mov A,1
 149D 7C0000            xcall _LCD_Control
 14A0                   .dbline 1299
 14A0           ; }
 14A0 5000              mov A,>L680
 14A2 08                push A
 14A3 5000              mov A,<L680
 14A5 5C                mov X,A
 14A6 18                pop A
 14A7 7C0000            xcall _LCD_PrCString
 14AA                   .dbline 1300
 14AA           ; }
 14AA 5700              mov X,0
 14AC 5001              mov A,1
 14AE 7C0000            xcall _LCD_Position
 14B1 20                pop X
 14B2                   .dbline 1301
 14B2           ; }
 14B2 62D000            mov REG[0xd0],>_Alimentacion
 14B5 3C0000            cmp [_Alimentacion],0
 14B8 B00F              jnz L681
 14BA                   .dbline 1301
 14BA 10                push X
 14BB 5053              mov A,>L151
 14BD 08                push A
 14BE 5053              mov A,<L151
 14C0 5C                mov X,A
 14C1 18                pop A
 14C2 7C0000            xcall _LCD_PrCString
 14C5 20                pop X
 14C6 800D              xjmp L682
 14C8           L681:
 14C8                   .dbline 1302
 14C8           ; }
 14C8 10                push X
 14C9 5050              mov A,>L152
 14CB 08                push A
 14CC 5050              mov A,<L152
 14CE 5C                mov X,A
 14CF 18                pop A
 14D0 7C0000            xcall _LCD_PrCString
 14D3 20                pop X
 14D4           L682:
 14D4                   .dbline 1303
 14D4           ; }
 14D4 7C00E8            xcall _bucle_temp
 14D7                   .dbline 1304
 14D7           ; }
 14D7 7C018A            xcall _Pulsador
 14DA 5400              mov [X+0],A
 14DC                   .dbline 1305
 14DC           ; }
 14DC 62D000            mov REG[0xd0],>_Buzzer
 14DF 3C0001            cmp [_Buzzer],1
 14E2 B004              jnz L683
 14E4                   .dbline 1305
 14E4 7C0139            xcall _Pitido
 14E7           L683:
 14E7                   .dbline 1306
 14E7           ; }
 14E7 3D0001            cmp [X+0],1
 14EA A006              jz L687
 14EC 3D0002            cmp [X+0],2
 14EF B00A              jnz L685
 14F1           L687:
 14F1                   .dbline 1307
 14F1           ; }
 14F1                   .dbline 1308
 14F1           ; }
 14F1 5D00              mov A,REG[ 0]
 14F3 62D000            mov REG[0xd0],>__r0
 14F6 6000              mov REG[ 0],A
 14F8                   .dbline 1309
 14F8           ; }
 14F8 801F              xjmp L686
 14FA           L685:
 14FA                   .dbline 1310
 14FA           ; }
 14FA 3D0003            cmp [X+0],3
 14FD B01A              jnz L688
 14FF                   .dbline 1311
 14FF           ; }
 14FF                   .dbline 1312
 14FF           ; }
 14FF 62D000            mov REG[0xd0],>_Alimentacion
 1502 3C0000            cmp [_Alimentacion],0
 1505 B009              jnz L690
 1507                   .dbline 1313
 1507           ; }
 1507                   .dbline 1314
 1507           ; }
 1507 430010            or REG[ 0],16
 150A                   .dbline 1315
 150A           ; }
 150A 550001            mov [_Alimentacion],1
 150D                   .dbline 1316
 150D           ; }
 150D 800A              xjmp L691
 150F           L690:
 150F                   .dbline 1318
 150F           ; }
 150F           ; }
 150F                   .dbline 1319
 150F           ; }
 150F 4100EF            and REG[ 0],-17
 1512                   .dbline 1320
 1512           ; }
 1512 62D000            mov REG[0xd0],>_Alimentacion
 1515 550000            mov [_Alimentacion],0
 1518                   .dbline 1321
 1518           ; }
 1518           L691:
 1518                   .dbline 1322
 1518           ; }
 1518           L688:
 1518           L686:
 1518                   .dbline 1323
 1518           L678:
 1518                   .dbline 1323
 1518           ; }
 1518 3D0004            cmp [X+0],4
 151B BF7E              jnz L677
 151D                   .dbline -2
 151D                   .dbline 1324
 151D           ; }
 151D           L676:
 151D 38FD              add SP,-3
 151F 20                pop X
 1520                   .dbline 0 ; func end
 1520 7F                ret
 1521                   .dbsym l x 1 i
 1521                   .dbsym l pulsat 0 c
 1521                   .dbend
 1521                   .dbfile ./main.c
 1521                   .dbfunc e main _main fV
 1521           _main::
 1521                   .dbline -1
 1521                   .dbline 15
 1521                   .dbline 16
 1521 7C009E            xcall _Inicializacion
 1524                   .dbline 17
 1524 7C00BC            xcall _Bienvenida
 1527                   .dbline 18
 1527           L693:
 1527                   .dbline 18
 1527 7C011C            xcall _Principal
 152A                   .dbline 18
 152A                   .dbline 18
 152A 8FFC              xjmp L693
 152C           X30:
 152C                   .dbline -2
 152C           L692:
 152C                   .dbline 0 ; func end
 152C 8FFF              jmp .
 152E                   .dbend
                        .area lit(rom, con, rel)
 0000           L680:
 0000 3E4C6564206465206D617263686100    .byte 62,'L,'e,'d,32,'d,'e,32,'m,'a,'r,'c,'h,'a,0
 000F           L664:
 000F 3E50697469646F20696E7465726E6F00  .byte 62,'P,'i,'t,'i,'d,'o,32,'i,'n,'t,'e,'r,'n,'o,0
 001F           L648:
 001F 3E4C757A204C434400        .byte 62,'L,'u,'z,32,'L,'C,'D,0
 0028           L625:
 0028 332D4C6564206465206D617263686100  .byte 51,45,'L,'e,'d,32,'d,'e,32,'m,'a,'r,'c,'h,'a,0
 0038           L622:
 0038 322D50697469646F20696E7465726E6F  .byte 50,45,'P,'i,'t,'i,'d,'o,32,'i,'n,'t,'e,'r,'n,'o
 0048 00                .byte 0
 0049           L619:
 0049 312D4C757A204C434400      .byte 49,45,'L,'u,'z,32,'L,'C,'D,0
 0053           L616:
 0053 3E436F6E662E2053697374656D6100    .byte 62,'C,'o,'n,'f,46,32,'S,'i,'s,'t,'e,'m,'a,0
 0062           L606:
 0062 54726162616A6F2070617261646F00    .byte 'T,'r,'a,'b,'a,'j,'o,32,'p,'a,'r,'a,'d,'o,0
 0071           L599:
 0071 4D616E74656E657220416D6172696C6C  .byte 'M,'a,'n,'t,'e,'n,'e,'r,32,'A,'m,'a,'r,'i,'l,'l
 0081 6F00              .byte 'o,0
 0083           L598:
 0083 5175696572652070617261726C6F3F00  .byte 'Q,'u,'i,'e,'r,'e,32,'p,'a,'r,'a,'r,'l,'o,63,0
 0093           L583:
 0093 50686F746F534F432061637469766F00  .byte 'P,'h,'o,'t,'o,'S,'O,'C,32,'a,'c,'t,'i,'v,'o,0
 00A3           L563:
 00A3 312D41686F726100  .byte 49,45,'A,'h,'o,'r,'a,0
 00AB           L562:
 00AB 3E456A65637574617200      .byte 62,'E,'j,'e,'c,'u,'t,'a,'r,0
 00B5           L545:
 00B5 486F72617300      .byte 'H,'o,'r,'a,'s,0
 00BB           L542:
 00BB 4D696E75746F7300  .byte 'M,'i,'n,'u,'t,'o,'s,0
 00C3           L539:
 00C3 536567756E646F7300        .byte 'S,'e,'g,'u,'n,'d,'o,'s,0
 00CC           L536:
 00CC 3E556E692E206465207469656D706F00  .byte 62,'U,'n,'i,46,32,'d,'e,32,'t,'i,'e,'m,'p,'o,0
 00DC           L515:
 00DC 3E4E756D65726F20312D31303000      .byte 62,'N,'u,'m,'e,'r,'o,32,49,45,49,48,48,0
 00EA           L486:
 00EA 5469656D706F20766964656F00        .byte 'T,'i,'e,'m,'p,'o,32,'v,'i,'d,'e,'o,0
 00F7           L483:
 00F7 5469656D706F207265616C00  .byte 'T,'i,'e,'m,'p,'o,32,'r,'e,'a,'l,0
 0103           L480:
 0103 3E54696D65204C6170736500  .byte 62,'T,'i,'m,'e,32,'L,'a,'p,'s,'e,0
 010F           L447:
 010F 4E756D65726F20646520666F746F7300  .byte 'N,'u,'m,'e,'r,'o,32,'d,'e,32,'f,'o,'t,'o,'s,0
 011F           L444:
 011F 5420656E74726520666F746F00        .byte 'T,32,'e,'n,'t,'r,'e,32,'f,'o,'t,'o,0
 012C           L441:
 012C 3E496E74657276616C6F6D6574726F00  .byte 62,'I,'n,'t,'e,'r,'v,'a,'l,'o,'m,'e,'t,'r,'o,0
 013C           L401:
 013C 3E5469706F20646520646973702E00    .byte 62,'T,'i,'p,'o,32,'d,'e,32,'d,'i,'s,'p,46,0
 014B           L377:
 014B 3E43616D617261203200      .byte 62,'C,'a,'m,'a,'r,'a,32,50,0
 0155           L365:
 0155 54696D65204C6170736500    .byte 'T,'i,'m,'e,32,'L,'a,'p,'s,'e,0
 0160           L362:
 0160 496E74657276616C6F6D6574726F00    .byte 'I,'n,'t,'e,'r,'v,'a,'l,'o,'m,'e,'t,'r,'o,0
 016F           L359:
 016F 446973702E20556E69636F00  .byte 'D,'i,'s,'p,46,32,'U,'n,'i,'c,'o,0
 017B           L356:
 017B 4E6F206469737061726100    .byte 'N,'o,32,'d,'i,'s,'p,'a,'r,'a,0
 0186           L353:
 0186 3E43616D617261203100      .byte 62,'C,'a,'m,'a,'r,'a,32,49,0
 0190           L332:
 0190 322D43616D617261203200    .byte 50,45,'C,'a,'m,'a,'r,'a,32,50,0
 019B           L329:
 019B 312D43616D617261203100    .byte 49,45,'C,'a,'m,'a,'r,'a,32,49,0
 01A6           L326:
 01A6 3E436F6E662E204469737061726F00    .byte 62,'C,'o,'n,'f,46,32,'D,'i,'s,'p,'a,'r,'o,0
 01B5           L310:
 01B5 3E466C617368203400        .byte 62,'F,'l,'a,'s,'h,32,52,0
 01BE           L294:
 01BE 3E466C617368203300        .byte 62,'F,'l,'a,'s,'h,32,51,0
 01C7           L278:
 01C7 3E466C617368203200        .byte 62,'F,'l,'a,'s,'h,32,50,0
 01D0           L262:
 01D0 3E466C617368203100        .byte 62,'F,'l,'a,'s,'h,32,49,0
 01D9           L237:
 01D9 2020284F66662900  .byte 32,32,40,'O,'f,'f,41,0
 01E1           L234:
 01E1 342D466C617368203400      .byte 52,45,'F,'l,'a,'s,'h,32,52,0
 01EB           L229:
 01EB 332D466C617368203300      .byte 51,45,'F,'l,'a,'s,'h,32,51,0
 01F5           L224:
 01F5 322D466C617368203200      .byte 50,45,'F,'l,'a,'s,'h,32,50,0
 01FF           L221:
 01FF 20284F6E2900      .byte 32,40,'O,'n,41,0
 0205           L220:
 0205 20284F66662900    .byte 32,40,'O,'f,'f,41,0
 020C           L217:
 020C 312D466C617368203100      .byte 49,45,'F,'l,'a,'s,'h,32,49,0
 0216           L214:
 0216 3E436F6E662E20466C617368657300    .byte 62,'C,'o,'n,'f,46,32,'F,'l,'a,'s,'h,'e,'s,0
 0225           L198:
 0225 3E4469676974616C203220355600      .byte 62,'D,'i,'g,'i,'t,'a,'l,32,50,32,53,'V,0
 0233           L182:
 0233 3E4469676974616C203120355600      .byte 62,'D,'i,'g,'i,'t,'a,'l,32,49,32,53,'V,0
 0241           L166:
 0241 3E4261727265726120322031325600    .byte 62,'B,'a,'r,'r,'e,'r,'a,32,50,32,49,50,'V,0
 0250           L152:
 0250 4F4E00            .byte 'O,'N,0
 0253           L151:
 0253 4F464600          .byte 'O,'F,'F,0
 0257           L148:
 0257 3E4261727265726120312031325600    .byte 62,'B,'a,'r,'r,'e,'r,'a,32,49,32,49,50,'V,0
 0266           L123:
 0266 342D4469676974616C203220355600    .byte 52,45,'D,'i,'g,'i,'t,'a,'l,32,50,32,53,'V,0
 0275           L120:
 0275 332D4469676974616C203120355600    .byte 51,45,'D,'i,'g,'i,'t,'a,'l,32,49,32,53,'V,0
 0284           L117:
 0284 322D4261727265726120322031325600  .byte 50,45,'B,'a,'r,'r,'e,'r,'a,32,50,32,49,50,'V,0
 0294           L114:
 0294 312D4261727265726120312031325600  .byte 49,45,'B,'a,'r,'r,'e,'r,'a,32,49,32,49,50,'V,0
 02A4           L111:
 02A4 3E436F6E662E2053656E736F72657300  .byte 62,'C,'o,'n,'f,46,32,'S,'e,'n,'s,'o,'r,'e,'s,0
 02B4           L84:
 02B4 352D436F6E662E2053697374656D6100  .byte 53,45,'C,'o,'n,'f,46,32,'S,'i,'s,'t,'e,'m,'a,0
 02C4           L81:
 02C4 342D456A65637574617200    .byte 52,45,'E,'j,'e,'c,'u,'t,'a,'r,0
 02CF           L78:
 02CF 332D436F6E662E204469737061726F00  .byte 51,45,'C,'o,'n,'f,46,32,'D,'i,'s,'p,'a,'r,'o,0
 02DF           L75:
 02DF 322D436F6E662E20466C617368657300  .byte 50,45,'C,'o,'n,'f,46,32,'F,'l,'a,'s,'h,'e,'s,0
 02EF           L72:
 02EF 312D436F6E662E2053656E736F726573  .byte 49,45,'C,'o,'n,'f,46,32,'S,'e,'n,'s,'o,'r,'e,'s
 02FF 00                .byte 0
 0300           L69:
 0300 3E4D656E75205072696E636970616C00  .byte 62,'M,'e,'n,'u,32,'P,'r,'i,'n,'c,'i,'p,'a,'l,0
 0310           L20:
 0310 61202050686F746F536F4300  .byte 'a,32,32,'P,'h,'o,'t,'o,'S,'o,'C,0
 031C           L19:
 031C 4269656E76656E69646F7300  .byte 'B,'i,'e,'n,'v,'e,'n,'i,'d,'o,'s,0
