 0000                   cpu LMM
                        .module main.c
                        .area data(ram, con, rel)
 0000           _Luz_LCD::
 0000 00                .byte 0
 0001                   .dbfile ./terminal.h
 0001                   .dbsym e Luz_LCD _Luz_LCD c
                        .area data(ram, con, rel)
 0000                   .dbfile ./terminal.h
                        .area data(ram, con, rel)
 0000                   .dbfile ./terminal.h
 0000           _Buzzer::
 0000 00                .byte 0
 0001                   .dbsym e Buzzer _Buzzer c
                        .area data(ram, con, rel)
 0000                   .dbfile ./terminal.h
                        .area data(ram, con, rel)
 0000                   .dbfile ./terminal.h
 0000           _Alimentacion::
 0000 00                .byte 0
 0001                   .dbsym e Alimentacion _Alimentacion c
                        .area data(ram, con, rel)
 0000                   .dbfile ./terminal.h
                        .area data(ram, con, rel)
 0000                   .dbfile ./terminal.h
 0000           _Ent1::
 0000 00                .byte 0
 0001                   .dbsym e Ent1 _Ent1 c
                        .area data(ram, con, rel)
 0000                   .dbfile ./terminal.h
                        .area data(ram, con, rel)
 0000                   .dbfile ./terminal.h
 0000           _Ent2::
 0000 00                .byte 0
 0001                   .dbsym e Ent2 _Ent2 c
                        .area data(ram, con, rel)
 0000                   .dbfile ./terminal.h
                        .area data(ram, con, rel)
 0000                   .dbfile ./terminal.h
 0000           _Ent3::
 0000 00                .byte 0
 0001                   .dbsym e Ent3 _Ent3 c
                        .area data(ram, con, rel)
 0000                   .dbfile ./terminal.h
                        .area data(ram, con, rel)
 0000                   .dbfile ./terminal.h
 0000           _Ent4::
 0000 00                .byte 0
 0001                   .dbsym e Ent4 _Ent4 c
                        .area data(ram, con, rel)
 0000                   .dbfile ./terminal.h
                        .area data(ram, con, rel)
 0000                   .dbfile ./terminal.h
 0000           _Fla1::
 0000 00                .byte 0
 0001                   .dbsym e Fla1 _Fla1 c
                        .area data(ram, con, rel)
 0000                   .dbfile ./terminal.h
                        .area data(ram, con, rel)
 0000                   .dbfile ./terminal.h
 0000           _Fla2::
 0000 00                .byte 0
 0001                   .dbsym e Fla2 _Fla2 c
                        .area data(ram, con, rel)
 0000                   .dbfile ./terminal.h
                        .area data(ram, con, rel)
 0000                   .dbfile ./terminal.h
 0000           _Fla3::
 0000 00                .byte 0
 0001                   .dbsym e Fla3 _Fla3 c
                        .area data(ram, con, rel)
 0000                   .dbfile ./terminal.h
                        .area data(ram, con, rel)
 0000                   .dbfile ./terminal.h
 0000           _Fla4::
 0000 00                .byte 0
 0001                   .dbsym e Fla4 _Fla4 c
                        .area data(ram, con, rel)
 0000                   .dbfile ./terminal.h
                        .area data(ram, con, rel)
 0000                   .dbfile ./terminal.h
 0000           _Cam1::
 0000 00                .byte 0
 0001                   .dbsym e Cam1 _Cam1 c
                        .area data(ram, con, rel)
 0000                   .dbfile ./terminal.h
                        .area data(ram, con, rel)
 0000                   .dbfile ./terminal.h
 0000           _Cam2::
 0000 00                .byte 0
 0001                   .dbsym e Cam2 _Cam2 c
                        .area data(ram, con, rel)
 0000                   .dbfile ./terminal.h
                        .area data(ram, con, rel)
 0000                   .dbfile ./terminal.h
 0000           _Inter1::
 0000 00                .byte 0
 0001                   .dbsym e Inter1 _Inter1 c
                        .area data(ram, con, rel)
 0000                   .dbfile ./terminal.h
                        .area data(ram, con, rel)
 0000                   .dbfile ./terminal.h
 0000           _Tilap1::
 0000 00                .byte 0
 0001                   .dbsym e Tilap1 _Tilap1 c
                        .area data(ram, con, rel)
 0000                   .dbfile ./terminal.h
                        .area data(ram, con, rel)
 0000                   .dbfile ./terminal.h
 0000           _Inter2::
 0000 00                .byte 0
 0001                   .dbsym e Inter2 _Inter2 c
                        .area data(ram, con, rel)
 0000                   .dbfile ./terminal.h
                        .area data(ram, con, rel)
 0000                   .dbfile ./terminal.h
 0000           _Tilap2::
 0000 00                .byte 0
 0001                   .dbsym e Tilap2 _Tilap2 c
                        .area data(ram, con, rel)
 0000                   .dbfile ./terminal.h
                        .area text(rom, con, rel)
 0000                   .dbfile ./terminal.h
 0000                   .dbfunc e bucle_temp _bucle_temp fV
 0000           ;              x -> X+0
 0000           _bucle_temp::
 0000                   .dbline -1
 0000 10                push X
 0001 4F                mov X,SP
 0002 3802              add SP,2
 0004                   .dbline 46
 0004           ; //----------------------------------------------------------------//
 0004           ; //     Proyecto de GS Desarrollo Productos Electronicos EPSS    //
 0004           ; //                   By Albert Sagol & Xavi Vicient                         //
 0004           ; //                 PhotoSoC - Controlador fotográfico                   //
 0004           ; //----------------------------------------------------------------//
 0004           ; 
 0004           ; #include <m8c.h>        // part specific constants and macros
 0004           ; #include "PSoCAPI.h"    // PSoC API definitions for all User Modules
 0004           ; #include "stdlib.h"
 0004           ; #include "terminal.h" // Libreria creada por Albert y Xavi para el proyecto
 0004           ; 
 0004           ; 
 0004           ; void main()
 0004           ; {     char x;
 0004           ;       int xx;
 0004           ; 
 0004           ; //- Inicializacion de parametros basicos del sistema al encender      
 0004           ;       Timer8_WritePeriod(156);                //Este valor es Fosc/Baudios/8
 0004           ;       Timer8_WriteCompareValue(156/2);
 0004           ;       Timer8_Start();
 0004           ;       
 0004           ;       LCD_Start();
 0004           ;       LCD_Init();
 0004           ; 
 0004           ;       UART_Start(UART_PARITY_NONE);
 0004           ;       PRT0DR=0xA0;    // Conectem las resistencias de pull-up
 0004           ; 
 0004           ; //- Inicializacion de parametros modificables al encender
 0004           ;       PRT0DR=PRT0DR & 0xE1;   //Apago la alrma del Buzzer, Realimentacion de LCD, Led de alimentacion y la pata de reset
 0004           ;                                                       //Aprovechamos para conectar las resistencias de pull-up
 0004           ;       
 0004           ;       
 0004           ;       for (;;) Principal();           //Programa principal del PSoC terminal del PhotoSOC
 0004           ;               
 0004           ;               
 0004           ;               /* Elementos de testeo o para utilizar
 0004           ;               
 0004           ;               - implementar como realimentacion del LCD
 0004           ;               PRT2DR=PRT2DR | 0x80;           //reali del LCD
 0004           ;               
 0004           ;               - Comprovacion de comunicacion con UART y que lo muestre por el LCD
 0004           ;               UART_CPutString("");    //Para cadenas de carateres 
 0004           ;               UART_PutChar();                 //Para valores tipo char
 0004           ;               x=UART_cGetChar();  //Esta se espera a que llegue un byte. Ver tambien UART_cReadChar()
 0004           ;               LCD_WriteData(x);
 0004           ;               
 0004                   .dbline 49
 0004 560100            mov [X+1],0
 0007 560000            mov [X+0],0
 000A 8006              xjmp L5
 000C           L2:
 000C                   .dbline 49
 000C           L3:
 000C                   .dbline 49
 000C 7701              inc [X+1]
 000E 0F0000            adc [X+0],0
 0011           L5:
 0011                   .dbline 49
 0011           ;               - Saber si ha llegado a cierto punto
 0011           ;               LCD_Control(0x01);
 0011           ;               LCD_PrCString("prueba");
 0011 62D000            mov REG[0xd0],>__r0
 0014 5201              mov A,[X+1]
 0016 5300              mov [__r3],A
 0018 5200              mov A,[X+0]
 001A 5300              mov [__r2],A
 001C 5100              mov A,[__r3]
 001E 11B8              sub A,-72
 0020 5100              mov A,[__r2]
 0022 1988              sbb A,-120
 0024 5000              mov A,0
 0026 1900              sbb A,0
 0028 5000              mov A,0
 002A 3180              xor A,-128
 002C 1980              sbb A,(0 ^ 0x80)
 002E CFDD              jc L2
 0030           X0:
 0030                   .dbline -2
 0030                   .dbline 50
 0030           ;               for(x=0;x<50000;x++);
 0030           L1:
 0030 38FE              add SP,-2
 0032 20                pop X
 0033                   .dbline 0 ; func end
 0033 7F                ret
 0034                   .dbsym l x 0 i
 0034                   .dbend
 0034                   .dbfunc e Pitido _Pitido fV
 0034           ;             xx -> X+0
 0034           _Pitido::
 0034                   .dbline -1
 0034 10                push X
 0035 4F                mov X,SP
 0036 3802              add SP,2
 0038                   .dbline 59
 0038           ;               
 0038           ;               - Detectar cierto numero y que lo muestre por el LCD            
 0038           ;               LCD_Control(0x01);
 0038           ;               LCD_WriteData(+48);
 0038           ;               for(x=0;x<50000;x++);
 0038           ;               */              
 0038           ; }
 0038           ; }
 0038           ; }
 0038                   .dbline 62
 0038           ; }
 0038           ; }
 0038           ; }
 0038 430008            or REG[ 0],8
 003B                   .dbline 63
 003B 560100            mov [X+1],0
 003E 560000            mov [X+0],0
 0041           L7:
 0041                   .dbline 63
 0041 5D00              mov A,REG[ 0]
 0043 62D000            mov REG[0xd0],>__r0
 0046 6000              mov REG[ 0],A
 0048           L8:
 0048                   .dbline 63
 0048           ; }
 0048 7701              inc [X+1]
 004A 0F0000            adc [X+0],0
 004D                   .dbline 63
 004D 5201              mov A,[X+1]
 004F 11A0              sub A,-96
 0051 5200              mov A,[X+0]
 0053 3180              xor A,-128
 0055 198F              sbb A,(15 ^ 0x80)
 0057 CFE9              jc L7
 0059           X1:
 0059                   .dbline 64
 0059           ; }
 0059 4100F7            and REG[ 0],-9
 005C                   .dbline -2
 005C                   .dbline 65
 005C           ; }
 005C           L6:
 005C 38FE              add SP,-2
 005E 20                pop X
 005F                   .dbline 0 ; func end
 005F 7F                ret
 0060                   .dbsym l xx 0 I
 0060                   .dbend
 0060                   .dbfunc e Reset_PdT _Reset_PdT fV
 0060           ;              x -> X+0
 0060           _Reset_PdT::
 0060                   .dbline -1
 0060 10                push X
 0061 4F                mov X,SP
 0062 3802              add SP,2
 0064                   .dbline 74
 0064           ; }
 0064           ; }
 0064           ; }
 0064           ; }
 0064           ; }
 0064           ; }
 0064           ; }
 0064           ; }
 0064           ; }
 0064                   .dbline 77
 0064           ; }
 0064           ; }
 0064           ; }
 0064 430004            or REG[ 0],4
 0067                   .dbline 78
 0067 560100            mov [X+1],0
 006A 560000            mov [X+0],0
 006D           L12:
 006D                   .dbline 78
 006D           L13:
 006D                   .dbline 78
 006D           ; }
 006D 7701              inc [X+1]
 006F 0F0000            adc [X+0],0
 0072                   .dbline 78
 0072 5201              mov A,[X+1]
 0074 11F4              sub A,-12
 0076 5200              mov A,[X+0]
 0078 3180              xor A,-128
 007A 1981              sbb A,(1 ^ 0x80)
 007C CFF0              jc L12
 007E           X2:
 007E                   .dbline 79
 007E           ; }
 007E 4100FB            and REG[ 0],-5
 0081                   .dbline 80
 0081 560100            mov [X+1],0
 0084 560000            mov [X+0],0
 0087           L16:
 0087                   .dbline 80
 0087           L17:
 0087                   .dbline 80
 0087           ; }
 0087 7701              inc [X+1]
 0089 0F0000            adc [X+0],0
 008C                   .dbline 80
 008C 5201              mov A,[X+1]
 008E 11F4              sub A,-12
 0090 5200              mov A,[X+0]
 0092 3180              xor A,-128
 0094 1981              sbb A,(1 ^ 0x80)
 0096 CFF0              jc L16
 0098           X3:
 0098                   .dbline -2
 0098                   .dbline 81
 0098           ; }
 0098           L11:
 0098 38FE              add SP,-2
 009A 20                pop X
 009B                   .dbline 0 ; func end
 009B 7F                ret
 009C                   .dbsym l x 0 I
 009C                   .dbend
 009C                   .dbfunc e Pulsador _Pulsador fc
 009C           ;        pulsado -> X+2
 009C           ;              x -> X+0
 009C           _Pulsador::
 009C                   .dbline -1
 009C 10                push X
 009D 4F                mov X,SP
 009E 3803              add SP,3
 00A0                   .dbline 94
 00A0           ; }
 00A0           ; }
 00A0           ; }
 00A0           ; }
 00A0           ; }
 00A0           ; }
 00A0           ; }
 00A0           ; }
 00A0           ; }
 00A0           ; }
 00A0           ; }
 00A0           ; }
 00A0           ; }
 00A0                   .dbline 98
 00A0           ; }
 00A0           ; }
 00A0           ; }
 00A0           ; }
 00A0 560200            mov [X+2],0
 00A3           L21:
 00A3                   .dbline 102
 00A3           ; }
 00A3           ; }
 00A3           ; }
 00A3           ; }
 00A3                   .dbline 103
 00A3           ; }
 00A3 5D00              mov A,REG[ 0]
 00A5 62D000            mov REG[0xd0],>__r0
 00A8 5300              mov [__r0],A
 00AA 2600A0            and [__r0],-96
 00AD 3C0020            cmp [__r0],32
 00B0 B004              jnz L24
 00B2                   .dbline 103
 00B2 560201            mov [X+2],1
 00B5           L24:
 00B5                   .dbline 104
 00B5           ; }
 00B5 5D00              mov A,REG[ 0]
 00B7 62D000            mov REG[0xd0],>__r0
 00BA 5300              mov [__r0],A
 00BC 2600A0            and [__r0],-96
 00BF 3C0080            cmp [__r0],-128
 00C2 B004              jnz L26
 00C4                   .dbline 104
 00C4 560202            mov [X+2],2
 00C7           L26:
 00C7                   .dbline 105
 00C7           ; }
 00C7 3D0200            cmp [X+2],0
 00CA A048              jz L28
 00CC                   .dbline 106
 00CC           ; }
 00CC                   .dbline 107
 00CC 560100            mov [X+1],0
 00CF 560000            mov [X+0],0
 00D2 8006              xjmp L33
 00D4           L30:
 00D4                   .dbline 107
 00D4           L31:
 00D4                   .dbline 107
 00D4 7701              inc [X+1]
 00D6 0F0000            adc [X+0],0
 00D9           L33:
 00D9                   .dbline 107
 00D9           ; }
 00D9 5201              mov A,[X+1]
 00DB 1164              sub A,100
 00DD 5200              mov A,[X+0]
 00DF 1900              sbb A,0
 00E1 CFF2              jc L30
 00E3           X4:
 00E3                   .dbline 108
 00E3           ; }
 00E3 560100            mov [X+1],0
 00E6 560000            mov [X+0],0
 00E9 801C              xjmp L37
 00EB           L34:
 00EB                   .dbline 109
 00EB           ; }
 00EB                   .dbline 110
 00EB           ; }
 00EB 5D00              mov A,REG[ 0]
 00ED 62D000            mov REG[0xd0],>__r0
 00F0 5300              mov [__r0],A
 00F2 2600A0            and [__r0],-96
 00F5 3C00A0            cmp [__r0],-96
 00F8 B005              jnz L38
 00FA                   .dbline 110
 00FA 5202              mov A,[X+2]
 00FC 8020              xjmp L20
 00FE           L38:
 00FE                   .dbline 111
 00FE 4300A0            or REG[ 0],-96
 0101                   .dbline 112
 0101           L35:
 0101                   .dbline 108
 0101 7701              inc [X+1]
 0103 0F0000            adc [X+0],0
 0106           L37:
 0106                   .dbline 108
 0106 5201              mov A,[X+1]
 0108 1130              sub A,48
 010A 5200              mov A,[X+0]
 010C 1975              sbb A,117
 010E CFDC              jc L34
 0110           X5:
 0110                   .dbline 113
 0110           ; }
 0110           ; }
 0110           ; }
 0110 070202            add [X+2],2
 0113                   .dbline 114
 0113           ; }
 0113           L28:
 0113                   .dbline 115
 0113           L22:
 0113                   .dbline 115
 0113           ; }
 0113 3D0200            cmp [X+2],0
 0116 AF8C              jz L21
 0118                   .dbline 116
 0118           ; }
 0118 5202              mov A,[X+2]
 011A 62D000            mov REG[0xd0],>__r0
 011D                   .dbline -2
 011D           L20:
 011D 38FD              add SP,-3
 011F 20                pop X
 0120                   .dbline 0 ; func end
 0120 7F                ret
 0121                   .dbsym l pulsado 2 c
 0121                   .dbsym l x 0 i
 0121                   .dbend
 0121                   .dbfunc e Principal _Principal fV
 0121           ;              x -> X+1
 0121           ;          boton -> X+0
 0121           _Principal::
 0121                   .dbline -1
 0121 10                push X
 0122 4F                mov X,SP
 0123 3803              add SP,3
 0125                   .dbline 127
 0125           ; }
 0125           ; }
 0125           ; }
 0125           ; }
 0125           ; }
 0125           ; }
 0125           ; }
 0125           ; }
 0125           ; }
 0125           ; }
 0125           ; }
 0125                   .dbline 131
 0125           ; }
 0125           ; }
 0125           ; }
 0125           ; }
 0125 10                push X
 0126 5001              mov A,1
 0128 7C0000            xcall _LCD_Control
 012B                   .dbline 132
 012B           ; }
 012B 5701              mov X,1
 012D 5000              mov A,0
 012F 7C0000            xcall _LCD_Position
 0132                   .dbline 133
 0132           ; }
 0132 50A0              mov A,>L41
 0134 08                push A
 0135 50A0              mov A,<L41
 0137 5C                mov X,A
 0138 18                pop A
 0139 7C0000            xcall _LCD_PrCString
 013C                   .dbline 134
 013C           ; }
 013C 5703              mov X,3
 013E 5001              mov A,1
 0140 7C0000            xcall _LCD_Position
 0143                   .dbline 135
 0143           ; }
 0143 5094              mov A,>L42
 0145 08                push A
 0146 5094              mov A,<L42
 0148 5C                mov X,A
 0149 18                pop A
 014A 7C0000            xcall _LCD_PrCString
 014D 20                pop X
 014E                   .dbline 136
 014E           ; }
 014E 9EB0              xcall _bucle_temp
 0150                   .dbline 137
 0150           ; }
 0150 9F4A              xcall _Pulsador
 0152 5400              mov [X+0],A
 0154                   .dbline 138
 0154           ; }
 0154 62D000            mov REG[0xd0],>_Buzzer
 0157 3C0001            cmp [_Buzzer],1
 015A B003              jnz L43
 015C                   .dbline 138
 015C 9ED6              xcall _Pitido
 015E           L43:
 015E                   .dbline 139
 015E 3D0000            cmp [X+0],0
 0161 A003              jz L45
 0163                   .dbline 140
 0163                   .dbline 141
 0163 9004              xcall _Menu
 0165                   .dbline 142
 0165           L45:
 0165                   .dbline -2
 0165                   .dbline 143
 0165           ; }
 0165           ; }
 0165           ; }
 0165           ; }
 0165           ; }
 0165           L40:
 0165 38FD              add SP,-3
 0167 20                pop X
 0168                   .dbline 0 ; func end
 0168 7F                ret
 0169                   .dbsym l x 1 i
 0169                   .dbsym l boton 0 c
 0169                   .dbend
 0169                   .dbfunc e Menu _Menu fV
 0169           ;              x -> X+2
 0169           ;         pulsat -> X+1
 0169           ;          index -> X+0
 0169           _Menu::
 0169                   .dbline -1
 0169 10                push X
 016A 4F                mov X,SP
 016B 3804              add SP,4
 016D                   .dbline 153
 016D           ; }
 016D           ; }
 016D           ; }
 016D           ; }
 016D           ; }
 016D           ; }
 016D           ; }
 016D           ; }
 016D           ; }
 016D           ; }
 016D                   .dbline 154
 016D           ; }
 016D 560001            mov [X+0],1
 0170           L48:
 0170                   .dbline 158
 0170           ; }
 0170           ; }
 0170           ; }
 0170           ; }
 0170                   .dbline 159
 0170           ; }
 0170 10                push X
 0171 5001              mov A,1
 0173 7C0000            xcall _LCD_Control
 0176                   .dbline 160
 0176           ; }
 0176 5084              mov A,>L51
 0178 08                push A
 0179 5084              mov A,<L51
 017B 5C                mov X,A
 017C 18                pop A
 017D 7C0000            xcall _LCD_PrCString
 0180                   .dbline 161
 0180           ; }
 0180 5700              mov X,0
 0182 5001              mov A,1
 0184 7C0000            xcall _LCD_Position
 0187 20                pop X
 0188                   .dbline 162
 0188           ; }
 0188 3D0001            cmp [X+0],1
 018B B00F              jnz L52
 018D                   .dbline 162
 018D 10                push X
 018E 5073              mov A,>L54
 0190 08                push A
 0191 5073              mov A,<L54
 0193 5C                mov X,A
 0194 18                pop A
 0195 7C0000            xcall _LCD_PrCString
 0198 20                pop X
 0199 804B              xjmp L53
 019B           L52:
 019B                   .dbline 163
 019B           ; }
 019B 3D0002            cmp [X+0],2
 019E B00F              jnz L55
 01A0                   .dbline 163
 01A0 10                push X
 01A1 5063              mov A,>L57
 01A3 08                push A
 01A4 5063              mov A,<L57
 01A6 5C                mov X,A
 01A7 18                pop A
 01A8 7C0000            xcall _LCD_PrCString
 01AB 20                pop X
 01AC 8038              xjmp L56
 01AE           L55:
 01AE                   .dbline 164
 01AE           ; }
 01AE 3D0003            cmp [X+0],3
 01B1 B00F              jnz L58
 01B3                   .dbline 164
 01B3 10                push X
 01B4 5053              mov A,>L60
 01B6 08                push A
 01B7 5053              mov A,<L60
 01B9 5C                mov X,A
 01BA 18                pop A
 01BB 7C0000            xcall _LCD_PrCString
 01BE 20                pop X
 01BF 8025              xjmp L59
 01C1           L58:
 01C1                   .dbline 165
 01C1           ; }
 01C1 3D0004            cmp [X+0],4
 01C4 B00F              jnz L61
 01C6                   .dbline 165
 01C6 10                push X
 01C7 5048              mov A,>L63
 01C9 08                push A
 01CA 5048              mov A,<L63
 01CC 5C                mov X,A
 01CD 18                pop A
 01CE 7C0000            xcall _LCD_PrCString
 01D1 20                pop X
 01D2 8012              xjmp L62
 01D4           L61:
 01D4                   .dbline 166
 01D4           ; }
 01D4 3D0005            cmp [X+0],5
 01D7 B00D              jnz L64
 01D9                   .dbline 166
 01D9 10                push X
 01DA 5038              mov A,>L66
 01DC 08                push A
 01DD 5038              mov A,<L66
 01DF 5C                mov X,A
 01E0 18                pop A
 01E1 7C0000            xcall _LCD_PrCString
 01E4 20                pop X
 01E5           L64:
 01E5           L62:
 01E5           L59:
 01E5           L56:
 01E5           L53:
 01E5                   .dbline 167
 01E5           ; }
 01E5 9E19              xcall _bucle_temp
 01E7                   .dbline 168
 01E7           ; }
 01E7 9EB3              xcall _Pulsador
 01E9 5401              mov [X+1],A
 01EB                   .dbline 169
 01EB           ; }
 01EB 62D000            mov REG[0xd0],>_Buzzer
 01EE 3C0001            cmp [_Buzzer],1
 01F1 B003              jnz L67
 01F3                   .dbline 169
 01F3 9E3F              xcall _Pitido
 01F5           L67:
 01F5                   .dbline 170
 01F5           ; }
 01F5 3D0101            cmp [X+1],1
 01F8 B019              jnz L69
 01FA                   .dbline 171
 01FA           ; }
 01FA                   .dbline 172
 01FA           ; }
 01FA 62D000            mov REG[0xd0],>__r0
 01FD 5200              mov A,[X+0]
 01FF 0101              add A,1
 0201 5300              mov [__r0],A
 0203 5005              mov A,5
 0205 3A00              cmp A,[__r0]
 0207 D006              jnc L71
 0209           X6:
 0209                   .dbline 172
 0209 560001            mov [X+0],1
 020C 8050              xjmp L70
 020E           L71:
 020E                   .dbline 173
 020E           ; }
 020E 7700              inc [X+0]
 0210                   .dbline 174
 0210           ; }
 0210 804C              xjmp L70
 0212           L69:
 0212                   .dbline 175
 0212           ; }
 0212 3D0103            cmp [X+1],3
 0215 B030              jnz L73
 0217                   .dbline 176
 0217           ; }
 0217                   .dbline 177
 0217           ; }
 0217 3D0001            cmp [X+0],1
 021A B005              jnz L75
 021C                   .dbline 177
 021C 9048              xcall _Sensors
 021E 803E              xjmp L74
 0220           L75:
 0220                   .dbline 178
 0220           ; }
 0220 3D0002            cmp [X+0],2
 0223 B005              jnz L77
 0225                   .dbline 178
 0225 9326              xcall _Flashes
 0227 8035              xjmp L74
 0229           L77:
 0229                   .dbline 179
 0229           ; }
 0229 3D0003            cmp [X+0],3
 022C B005              jnz L79
 022E                   .dbline 179
 022E 968E              xcall _Dispar
 0230 802C              xjmp L74
 0232           L79:
 0232                   .dbline 180
 0232           ; }
 0232 3D0004            cmp [X+0],4
 0235 B006              jnz L81
 0237                   .dbline 180
 0237 7C0C91            xcall _Executar
 023A 8022              xjmp L74
 023C           L81:
 023C                   .dbline 181
 023C           ; }
 023C 3D0005            cmp [X+0],5
 023F B01D              jnz L74
 0241                   .dbline 181
 0241 7C0DA9            xcall _Sistema
 0244                   .dbline 182
 0244           ; }
 0244 8018              xjmp L74
 0246           L73:
 0246                   .dbline 183
 0246           ; }
 0246 3D0102            cmp [X+1],2
 0249 B013              jnz L85
 024B                   .dbline 184
 024B           ; }
 024B                   .dbline 185
 024B           ; }
 024B 62D000            mov REG[0xd0],>__r0
 024E 5200              mov A,[X+0]
 0250 1101              sub A,1
 0252 3901              cmp A,1
 0254 D006              jnc L87
 0256           X7:
 0256                   .dbline 185
 0256 560005            mov [X+0],5
 0259 8003              xjmp L88
 025B           L87:
 025B                   .dbline 186
 025B           ; }
 025B 7B00              dec [X+0]
 025D           L88:
 025D                   .dbline 187
 025D           ; }
 025D           L85:
 025D           L74:
 025D           L70:
 025D                   .dbline 188
 025D           L49:
 025D                   .dbline 188
 025D           ; }
 025D 3D0104            cmp [X+1],4
 0260 BF0F              jnz L48
 0262                   .dbline -2
 0262                   .dbline 189
 0262           ; }
 0262           L47:
 0262 38FC              add SP,-4
 0264 20                pop X
 0265                   .dbline 0 ; func end
 0265 7F                ret
 0266                   .dbsym l x 2 i
 0266                   .dbsym l pulsat 1 c
 0266                   .dbsym l index 0 c
 0266                   .dbend
 0266                   .dbfunc e Sensors _Sensors fV
 0266           ;              x -> X+2
 0266           ;           menu -> X+1
 0266           ;         pulsat -> X+0
 0266           _Sensors::
 0266                   .dbline -1
 0266 10                push X
 0267 4F                mov X,SP
 0268 3804              add SP,4
 026A                   .dbline 199
 026A           ; }
 026A           ; }
 026A           ; }
 026A           ; }
 026A           ; }
 026A           ; }
 026A           ; }
 026A           ; }
 026A           ; }
 026A           ; }
 026A                   .dbline 200
 026A           ; }
 026A 560101            mov [X+1],1
 026D           L90:
 026D                   .dbline 204
 026D           ; }
 026D           ; }
 026D           ; }
 026D           ; }
 026D                   .dbline 205
 026D           ; }
 026D 10                push X
 026E 5001              mov A,1
 0270 7C0000            xcall _LCD_Control
 0273                   .dbline 206
 0273           ; }
 0273 5028              mov A,>L93
 0275 08                push A
 0276 5028              mov A,<L93
 0278 5C                mov X,A
 0279 18                pop A
 027A 7C0000            xcall _LCD_PrCString
 027D                   .dbline 207
 027D           ; }
 027D 5700              mov X,0
 027F 5001              mov A,1
 0281 7C0000            xcall _LCD_Position
 0284 20                pop X
 0285                   .dbline 208
 0285           ; }
 0285 3D0101            cmp [X+1],1
 0288 B00F              jnz L94
 028A                   .dbline 208
 028A 10                push X
 028B 5018              mov A,>L96
 028D 08                push A
 028E 5018              mov A,<L96
 0290 5C                mov X,A
 0291 18                pop A
 0292 7C0000            xcall _LCD_PrCString
 0295 20                pop X
 0296 8038              xjmp L95
 0298           L94:
 0298                   .dbline 209
 0298           ; }
 0298 3D0102            cmp [X+1],2
 029B B00F              jnz L97
 029D                   .dbline 209
 029D 10                push X
 029E 5008              mov A,>L99
 02A0 08                push A
 02A1 5008              mov A,<L99
 02A3 5C                mov X,A
 02A4 18                pop A
 02A5 7C0000            xcall _LCD_PrCString
 02A8 20                pop X
 02A9 8025              xjmp L98
 02AB           L97:
 02AB                   .dbline 210
 02AB           ; }
 02AB 3D0103            cmp [X+1],3
 02AE B00F              jnz L100
 02B0                   .dbline 210
 02B0 10                push X
 02B1 50F9              mov A,>L102
 02B3 08                push A
 02B4 50F9              mov A,<L102
 02B6 5C                mov X,A
 02B7 18                pop A
 02B8 7C0000            xcall _LCD_PrCString
 02BB 20                pop X
 02BC 8012              xjmp L101
 02BE           L100:
 02BE                   .dbline 211
 02BE           ; }
 02BE 3D0104            cmp [X+1],4
 02C1 B00D              jnz L103
 02C3                   .dbline 211
 02C3 10                push X
 02C4 50EA              mov A,>L105
 02C6 08                push A
 02C7 50EA              mov A,<L105
 02C9 5C                mov X,A
 02CA 18                pop A
 02CB 7C0000            xcall _LCD_PrCString
 02CE 20                pop X
 02CF           L103:
 02CF           L101:
 02CF           L98:
 02CF           L95:
 02CF                   .dbline 212
 02CF           ; }
 02CF 9D2F              xcall _bucle_temp
 02D1                   .dbline 213
 02D1           ; }
 02D1 9DC9              xcall _Pulsador
 02D3 5400              mov [X+0],A
 02D5                   .dbline 214
 02D5           ; }
 02D5 62D000            mov REG[0xd0],>_Buzzer
 02D8 3C0001            cmp [_Buzzer],1
 02DB B003              jnz L106
 02DD                   .dbline 214
 02DD 9D55              xcall _Pitido
 02DF           L106:
 02DF                   .dbline 215
 02DF           ; }
 02DF 3D0001            cmp [X+0],1
 02E2 B019              jnz L108
 02E4                   .dbline 216
 02E4           ; }
 02E4                   .dbline 217
 02E4           ; }
 02E4 62D000            mov REG[0xd0],>__r0
 02E7 5201              mov A,[X+1]
 02E9 0101              add A,1
 02EB 5300              mov [__r0],A
 02ED 5004              mov A,4
 02EF 3A00              cmp A,[__r0]
 02F1 D006              jnc L110
 02F3           X8:
 02F3                   .dbline 217
 02F3 560101            mov [X+1],1
 02F6 8045              xjmp L109
 02F8           L110:
 02F8                   .dbline 218
 02F8           ; }
 02F8 7701              inc [X+1]
 02FA                   .dbline 219
 02FA           ; }
 02FA 8041              xjmp L109
 02FC           L108:
 02FC                   .dbline 220
 02FC           ; }
 02FC 3D0003            cmp [X+0],3
 02FF B025              jnz L112
 0301                   .dbline 221
 0301           ; }
 0301                   .dbline 222
 0301           ; }
 0301 3D0101            cmp [X+1],1
 0304 B005              jnz L114
 0306                   .dbline 222
 0306 903D              xcall _Entrada1
 0308 8033              xjmp L113
 030A           L114:
 030A                   .dbline 223
 030A           ; }
 030A 3D0102            cmp [X+1],2
 030D B005              jnz L116
 030F                   .dbline 223
 030F 90B6              xcall _Entrada2
 0311 802A              xjmp L113
 0313           L116:
 0313                   .dbline 224
 0313           ; }
 0313 3D0103            cmp [X+1],3
 0316 B005              jnz L118
 0318                   .dbline 224
 0318 912F              xcall _Entrada3
 031A 8021              xjmp L113
 031C           L118:
 031C                   .dbline 225
 031C           ; }
 031C 3D0104            cmp [X+1],4
 031F B01C              jnz L113
 0321                   .dbline 225
 0321 91A8              xcall _Entrada4
 0323                   .dbline 226
 0323           ; }
 0323 8018              xjmp L113
 0325           L112:
 0325                   .dbline 227
 0325           ; }
 0325 3D0002            cmp [X+0],2
 0328 B013              jnz L122
 032A                   .dbline 228
 032A           ; }
 032A                   .dbline 229
 032A           ; }
 032A 62D000            mov REG[0xd0],>__r0
 032D 5201              mov A,[X+1]
 032F 1101              sub A,1
 0331 3901              cmp A,1
 0333 D006              jnc L124
 0335           X9:
 0335                   .dbline 229
 0335 560104            mov [X+1],4
 0338 8003              xjmp L125
 033A           L124:
 033A                   .dbline 230
 033A           ; }
 033A 7B01              dec [X+1]
 033C           L125:
 033C                   .dbline 231
 033C           ; }
 033C           L122:
 033C           L113:
 033C           L109:
 033C                   .dbline 232
 033C           L91:
 033C                   .dbline 232
 033C           ; }
 033C 3D0004            cmp [X+0],4
 033F BF2D              jnz L90
 0341                   .dbline -2
 0341                   .dbline 233
 0341           ; }
 0341           L89:
 0341 38FC              add SP,-4
 0343 20                pop X
 0344                   .dbline 0 ; func end
 0344 7F                ret
 0345                   .dbsym l x 2 i
 0345                   .dbsym l menu 1 c
 0345                   .dbsym l pulsat 0 c
 0345                   .dbend
 0345                   .dbfunc e Entrada1 _Entrada1 fV
 0345           ;              x -> X+1
 0345           ;         pulsat -> X+0
 0345           _Entrada1::
 0345                   .dbline -1
 0345 10                push X
 0346 4F                mov X,SP
 0347 3803              add SP,3
 0349                   .dbline 243
 0349           ; }
 0349           ; }
 0349           ; }
 0349           ; }
 0349           ; }
 0349           ; }
 0349           ; }
 0349           ; }
 0349           ; }
 0349           ; }
 0349           L127:
 0349                   .dbline 248
 0349           ; }
 0349           ; }
 0349           ; }
 0349           ; }
 0349           ; }
 0349                   .dbline 249
 0349           ; }
 0349 10                push X
 034A 5001              mov A,1
 034C 7C0000            xcall _LCD_Control
 034F                   .dbline 250
 034F           ; }
 034F 50DB              mov A,>L130
 0351 08                push A
 0352 50DB              mov A,<L130
 0354 5C                mov X,A
 0355 18                pop A
 0356 7C0000            xcall _LCD_PrCString
 0359                   .dbline 251
 0359           ; }
 0359 5700              mov X,0
 035B 5001              mov A,1
 035D 7C0000            xcall _LCD_Position
 0360 20                pop X
 0361                   .dbline 252
 0361           ; }
 0361 62D000            mov REG[0xd0],>_Ent1
 0364 3C0000            cmp [_Ent1],0
 0367 B00F              jnz L131
 0369                   .dbline 252
 0369 10                push X
 036A 50D7              mov A,>L133
 036C 08                push A
 036D 50D7              mov A,<L133
 036F 5C                mov X,A
 0370 18                pop A
 0371 7C0000            xcall _LCD_PrCString
 0374 20                pop X
 0375 800D              xjmp L132
 0377           L131:
 0377                   .dbline 253
 0377           ; }
 0377 10                push X
 0378 50D4              mov A,>L134
 037A 08                push A
 037B 50D4              mov A,<L134
 037D 5C                mov X,A
 037E 18                pop A
 037F 7C0000            xcall _LCD_PrCString
 0382 20                pop X
 0383           L132:
 0383                   .dbline 254
 0383           ; }
 0383 9C7B              xcall _bucle_temp
 0385                   .dbline 255
 0385           ; }
 0385 9D15              xcall _Pulsador
 0387 5400              mov [X+0],A
 0389                   .dbline 256
 0389           ; }
 0389 62D000            mov REG[0xd0],>_Buzzer
 038C 3C0001            cmp [_Buzzer],1
 038F B003              jnz L135
 0391                   .dbline 256
 0391 9CA1              xcall _Pitido
 0393           L135:
 0393                   .dbline 257
 0393           ; }
 0393 3D0001            cmp [X+0],1
 0396 A006              jz L139
 0398 3D0002            cmp [X+0],2
 039B B00A              jnz L137
 039D           L139:
 039D                   .dbline 258
 039D           ; }
 039D                   .dbline 259
 039D           ; }
 039D 5D00              mov A,REG[ 0]
 039F 62D000            mov REG[0xd0],>__r0
 03A2 6000              mov REG[ 0],A
 03A4                   .dbline 260
 03A4           ; }
 03A4 8019              xjmp L138
 03A6           L137:
 03A6                   .dbline 261
 03A6           ; }
 03A6 3D0003            cmp [X+0],3
 03A9 B014              jnz L140
 03AB                   .dbline 262
 03AB           ; }
 03AB                   .dbline 263
 03AB           ; }
 03AB 62D000            mov REG[0xd0],>_Ent1
 03AE 3C0000            cmp [_Ent1],0
 03B1 B006              jnz L142
 03B3                   .dbline 263
 03B3 550001            mov [_Ent1],1
 03B6 8007              xjmp L143
 03B8           L142:
 03B8                   .dbline 264
 03B8           ; }
 03B8 62D000            mov REG[0xd0],>_Ent1
 03BB 550000            mov [_Ent1],0
 03BE           L143:
 03BE                   .dbline 265
 03BE           ; }
 03BE           L140:
 03BE           L138:
 03BE                   .dbline 266
 03BE           L128:
 03BE                   .dbline 266
 03BE           ; }
 03BE 3D0004            cmp [X+0],4
 03C1 BF87              jnz L127
 03C3                   .dbline -2
 03C3                   .dbline 267
 03C3           ; }
 03C3           L126:
 03C3 38FD              add SP,-3
 03C5 20                pop X
 03C6                   .dbline 0 ; func end
 03C6 7F                ret
 03C7                   .dbsym l x 1 i
 03C7                   .dbsym l pulsat 0 c
 03C7                   .dbend
 03C7                   .dbfunc e Entrada2 _Entrada2 fV
 03C7           ;              x -> X+1
 03C7           ;         pulsat -> X+0
 03C7           _Entrada2::
 03C7                   .dbline -1
 03C7 10                push X
 03C8 4F                mov X,SP
 03C9 3803              add SP,3
 03CB                   .dbline 277
 03CB           ; }
 03CB           ; }
 03CB           ; }
 03CB           ; }
 03CB           ; }
 03CB           ; }
 03CB           ; }
 03CB           ; }
 03CB           ; }
 03CB           ; }
 03CB           L145:
 03CB                   .dbline 282
 03CB           ; }
 03CB           ; }
 03CB           ; }
 03CB           ; }
 03CB           ; }
 03CB                   .dbline 283
 03CB           ; }
 03CB 10                push X
 03CC 5001              mov A,1
 03CE 7C0000            xcall _LCD_Control
 03D1                   .dbline 284
 03D1           ; }
 03D1 50C5              mov A,>L148
 03D3 08                push A
 03D4 50C5              mov A,<L148
 03D6 5C                mov X,A
 03D7 18                pop A
 03D8 7C0000            xcall _LCD_PrCString
 03DB                   .dbline 285
 03DB           ; }
 03DB 5700              mov X,0
 03DD 5001              mov A,1
 03DF 7C0000            xcall _LCD_Position
 03E2 20                pop X
 03E3                   .dbline 286
 03E3           ; }
 03E3 62D000            mov REG[0xd0],>_Ent2
 03E6 3C0000            cmp [_Ent2],0
 03E9 B00F              jnz L149
 03EB                   .dbline 286
 03EB 10                push X
 03EC 50D7              mov A,>L133
 03EE 08                push A
 03EF 50D7              mov A,<L133
 03F1 5C                mov X,A
 03F2 18                pop A
 03F3 7C0000            xcall _LCD_PrCString
 03F6 20                pop X
 03F7 800D              xjmp L150
 03F9           L149:
 03F9                   .dbline 287
 03F9           ; }
 03F9 10                push X
 03FA 50D4              mov A,>L134
 03FC 08                push A
 03FD 50D4              mov A,<L134
 03FF 5C                mov X,A
 0400 18                pop A
 0401 7C0000            xcall _LCD_PrCString
 0404 20                pop X
 0405           L150:
 0405                   .dbline 288
 0405           ; }
 0405 9BF9              xcall _bucle_temp
 0407                   .dbline 289
 0407           ; }
 0407 9C93              xcall _Pulsador
 0409 5400              mov [X+0],A
 040B                   .dbline 290
 040B           ; }
 040B 62D000            mov REG[0xd0],>_Buzzer
 040E 3C0001            cmp [_Buzzer],1
 0411 B003              jnz L151
 0413                   .dbline 290
 0413 9C1F              xcall _Pitido
 0415           L151:
 0415                   .dbline 291
 0415           ; }
 0415 3D0001            cmp [X+0],1
 0418 A006              jz L155
 041A 3D0002            cmp [X+0],2
 041D B00A              jnz L153
 041F           L155:
 041F                   .dbline 292
 041F           ; }
 041F                   .dbline 293
 041F           ; }
 041F 5D00              mov A,REG[ 0]
 0421 62D000            mov REG[0xd0],>__r0
 0424 6000              mov REG[ 0],A
 0426                   .dbline 294
 0426           ; }
 0426 8019              xjmp L154
 0428           L153:
 0428                   .dbline 295
 0428           ; }
 0428 3D0003            cmp [X+0],3
 042B B014              jnz L156
 042D                   .dbline 296
 042D           ; }
 042D                   .dbline 297
 042D           ; }
 042D 62D000            mov REG[0xd0],>_Ent2
 0430 3C0000            cmp [_Ent2],0
 0433 B006              jnz L158
 0435                   .dbline 297
 0435 550001            mov [_Ent2],1
 0438 8007              xjmp L159
 043A           L158:
 043A                   .dbline 298
 043A           ; }
 043A 62D000            mov REG[0xd0],>_Ent2
 043D 550000            mov [_Ent2],0
 0440           L159:
 0440                   .dbline 299
 0440           ; }
 0440           L156:
 0440           L154:
 0440                   .dbline 300
 0440           L146:
 0440                   .dbline 300
 0440           ; }
 0440 3D0004            cmp [X+0],4
 0443 BF87              jnz L145
 0445                   .dbline -2
 0445                   .dbline 301
 0445           ; }
 0445           L144:
 0445 38FD              add SP,-3
 0447 20                pop X
 0448                   .dbline 0 ; func end
 0448 7F                ret
 0449                   .dbsym l x 1 i
 0449                   .dbsym l pulsat 0 c
 0449                   .dbend
 0449                   .dbfunc e Entrada3 _Entrada3 fV
 0449           ;              x -> X+1
 0449           ;         pulsat -> X+0
 0449           _Entrada3::
 0449                   .dbline -1
 0449 10                push X
 044A 4F                mov X,SP
 044B 3803              add SP,3
 044D                   .dbline 311
 044D           ; }
 044D           ; }
 044D           ; }
 044D           ; }
 044D           ; }
 044D           ; }
 044D           ; }
 044D           ; }
 044D           ; }
 044D           ; }
 044D           L161:
 044D                   .dbline 316
 044D           ; }
 044D           ; }
 044D           ; }
 044D           ; }
 044D           ; }
 044D                   .dbline 317
 044D           ; }
 044D 10                push X
 044E 5001              mov A,1
 0450 7C0000            xcall _LCD_Control
 0453                   .dbline 318
 0453           ; }
 0453 50B7              mov A,>L164
 0455 08                push A
 0456 50B7              mov A,<L164
 0458 5C                mov X,A
 0459 18                pop A
 045A 7C0000            xcall _LCD_PrCString
 045D                   .dbline 319
 045D           ; }
 045D 5700              mov X,0
 045F 5001              mov A,1
 0461 7C0000            xcall _LCD_Position
 0464 20                pop X
 0465                   .dbline 320
 0465           ; }
 0465 62D000            mov REG[0xd0],>_Ent3
 0468 3C0000            cmp [_Ent3],0
 046B B00F              jnz L165
 046D                   .dbline 320
 046D 10                push X
 046E 50D7              mov A,>L133
 0470 08                push A
 0471 50D7              mov A,<L133
 0473 5C                mov X,A
 0474 18                pop A
 0475 7C0000            xcall _LCD_PrCString
 0478 20                pop X
 0479 800D              xjmp L166
 047B           L165:
 047B                   .dbline 321
 047B           ; }
 047B 10                push X
 047C 50D4              mov A,>L134
 047E 08                push A
 047F 50D4              mov A,<L134
 0481 5C                mov X,A
 0482 18                pop A
 0483 7C0000            xcall _LCD_PrCString
 0486 20                pop X
 0487           L166:
 0487                   .dbline 322
 0487           ; }
 0487 9B77              xcall _bucle_temp
 0489                   .dbline 323
 0489           ; }
 0489 9C11              xcall _Pulsador
 048B 5400              mov [X+0],A
 048D                   .dbline 324
 048D           ; }
 048D 62D000            mov REG[0xd0],>_Buzzer
 0490 3C0001            cmp [_Buzzer],1
 0493 B003              jnz L167
 0495                   .dbline 324
 0495 9B9D              xcall _Pitido
 0497           L167:
 0497                   .dbline 325
 0497           ; }
 0497 3D0001            cmp [X+0],1
 049A A006              jz L171
 049C 3D0002            cmp [X+0],2
 049F B00A              jnz L169
 04A1           L171:
 04A1                   .dbline 326
 04A1           ; }
 04A1                   .dbline 327
 04A1           ; }
 04A1 5D00              mov A,REG[ 0]
 04A3 62D000            mov REG[0xd0],>__r0
 04A6 6000              mov REG[ 0],A
 04A8                   .dbline 328
 04A8           ; }
 04A8 8019              xjmp L170
 04AA           L169:
 04AA                   .dbline 329
 04AA           ; }
 04AA 3D0003            cmp [X+0],3
 04AD B014              jnz L172
 04AF                   .dbline 330
 04AF           ; }
 04AF                   .dbline 331
 04AF           ; }
 04AF 62D000            mov REG[0xd0],>_Ent3
 04B2 3C0000            cmp [_Ent3],0
 04B5 B006              jnz L174
 04B7                   .dbline 331
 04B7 550001            mov [_Ent3],1
 04BA 8007              xjmp L175
 04BC           L174:
 04BC                   .dbline 332
 04BC           ; }
 04BC 62D000            mov REG[0xd0],>_Ent3
 04BF 550000            mov [_Ent3],0
 04C2           L175:
 04C2                   .dbline 333
 04C2           ; }
 04C2           L172:
 04C2           L170:
 04C2                   .dbline 334
 04C2           L162:
 04C2                   .dbline 334
 04C2           ; }
 04C2 3D0004            cmp [X+0],4
 04C5 BF87              jnz L161
 04C7                   .dbline -2
 04C7                   .dbline 335
 04C7           ; }
 04C7           L160:
 04C7 38FD              add SP,-3
 04C9 20                pop X
 04CA                   .dbline 0 ; func end
 04CA 7F                ret
 04CB                   .dbsym l x 1 i
 04CB                   .dbsym l pulsat 0 c
 04CB                   .dbend
 04CB                   .dbfunc e Entrada4 _Entrada4 fV
 04CB           ;              x -> X+1
 04CB           ;         pulsat -> X+0
 04CB           _Entrada4::
 04CB                   .dbline -1
 04CB 10                push X
 04CC 4F                mov X,SP
 04CD 3803              add SP,3
 04CF                   .dbline 345
 04CF           ; }
 04CF           ; }
 04CF           ; }
 04CF           ; }
 04CF           ; }
 04CF           ; }
 04CF           ; }
 04CF           ; }
 04CF           ; }
 04CF           ; }
 04CF           L177:
 04CF                   .dbline 350
 04CF           ; }
 04CF           ; }
 04CF           ; }
 04CF           ; }
 04CF           ; }
 04CF                   .dbline 351
 04CF           ; }
 04CF 10                push X
 04D0 5001              mov A,1
 04D2 7C0000            xcall _LCD_Control
 04D5                   .dbline 352
 04D5           ; }
 04D5 50A9              mov A,>L180
 04D7 08                push A
 04D8 50A9              mov A,<L180
 04DA 5C                mov X,A
 04DB 18                pop A
 04DC 7C0000            xcall _LCD_PrCString
 04DF                   .dbline 353
 04DF           ; }
 04DF 5700              mov X,0
 04E1 5001              mov A,1
 04E3 7C0000            xcall _LCD_Position
 04E6 20                pop X
 04E7                   .dbline 354
 04E7           ; }
 04E7 62D000            mov REG[0xd0],>_Ent4
 04EA 3C0000            cmp [_Ent4],0
 04ED B00F              jnz L181
 04EF                   .dbline 354
 04EF 10                push X
 04F0 50D7              mov A,>L133
 04F2 08                push A
 04F3 50D7              mov A,<L133
 04F5 5C                mov X,A
 04F6 18                pop A
 04F7 7C0000            xcall _LCD_PrCString
 04FA 20                pop X
 04FB 800D              xjmp L182
 04FD           L181:
 04FD                   .dbline 355
 04FD           ; }
 04FD 10                push X
 04FE 50D4              mov A,>L134
 0500 08                push A
 0501 50D4              mov A,<L134
 0503 5C                mov X,A
 0504 18                pop A
 0505 7C0000            xcall _LCD_PrCString
 0508 20                pop X
 0509           L182:
 0509                   .dbline 356
 0509           ; }
 0509 9AF5              xcall _bucle_temp
 050B                   .dbline 357
 050B           ; }
 050B 9B8F              xcall _Pulsador
 050D 5400              mov [X+0],A
 050F                   .dbline 358
 050F           ; }
 050F 62D000            mov REG[0xd0],>_Buzzer
 0512 3C0001            cmp [_Buzzer],1
 0515 B003              jnz L183
 0517                   .dbline 358
 0517 9B1B              xcall _Pitido
 0519           L183:
 0519                   .dbline 359
 0519           ; }
 0519 3D0001            cmp [X+0],1
 051C A006              jz L187
 051E 3D0002            cmp [X+0],2
 0521 B00A              jnz L185
 0523           L187:
 0523                   .dbline 360
 0523           ; }
 0523                   .dbline 361
 0523           ; }
 0523 5D00              mov A,REG[ 0]
 0525 62D000            mov REG[0xd0],>__r0
 0528 6000              mov REG[ 0],A
 052A                   .dbline 362
 052A           ; }
 052A 8019              xjmp L186
 052C           L185:
 052C                   .dbline 363
 052C           ; }
 052C 3D0003            cmp [X+0],3
 052F B014              jnz L188
 0531                   .dbline 364
 0531           ; }
 0531                   .dbline 365
 0531           ; }
 0531 62D000            mov REG[0xd0],>_Ent4
 0534 3C0000            cmp [_Ent4],0
 0537 B006              jnz L190
 0539                   .dbline 365
 0539 550001            mov [_Ent4],1
 053C 8007              xjmp L191
 053E           L190:
 053E                   .dbline 366
 053E           ; }
 053E 62D000            mov REG[0xd0],>_Ent4
 0541 550000            mov [_Ent4],0
 0544           L191:
 0544                   .dbline 367
 0544           ; }
 0544           L188:
 0544           L186:
 0544                   .dbline 368
 0544           L178:
 0544                   .dbline 368
 0544           ; }
 0544 3D0004            cmp [X+0],4
 0547 BF87              jnz L177
 0549                   .dbline -2
 0549                   .dbline 369
 0549           ; }
 0549           L176:
 0549 38FD              add SP,-3
 054B 20                pop X
 054C                   .dbline 0 ; func end
 054C 7F                ret
 054D                   .dbsym l x 1 i
 054D                   .dbsym l pulsat 0 c
 054D                   .dbend
 054D                   .dbfunc e Flashes _Flashes fV
 054D           ;              x -> X+2
 054D           ;           menu -> X+1
 054D           ;         pulsat -> X+0
 054D           _Flashes::
 054D                   .dbline -1
 054D 10                push X
 054E 4F                mov X,SP
 054F 3804              add SP,4
 0551                   .dbline 379
 0551           ; }
 0551           ; }
 0551           ; }
 0551           ; }
 0551           ; }
 0551           ; }
 0551           ; }
 0551           ; }
 0551           ; }
 0551           ; }
 0551                   .dbline 380
 0551           ; }
 0551 560101            mov [X+1],1
 0554           L193:
 0554                   .dbline 384
 0554           ; }
 0554           ; }
 0554           ; }
 0554           ; }
 0554                   .dbline 385
 0554           ; }
 0554 10                push X
 0555 5001              mov A,1
 0557 7C0000            xcall _LCD_Control
 055A                   .dbline 386
 055A           ; }
 055A 509A              mov A,>L196
 055C 08                push A
 055D 509A              mov A,<L196
 055F 5C                mov X,A
 0560 18                pop A
 0561 7C0000            xcall _LCD_PrCString
 0564                   .dbline 387
 0564           ; }
 0564 5700              mov X,0
 0566 5001              mov A,1
 0568 7C0000            xcall _LCD_Position
 056B 20                pop X
 056C                   .dbline 388
 056C           ; }
 056C 3D0101            cmp [X+1],1
 056F B031              jnz L197
 0571                   .dbline 389
 0571           ; }
 0571                   .dbline 390
 0571           ; }
 0571 10                push X
 0572 5090              mov A,>L199
 0574 08                push A
 0575 5090              mov A,<L199
 0577 5C                mov X,A
 0578 18                pop A
 0579 7C0000            xcall _LCD_PrCString
 057C 20                pop X
 057D                   .dbline 391
 057D           ; }
 057D 62D000            mov REG[0xd0],>_Fla1
 0580 3C0000            cmp [_Fla1],0
 0583 B00F              jnz L200
 0585                   .dbline 391
 0585 10                push X
 0586 5089              mov A,>L202
 0588 08                push A
 0589 5089              mov A,<L202
 058B 5C                mov X,A
 058C 18                pop A
 058D 7C0000            xcall _LCD_PrCString
 0590 20                pop X
 0591 80AC              xjmp L198
 0593           L200:
 0593                   .dbline 392
 0593           ; }
 0593 10                push X
 0594 5083              mov A,>L203
 0596 08                push A
 0597 5083              mov A,<L203
 0599 5C                mov X,A
 059A 18                pop A
 059B 7C0000            xcall _LCD_PrCString
 059E 20                pop X
 059F                   .dbline 393
 059F           ; }
 059F 809E              xjmp L198
 05A1           L197:
 05A1                   .dbline 394
 05A1           ; }
 05A1 3D0102            cmp [X+1],2
 05A4 B031              jnz L204
 05A6                   .dbline 395
 05A6           ; }
 05A6                   .dbline 396
 05A6           ; }
 05A6 10                push X
 05A7 5079              mov A,>L206
 05A9 08                push A
 05AA 5079              mov A,<L206
 05AC 5C                mov X,A
 05AD 18                pop A
 05AE 7C0000            xcall _LCD_PrCString
 05B1 20                pop X
 05B2                   .dbline 397
 05B2           ; }
 05B2 62D000            mov REG[0xd0],>_Fla2
 05B5 3C0000            cmp [_Fla2],0
 05B8 B00F              jnz L207
 05BA                   .dbline 397
 05BA 10                push X
 05BB 5089              mov A,>L202
 05BD 08                push A
 05BE 5089              mov A,<L202
 05C0 5C                mov X,A
 05C1 18                pop A
 05C2 7C0000            xcall _LCD_PrCString
 05C5 20                pop X
 05C6 8077              xjmp L205
 05C8           L207:
 05C8                   .dbline 398
 05C8           ; }
 05C8 10                push X
 05C9 5083              mov A,>L203
 05CB 08                push A
 05CC 5083              mov A,<L203
 05CE 5C                mov X,A
 05CF 18                pop A
 05D0 7C0000            xcall _LCD_PrCString
 05D3 20                pop X
 05D4                   .dbline 399
 05D4           ; }
 05D4 8069              xjmp L205
 05D6           L204:
 05D6                   .dbline 400
 05D6           ; }
 05D6 3D0103            cmp [X+1],3
 05D9 B031              jnz L209
 05DB                   .dbline 401
 05DB           ; }
 05DB                   .dbline 403
 05DB           ; }
 05DB           ; }
 05DB 10                push X
 05DC 506F              mov A,>L211
 05DE 08                push A
 05DF 506F              mov A,<L211
 05E1 5C                mov X,A
 05E2 18                pop A
 05E3 7C0000            xcall _LCD_PrCString
 05E6 20                pop X
 05E7                   .dbline 404
 05E7           ; }
 05E7 62D000            mov REG[0xd0],>_Fla3
 05EA 3C0000            cmp [_Fla3],0
 05ED B00F              jnz L212
 05EF                   .dbline 404
 05EF 10                push X
 05F0 5089              mov A,>L202
 05F2 08                push A
 05F3 5089              mov A,<L202
 05F5 5C                mov X,A
 05F6 18                pop A
 05F7 7C0000            xcall _LCD_PrCString
 05FA 20                pop X
 05FB 8042              xjmp L210
 05FD           L212:
 05FD                   .dbline 405
 05FD           ; }
 05FD 10                push X
 05FE 5083              mov A,>L203
 0600 08                push A
 0601 5083              mov A,<L203
 0603 5C                mov X,A
 0604 18                pop A
 0605 7C0000            xcall _LCD_PrCString
 0608 20                pop X
 0609                   .dbline 406
 0609           ; }
 0609 8034              xjmp L210
 060B           L209:
 060B                   .dbline 407
 060B           ; }
 060B 3D0104            cmp [X+1],4
 060E B02F              jnz L214
 0610                   .dbline 408
 0610           ; }
 0610                   .dbline 409
 0610           ; }
 0610 10                push X
 0611 5065              mov A,>L216
 0613 08                push A
 0614 5065              mov A,<L216
 0616 5C                mov X,A
 0617 18                pop A
 0618 7C0000            xcall _LCD_PrCString
 061B 20                pop X
 061C                   .dbline 410
 061C           ; }
 061C 62D000            mov REG[0xd0],>_Fla4
 061F 3C0000            cmp [_Fla4],0
 0622 B00F              jnz L217
 0624                   .dbline 410
 0624 10                push X
 0625 505D              mov A,>L219
 0627 08                push A
 0628 505D              mov A,<L219
 062A 5C                mov X,A
 062B 18                pop A
 062C 7C0000            xcall _LCD_PrCString
 062F 20                pop X
 0630 800D              xjmp L218
 0632           L217:
 0632                   .dbline 411
 0632           ; }
 0632 10                push X
 0633 5083              mov A,>L203
 0635 08                push A
 0636 5083              mov A,<L203
 0638 5C                mov X,A
 0639 18                pop A
 063A 7C0000            xcall _LCD_PrCString
 063D 20                pop X
 063E           L218:
 063E                   .dbline 412
 063E           ; }
 063E           L214:
 063E           L210:
 063E           L205:
 063E           L198:
 063E                   .dbline 413
 063E           ; }
 063E 99C0              xcall _bucle_temp
 0640                   .dbline 414
 0640           ; }
 0640 9A5A              xcall _Pulsador
 0642 5400              mov [X+0],A
 0644                   .dbline 415
 0644           ; }
 0644 62D000            mov REG[0xd0],>_Buzzer
 0647 3C0001            cmp [_Buzzer],1
 064A B003              jnz L220
 064C                   .dbline 415
 064C 99E6              xcall _Pitido
 064E           L220:
 064E                   .dbline 416
 064E           ; }
 064E 3D0001            cmp [X+0],1
 0651 B019              jnz L222
 0653                   .dbline 417
 0653           ; }
 0653                   .dbline 418
 0653           ; }
 0653 62D000            mov REG[0xd0],>__r0
 0656 5201              mov A,[X+1]
 0658 0101              add A,1
 065A 5300              mov [__r0],A
 065C 5004              mov A,4
 065E 3A00              cmp A,[__r0]
 0660 D006              jnc L224
 0662           X10:
 0662                   .dbline 418
 0662 560101            mov [X+1],1
 0665 8045              xjmp L223
 0667           L224:
 0667                   .dbline 419
 0667           ; }
 0667 7701              inc [X+1]
 0669                   .dbline 420
 0669           ; }
 0669 8041              xjmp L223
 066B           L222:
 066B                   .dbline 421
 066B           ; }
 066B 3D0003            cmp [X+0],3
 066E B025              jnz L226
 0670                   .dbline 422
 0670           ; }
 0670                   .dbline 423
 0670           ; }
 0670 3D0101            cmp [X+1],1
 0673 B005              jnz L228
 0675                   .dbline 423
 0675 903D              xcall _Flash1
 0677 8033              xjmp L227
 0679           L228:
 0679                   .dbline 424
 0679           ; }
 0679 3D0102            cmp [X+1],2
 067C B005              jnz L230
 067E                   .dbline 424
 067E 90B6              xcall _Flash2
 0680 802A              xjmp L227
 0682           L230:
 0682                   .dbline 425
 0682           ; }
 0682 3D0103            cmp [X+1],3
 0685 B005              jnz L232
 0687                   .dbline 425
 0687 912F              xcall _Flash3
 0689 8021              xjmp L227
 068B           L232:
 068B                   .dbline 426
 068B           ; }
 068B 3D0104            cmp [X+1],4
 068E B01C              jnz L227
 0690                   .dbline 426
 0690 91A8              xcall _Flash4
 0692                   .dbline 427
 0692           ; }
 0692 8018              xjmp L227
 0694           L226:
 0694                   .dbline 428
 0694           ; }
 0694 3D0002            cmp [X+0],2
 0697 B013              jnz L236
 0699                   .dbline 429
 0699           ; }
 0699                   .dbline 430
 0699           ; }
 0699 62D000            mov REG[0xd0],>__r0
 069C 5201              mov A,[X+1]
 069E 1101              sub A,1
 06A0 3901              cmp A,1
 06A2 D006              jnc L238
 06A4           X11:
 06A4                   .dbline 430
 06A4 560104            mov [X+1],4
 06A7 8003              xjmp L239
 06A9           L238:
 06A9                   .dbline 431
 06A9           ; }
 06A9 7B01              dec [X+1]
 06AB           L239:
 06AB                   .dbline 432
 06AB           ; }
 06AB           L236:
 06AB           L227:
 06AB           L223:
 06AB                   .dbline 433
 06AB           L194:
 06AB                   .dbline 433
 06AB           ; }
 06AB 3D0004            cmp [X+0],4
 06AE BEA5              jnz L193
 06B0                   .dbline -2
 06B0                   .dbline 434
 06B0           ; }
 06B0           L192:
 06B0 38FC              add SP,-4
 06B2 20                pop X
 06B3                   .dbline 0 ; func end
 06B3 7F                ret
 06B4                   .dbsym l x 2 i
 06B4                   .dbsym l menu 1 c
 06B4                   .dbsym l pulsat 0 c
 06B4                   .dbend
 06B4                   .dbfunc e Flash1 _Flash1 fV
 06B4           ;              x -> X+1
 06B4           ;         pulsat -> X+0
 06B4           _Flash1::
 06B4                   .dbline -1
 06B4 10                push X
 06B5 4F                mov X,SP
 06B6 3803              add SP,3
 06B8                   .dbline 443
 06B8           ; }
 06B8           ; }
 06B8           ; }
 06B8           ; }
 06B8           ; }
 06B8           ; }
 06B8           ; }
 06B8           ; }
 06B8           ; }
 06B8           L241:
 06B8                   .dbline 448
 06B8           ; }
 06B8           ; }
 06B8           ; }
 06B8           ; }
 06B8           ; }
 06B8                   .dbline 449
 06B8           ; }
 06B8 10                push X
 06B9 5001              mov A,1
 06BB 7C0000            xcall _LCD_Control
 06BE                   .dbline 450
 06BE           ; }
 06BE 5054              mov A,>L244
 06C0 08                push A
 06C1 5054              mov A,<L244
 06C3 5C                mov X,A
 06C4 18                pop A
 06C5 7C0000            xcall _LCD_PrCString
 06C8                   .dbline 451
 06C8           ; }
 06C8 5700              mov X,0
 06CA 5001              mov A,1
 06CC 7C0000            xcall _LCD_Position
 06CF 20                pop X
 06D0                   .dbline 452
 06D0           ; }
 06D0 62D000            mov REG[0xd0],>_Fla1
 06D3 3C0000            cmp [_Fla1],0
 06D6 B00F              jnz L245
 06D8                   .dbline 452
 06D8 10                push X
 06D9 50D7              mov A,>L133
 06DB 08                push A
 06DC 50D7              mov A,<L133
 06DE 5C                mov X,A
 06DF 18                pop A
 06E0 7C0000            xcall _LCD_PrCString
 06E3 20                pop X
 06E4 800D              xjmp L246
 06E6           L245:
 06E6                   .dbline 453
 06E6           ; }
 06E6 10                push X
 06E7 50D4              mov A,>L134
 06E9 08                push A
 06EA 50D4              mov A,<L134
 06EC 5C                mov X,A
 06ED 18                pop A
 06EE 7C0000            xcall _LCD_PrCString
 06F1 20                pop X
 06F2           L246:
 06F2                   .dbline 454
 06F2           ; }
 06F2 990C              xcall _bucle_temp
 06F4                   .dbline 455
 06F4           ; }
 06F4 99A6              xcall _Pulsador
 06F6 5400              mov [X+0],A
 06F8                   .dbline 456
 06F8           ; }
 06F8 62D000            mov REG[0xd0],>_Buzzer
 06FB 3C0001            cmp [_Buzzer],1
 06FE B003              jnz L247
 0700                   .dbline 456
 0700 9932              xcall _Pitido
 0702           L247:
 0702                   .dbline 457
 0702           ; }
 0702 3D0001            cmp [X+0],1
 0705 A006              jz L251
 0707 3D0002            cmp [X+0],2
 070A B00A              jnz L249
 070C           L251:
 070C                   .dbline 458
 070C           ; }
 070C                   .dbline 459
 070C           ; }
 070C 5D00              mov A,REG[ 0]
 070E 62D000            mov REG[0xd0],>__r0
 0711 6000              mov REG[ 0],A
 0713                   .dbline 460
 0713           ; }
 0713 8019              xjmp L250
 0715           L249:
 0715                   .dbline 461
 0715           ; }
 0715 3D0003            cmp [X+0],3
 0718 B014              jnz L252
 071A                   .dbline 462
 071A           ; }
 071A                   .dbline 463
 071A           ; }
 071A 62D000            mov REG[0xd0],>_Fla1
 071D 3C0000            cmp [_Fla1],0
 0720 B006              jnz L254
 0722                   .dbline 463
 0722 550001            mov [_Fla1],1
 0725 8007              xjmp L255
 0727           L254:
 0727                   .dbline 464
 0727           ; }
 0727 62D000            mov REG[0xd0],>_Fla1
 072A 550000            mov [_Fla1],0
 072D           L255:
 072D                   .dbline 465
 072D           ; }
 072D           L252:
 072D           L250:
 072D                   .dbline 466
 072D           L242:
 072D                   .dbline 466
 072D           ; }
 072D 3D0004            cmp [X+0],4
 0730 BF87              jnz L241
 0732                   .dbline -2
 0732                   .dbline 467
 0732           ; }
 0732           L240:
 0732 38FD              add SP,-3
 0734 20                pop X
 0735                   .dbline 0 ; func end
 0735 7F                ret
 0736                   .dbsym l x 1 i
 0736                   .dbsym l pulsat 0 c
 0736                   .dbend
 0736                   .dbfunc e Flash2 _Flash2 fV
 0736           ;              x -> X+1
 0736           ;         pulsat -> X+0
 0736           _Flash2::
 0736                   .dbline -1
 0736 10                push X
 0737 4F                mov X,SP
 0738 3803              add SP,3
 073A                   .dbline 477
 073A           ; }
 073A           ; }
 073A           ; }
 073A           ; }
 073A           ; }
 073A           ; }
 073A           ; }
 073A           ; }
 073A           ; }
 073A           ; }
 073A           L257:
 073A                   .dbline 482
 073A           ; }
 073A           ; }
 073A           ; }
 073A           ; }
 073A           ; }
 073A                   .dbline 483
 073A           ; }
 073A 10                push X
 073B 5001              mov A,1
 073D 7C0000            xcall _LCD_Control
 0740                   .dbline 484
 0740           ; }
 0740 504B              mov A,>L260
 0742 08                push A
 0743 504B              mov A,<L260
 0745 5C                mov X,A
 0746 18                pop A
 0747 7C0000            xcall _LCD_PrCString
 074A                   .dbline 485
 074A           ; }
 074A 5700              mov X,0
 074C 5001              mov A,1
 074E 7C0000            xcall _LCD_Position
 0751 20                pop X
 0752                   .dbline 486
 0752           ; }
 0752 62D000            mov REG[0xd0],>_Fla2
 0755 3C0000            cmp [_Fla2],0
 0758 B00F              jnz L261
 075A                   .dbline 486
 075A 10                push X
 075B 50D7              mov A,>L133
 075D 08                push A
 075E 50D7              mov A,<L133
 0760 5C                mov X,A
 0761 18                pop A
 0762 7C0000            xcall _LCD_PrCString
 0765 20                pop X
 0766 800D              xjmp L262
 0768           L261:
 0768                   .dbline 487
 0768           ; }
 0768 10                push X
 0769 50D4              mov A,>L134
 076B 08                push A
 076C 50D4              mov A,<L134
 076E 5C                mov X,A
 076F 18                pop A
 0770 7C0000            xcall _LCD_PrCString
 0773 20                pop X
 0774           L262:
 0774                   .dbline 488
 0774           ; }
 0774 988A              xcall _bucle_temp
 0776                   .dbline 489
 0776           ; }
 0776 9924              xcall _Pulsador
 0778 5400              mov [X+0],A
 077A                   .dbline 490
 077A           ; }
 077A 62D000            mov REG[0xd0],>_Buzzer
 077D 3C0001            cmp [_Buzzer],1
 0780 B003              jnz L263
 0782                   .dbline 490
 0782 98B0              xcall _Pitido
 0784           L263:
 0784                   .dbline 491
 0784           ; }
 0784 3D0001            cmp [X+0],1
 0787 A006              jz L267
 0789 3D0002            cmp [X+0],2
 078C B00A              jnz L265
 078E           L267:
 078E                   .dbline 492
 078E           ; }
 078E                   .dbline 493
 078E           ; }
 078E 5D00              mov A,REG[ 0]
 0790 62D000            mov REG[0xd0],>__r0
 0793 6000              mov REG[ 0],A
 0795                   .dbline 494
 0795           ; }
 0795 8019              xjmp L266
 0797           L265:
 0797                   .dbline 495
 0797           ; }
 0797 3D0003            cmp [X+0],3
 079A B014              jnz L268
 079C                   .dbline 496
 079C           ; }
 079C                   .dbline 497
 079C           ; }
 079C 62D000            mov REG[0xd0],>_Fla2
 079F 3C0000            cmp [_Fla2],0
 07A2 B006              jnz L270
 07A4                   .dbline 497
 07A4 550001            mov [_Fla2],1
 07A7 8007              xjmp L271
 07A9           L270:
 07A9                   .dbline 498
 07A9           ; }
 07A9 62D000            mov REG[0xd0],>_Fla2
 07AC 550000            mov [_Fla2],0
 07AF           L271:
 07AF                   .dbline 499
 07AF           ; }
 07AF           L268:
 07AF           L266:
 07AF                   .dbline 500
 07AF           L258:
 07AF                   .dbline 500
 07AF           ; }
 07AF 3D0004            cmp [X+0],4
 07B2 BF87              jnz L257
 07B4                   .dbline -2
 07B4                   .dbline 501
 07B4           ; }
 07B4           L256:
 07B4 38FD              add SP,-3
 07B6 20                pop X
 07B7                   .dbline 0 ; func end
 07B7 7F                ret
 07B8                   .dbsym l x 1 i
 07B8                   .dbsym l pulsat 0 c
 07B8                   .dbend
 07B8                   .dbfunc e Flash3 _Flash3 fV
 07B8           ;              x -> X+1
 07B8           ;         pulsat -> X+0
 07B8           _Flash3::
 07B8                   .dbline -1
 07B8 10                push X
 07B9 4F                mov X,SP
 07BA 3803              add SP,3
 07BC                   .dbline 510
 07BC           ; }
 07BC           ; }
 07BC           ; }
 07BC           ; }
 07BC           ; }
 07BC           ; }
 07BC           ; }
 07BC           ; }
 07BC           ; }
 07BC           L273:
 07BC                   .dbline 515
 07BC           ; }
 07BC           ; }
 07BC           ; }
 07BC           ; }
 07BC           ; }
 07BC                   .dbline 516
 07BC           ; }
 07BC 10                push X
 07BD 5001              mov A,1
 07BF 7C0000            xcall _LCD_Control
 07C2                   .dbline 517
 07C2           ; }
 07C2 5042              mov A,>L276
 07C4 08                push A
 07C5 5042              mov A,<L276
 07C7 5C                mov X,A
 07C8 18                pop A
 07C9 7C0000            xcall _LCD_PrCString
 07CC                   .dbline 518
 07CC           ; }
 07CC 5700              mov X,0
 07CE 5001              mov A,1
 07D0 7C0000            xcall _LCD_Position
 07D3 20                pop X
 07D4                   .dbline 519
 07D4           ; }
 07D4 62D000            mov REG[0xd0],>_Fla3
 07D7 3C0000            cmp [_Fla3],0
 07DA B00F              jnz L277
 07DC                   .dbline 519
 07DC 10                push X
 07DD 50D7              mov A,>L133
 07DF 08                push A
 07E0 50D7              mov A,<L133
 07E2 5C                mov X,A
 07E3 18                pop A
 07E4 7C0000            xcall _LCD_PrCString
 07E7 20                pop X
 07E8 800D              xjmp L278
 07EA           L277:
 07EA                   .dbline 520
 07EA           ; }
 07EA 10                push X
 07EB 50D4              mov A,>L134
 07ED 08                push A
 07EE 50D4              mov A,<L134
 07F0 5C                mov X,A
 07F1 18                pop A
 07F2 7C0000            xcall _LCD_PrCString
 07F5 20                pop X
 07F6           L278:
 07F6                   .dbline 521
 07F6           ; }
 07F6 9808              xcall _bucle_temp
 07F8                   .dbline 522
 07F8           ; }
 07F8 98A2              xcall _Pulsador
 07FA 5400              mov [X+0],A
 07FC                   .dbline 523
 07FC           ; }
 07FC 62D000            mov REG[0xd0],>_Buzzer
 07FF 3C0001            cmp [_Buzzer],1
 0802 B003              jnz L279
 0804                   .dbline 523
 0804 982E              xcall _Pitido
 0806           L279:
 0806                   .dbline 524
 0806           ; }
 0806 3D0001            cmp [X+0],1
 0809 A006              jz L283
 080B 3D0002            cmp [X+0],2
 080E B00A              jnz L281
 0810           L283:
 0810                   .dbline 525
 0810           ; }
 0810                   .dbline 526
 0810           ; }
 0810 5D00              mov A,REG[ 0]
 0812 62D000            mov REG[0xd0],>__r0
 0815 6000              mov REG[ 0],A
 0817                   .dbline 527
 0817           ; }
 0817 8019              xjmp L282
 0819           L281:
 0819                   .dbline 528
 0819           ; }
 0819 3D0003            cmp [X+0],3
 081C B014              jnz L284
 081E                   .dbline 529
 081E           ; }
 081E                   .dbline 530
 081E           ; }
 081E 62D000            mov REG[0xd0],>_Fla3
 0821 3C0000            cmp [_Fla3],0
 0824 B006              jnz L286
 0826                   .dbline 530
 0826 550001            mov [_Fla3],1
 0829 8007              xjmp L287
 082B           L286:
 082B                   .dbline 531
 082B           ; }
 082B 62D000            mov REG[0xd0],>_Fla3
 082E 550000            mov [_Fla3],0
 0831           L287:
 0831                   .dbline 532
 0831           ; }
 0831           L284:
 0831           L282:
 0831                   .dbline 533
 0831           L274:
 0831                   .dbline 533
 0831           ; }
 0831 3D0004            cmp [X+0],4
 0834 BF87              jnz L273
 0836                   .dbline -2
 0836                   .dbline 534
 0836           ; }
 0836           L272:
 0836 38FD              add SP,-3
 0838 20                pop X
 0839                   .dbline 0 ; func end
 0839 7F                ret
 083A                   .dbsym l x 1 i
 083A                   .dbsym l pulsat 0 c
 083A                   .dbend
 083A                   .dbfunc e Flash4 _Flash4 fV
 083A           ;              x -> X+1
 083A           ;         pulsat -> X+0
 083A           _Flash4::
 083A                   .dbline -1
 083A 10                push X
 083B 4F                mov X,SP
 083C 3803              add SP,3
 083E                   .dbline 543
 083E           ; }
 083E           ; }
 083E           ; }
 083E           ; }
 083E           ; }
 083E           ; }
 083E           ; }
 083E           ; }
 083E           ; }
 083E           L289:
 083E                   .dbline 548
 083E           ; }
 083E           ; }
 083E           ; }
 083E           ; }
 083E           ; }
 083E                   .dbline 549
 083E           ; }
 083E 10                push X
 083F 5001              mov A,1
 0841 7C0000            xcall _LCD_Control
 0844                   .dbline 550
 0844           ; }
 0844 5039              mov A,>L292
 0846 08                push A
 0847 5039              mov A,<L292
 0849 5C                mov X,A
 084A 18                pop A
 084B 7C0000            xcall _LCD_PrCString
 084E                   .dbline 551
 084E           ; }
 084E 5700              mov X,0
 0850 5001              mov A,1
 0852 7C0000            xcall _LCD_Position
 0855 20                pop X
 0856                   .dbline 552
 0856           ; }
 0856 62D000            mov REG[0xd0],>_Fla4
 0859 3C0000            cmp [_Fla4],0
 085C B00F              jnz L293
 085E                   .dbline 552
 085E 10                push X
 085F 50D7              mov A,>L133
 0861 08                push A
 0862 50D7              mov A,<L133
 0864 5C                mov X,A
 0865 18                pop A
 0866 7C0000            xcall _LCD_PrCString
 0869 20                pop X
 086A 800D              xjmp L294
 086C           L293:
 086C                   .dbline 553
 086C           ; }
 086C 10                push X
 086D 50D4              mov A,>L134
 086F 08                push A
 0870 50D4              mov A,<L134
 0872 5C                mov X,A
 0873 18                pop A
 0874 7C0000            xcall _LCD_PrCString
 0877 20                pop X
 0878           L294:
 0878                   .dbline 554
 0878           ; }
 0878 7C0000            xcall _bucle_temp
 087B                   .dbline 555
 087B           ; }
 087B 981F              xcall _Pulsador
 087D 5400              mov [X+0],A
 087F                   .dbline 556
 087F           ; }
 087F 62D000            mov REG[0xd0],>_Buzzer
 0882 3C0001            cmp [_Buzzer],1
 0885 B004              jnz L295
 0887                   .dbline 556
 0887 7C0034            xcall _Pitido
 088A           L295:
 088A                   .dbline 557
 088A           ; }
 088A 3D0001            cmp [X+0],1
 088D A006              jz L299
 088F 3D0002            cmp [X+0],2
 0892 B00A              jnz L297
 0894           L299:
 0894                   .dbline 558
 0894           ; }
 0894                   .dbline 559
 0894           ; }
 0894 5D00              mov A,REG[ 0]
 0896 62D000            mov REG[0xd0],>__r0
 0899 6000              mov REG[ 0],A
 089B                   .dbline 560
 089B           ; }
 089B 8019              xjmp L298
 089D           L297:
 089D                   .dbline 561
 089D           ; }
 089D 3D0003            cmp [X+0],3
 08A0 B014              jnz L300
 08A2                   .dbline 562
 08A2           ; }
 08A2                   .dbline 563
 08A2           ; }
 08A2 62D000            mov REG[0xd0],>_Fla4
 08A5 3C0000            cmp [_Fla4],0
 08A8 B006              jnz L302
 08AA                   .dbline 563
 08AA 550001            mov [_Fla4],1
 08AD 8007              xjmp L303
 08AF           L302:
 08AF                   .dbline 564
 08AF           ; }
 08AF 62D000            mov REG[0xd0],>_Fla4
 08B2 550000            mov [_Fla4],0
 08B5           L303:
 08B5                   .dbline 565
 08B5           ; }
 08B5           L300:
 08B5           L298:
 08B5                   .dbline 566
 08B5           L290:
 08B5                   .dbline 566
 08B5           ; }
 08B5 3D0004            cmp [X+0],4
 08B8 BF85              jnz L289
 08BA                   .dbline -2
 08BA                   .dbline 567
 08BA           ; }
 08BA           L288:
 08BA 38FD              add SP,-3
 08BC 20                pop X
 08BD                   .dbline 0 ; func end
 08BD 7F                ret
 08BE                   .dbsym l x 1 i
 08BE                   .dbsym l pulsat 0 c
 08BE                   .dbend
 08BE                   .dbfunc e Dispar _Dispar fV
 08BE           ;              x -> X+2
 08BE           ;           menu -> X+1
 08BE           ;         pulsat -> X+0
 08BE           _Dispar::
 08BE                   .dbline -1
 08BE 10                push X
 08BF 4F                mov X,SP
 08C0 3804              add SP,4
 08C2                   .dbline 577
 08C2           ; }
 08C2           ; }
 08C2           ; }
 08C2           ; }
 08C2           ; }
 08C2           ; }
 08C2           ; }
 08C2           ; }
 08C2           ; }
 08C2           ; }
 08C2                   .dbline 579
 08C2           ; }
 08C2           ; }
 08C2 560101            mov [X+1],1
 08C5           L305:
 08C5                   .dbline 583
 08C5           ; }
 08C5           ; }
 08C5           ; }
 08C5           ; }
 08C5                   .dbline 584
 08C5           ; }
 08C5 10                push X
 08C6 5001              mov A,1
 08C8 7C0000            xcall _LCD_Control
 08CB                   .dbline 585
 08CB           ; }
 08CB 502A              mov A,>L308
 08CD 08                push A
 08CE 502A              mov A,<L308
 08D0 5C                mov X,A
 08D1 18                pop A
 08D2 7C0000            xcall _LCD_PrCString
 08D5                   .dbline 586
 08D5           ; }
 08D5 5700              mov X,0
 08D7 5001              mov A,1
 08D9 7C0000            xcall _LCD_Position
 08DC 20                pop X
 08DD                   .dbline 587
 08DD           ; }
 08DD 3D0101            cmp [X+1],1
 08E0 B00F              jnz L309
 08E2                   .dbline 587
 08E2 10                push X
 08E3 501F              mov A,>L311
 08E5 08                push A
 08E6 501F              mov A,<L311
 08E8 5C                mov X,A
 08E9 18                pop A
 08EA 7C0000            xcall _LCD_PrCString
 08ED 20                pop X
 08EE 8012              xjmp L310
 08F0           L309:
 08F0                   .dbline 588
 08F0           ; }
 08F0 3D0102            cmp [X+1],2
 08F3 B00D              jnz L312
 08F5                   .dbline 588
 08F5 10                push X
 08F6 5014              mov A,>L314
 08F8 08                push A
 08F9 5014              mov A,<L314
 08FB 5C                mov X,A
 08FC 18                pop A
 08FD 7C0000            xcall _LCD_PrCString
 0900 20                pop X
 0901           L312:
 0901           L310:
 0901                   .dbline 589
 0901           ; }
 0901 7C0000            xcall _bucle_temp
 0904                   .dbline 590
 0904           ; }
 0904 7C009C            xcall _Pulsador
 0907 5400              mov [X+0],A
 0909                   .dbline 591
 0909           ; }
 0909 62D000            mov REG[0xd0],>_Buzzer
 090C 3C0001            cmp [_Buzzer],1
 090F B004              jnz L315
 0911                   .dbline 591
 0911 7C0034            xcall _Pitido
 0914           L315:
 0914                   .dbline 592
 0914           ; }
 0914 3D0001            cmp [X+0],1
 0917 B019              jnz L317
 0919                   .dbline 593
 0919           ; }
 0919                   .dbline 594
 0919           ; }
 0919 62D000            mov REG[0xd0],>__r0
 091C 5201              mov A,[X+1]
 091E 0101              add A,1
 0920 5300              mov [__r0],A
 0922 5002              mov A,2
 0924 3A00              cmp A,[__r0]
 0926 D006              jnc L319
 0928           X12:
 0928                   .dbline 594
 0928 560101            mov [X+1],1
 092B 8033              xjmp L318
 092D           L319:
 092D                   .dbline 595
 092D           ; }
 092D 7701              inc [X+1]
 092F                   .dbline 596
 092F           ; }
 092F 802F              xjmp L318
 0931           L317:
 0931                   .dbline 597
 0931           ; }
 0931 3D0003            cmp [X+0],3
 0934 B013              jnz L321
 0936                   .dbline 598
 0936           ; }
 0936                   .dbline 599
 0936           ; }
 0936 3D0101            cmp [X+1],1
 0939 B005              jnz L323
 093B                   .dbline 599
 093B 902B              xcall _Camara1
 093D 8021              xjmp L322
 093F           L323:
 093F                   .dbline 600
 093F           ; }
 093F 3D0102            cmp [X+1],2
 0942 B01C              jnz L322
 0944                   .dbline 600
 0944 90CF              xcall _Camara2
 0946                   .dbline 601
 0946           ; }
 0946 8018              xjmp L322
 0948           L321:
 0948                   .dbline 602
 0948           ; }
 0948 3D0002            cmp [X+0],2
 094B B013              jnz L327
 094D                   .dbline 603
 094D           ; }
 094D                   .dbline 604
 094D           ; }
 094D 62D000            mov REG[0xd0],>__r0
 0950 5201              mov A,[X+1]
 0952 1101              sub A,1
 0954 3901              cmp A,1
 0956 D006              jnc L329
 0958           X13:
 0958                   .dbline 604
 0958 560102            mov [X+1],2
 095B 8003              xjmp L330
 095D           L329:
 095D                   .dbline 605
 095D           ; }
 095D 7B01              dec [X+1]
 095F           L330:
 095F                   .dbline 606
 095F           ; }
 095F           L327:
 095F           L322:
 095F           L318:
 095F                   .dbline 607
 095F           L306:
 095F                   .dbline 607
 095F           ; }
 095F 3D0004            cmp [X+0],4
 0962 BF62              jnz L305
 0964                   .dbline -2
 0964                   .dbline 608
 0964           ; }
 0964           L304:
 0964 38FC              add SP,-4
 0966 20                pop X
 0967                   .dbline 0 ; func end
 0967 7F                ret
 0968                   .dbsym l x 2 i
 0968                   .dbsym l menu 1 c
 0968                   .dbsym l pulsat 0 c
 0968                   .dbend
 0968                   .dbfunc e Camara1 _Camara1 fV
 0968           ;              x -> X+1
 0968           ;         pulsat -> X+0
 0968           _Camara1::
 0968                   .dbline -1
 0968 10                push X
 0969 4F                mov X,SP
 096A 3803              add SP,3
 096C                   .dbline 617
 096C           ; }
 096C           ; }
 096C           ; }
 096C           ; }
 096C           ; }
 096C           ; }
 096C           ; }
 096C           ; }
 096C           ; }
 096C           L332:
 096C                   .dbline 622
 096C           ; }
 096C           ; }
 096C           ; }
 096C           ; }
 096C           ; }
 096C                   .dbline 623
 096C           ; }
 096C 10                push X
 096D 5001              mov A,1
 096F 7C0000            xcall _LCD_Control
 0972                   .dbline 624
 0972           ; }
 0972 500A              mov A,>L335
 0974 08                push A
 0975 500A              mov A,<L335
 0977 5C                mov X,A
 0978 18                pop A
 0979 7C0000            xcall _LCD_PrCString
 097C                   .dbline 625
 097C           ; }
 097C 5700              mov X,0
 097E 5001              mov A,1
 0980 7C0000            xcall _LCD_Position
 0983 20                pop X
 0984                   .dbline 626
 0984           ; }
 0984 62D000            mov REG[0xd0],>_Cam1
 0987 3C0000            cmp [_Cam1],0
 098A B00F              jnz L336
 098C                   .dbline 626
 098C 10                push X
 098D 50FF              mov A,>L338
 098F 08                push A
 0990 50FF              mov A,<L338
 0992 5C                mov X,A
 0993 18                pop A
 0994 7C0000            xcall _LCD_PrCString
 0997 20                pop X
 0998 8041              xjmp L337
 099A           L336:
 099A                   .dbline 627
 099A           ; }
 099A 62D000            mov REG[0xd0],>_Cam1
 099D 3C0001            cmp [_Cam1],1
 09A0 B00F              jnz L339
 09A2                   .dbline 627
 09A2 10                push X
 09A3 50F3              mov A,>L341
 09A5 08                push A
 09A6 50F3              mov A,<L341
 09A8 5C                mov X,A
 09A9 18                pop A
 09AA 7C0000            xcall _LCD_PrCString
 09AD 20                pop X
 09AE 802B              xjmp L340
 09B0           L339:
 09B0                   .dbline 628
 09B0           ; }
 09B0 62D000            mov REG[0xd0],>_Cam1
 09B3 3C0002            cmp [_Cam1],2
 09B6 B00F              jnz L342
 09B8                   .dbline 628
 09B8 10                push X
 09B9 50E4              mov A,>L344
 09BB 08                push A
 09BC 50E4              mov A,<L344
 09BE 5C                mov X,A
 09BF 18                pop A
 09C0 7C0000            xcall _LCD_PrCString
 09C3 20                pop X
 09C4 8015              xjmp L343
 09C6           L342:
 09C6                   .dbline 629
 09C6           ; }
 09C6 62D000            mov REG[0xd0],>_Cam1
 09C9 3C0003            cmp [_Cam1],3
 09CC B00D              jnz L345
 09CE                   .dbline 629
 09CE 10                push X
 09CF 50D9              mov A,>L347
 09D1 08                push A
 09D2 50D9              mov A,<L347
 09D4 5C                mov X,A
 09D5 18                pop A
 09D6 7C0000            xcall _LCD_PrCString
 09D9 20                pop X
 09DA           L345:
 09DA           L343:
 09DA           L340:
 09DA           L337:
 09DA                   .dbline 630
 09DA           ; }
 09DA 7C0000            xcall _bucle_temp
 09DD                   .dbline 631
 09DD           ; }
 09DD 7C009C            xcall _Pulsador
 09E0 5400              mov [X+0],A
 09E2                   .dbline 632
 09E2           ; }
 09E2 62D000            mov REG[0xd0],>_Buzzer
 09E5 3C0001            cmp [_Buzzer],1
 09E8 B004              jnz L348
 09EA                   .dbline 632
 09EA 7C0034            xcall _Pitido
 09ED           L348:
 09ED                   .dbline 633
 09ED           ; }
 09ED 3D0001            cmp [X+0],1
 09F0 A006              jz L352
 09F2 3D0002            cmp [X+0],2
 09F5 B00A              jnz L350
 09F7           L352:
 09F7                   .dbline 634
 09F7           ; }
 09F7                   .dbline 635
 09F7           ; }
 09F7 5D00              mov A,REG[ 0]
 09F9 62D000            mov REG[0xd0],>__r0
 09FC 6000              mov REG[ 0],A
 09FE                   .dbline 636
 09FE           ; }
 09FE 800D              xjmp L351
 0A00           L350:
 0A00                   .dbline 637
 0A00           ; }
 0A00 3D0003            cmp [X+0],3
 0A03 B008              jnz L353
 0A05                   .dbline 638
 0A05           ; }
 0A05                   .dbline 639
 0A05           ; }
 0A05 5001              mov A,1
 0A07 08                push A
 0A08 90B8              xcall _Tipo_disp
 0A0A 38FF              add SP,-1
 0A0C                   .dbline 640
 0A0C           ; }
 0A0C           L353:
 0A0C           L351:
 0A0C                   .dbline 641
 0A0C           L333:
 0A0C                   .dbline 641
 0A0C           ; }
 0A0C 3D0004            cmp [X+0],4
 0A0F BF5C              jnz L332
 0A11                   .dbline -2
 0A11                   .dbline 642
 0A11           ; }
 0A11           L331:
 0A11 38FD              add SP,-3
 0A13 20                pop X
 0A14                   .dbline 0 ; func end
 0A14 7F                ret
 0A15                   .dbsym l x 1 i
 0A15                   .dbsym l pulsat 0 c
 0A15                   .dbend
 0A15                   .dbfunc e Camara2 _Camara2 fV
 0A15           ;              x -> X+1
 0A15           ;         pulsat -> X+0
 0A15           _Camara2::
 0A15                   .dbline -1
 0A15 10                push X
 0A16 4F                mov X,SP
 0A17 3803              add SP,3
 0A19                   .dbline 651
 0A19           ; }
 0A19           ; }
 0A19           ; }
 0A19           ; }
 0A19           ; }
 0A19           ; }
 0A19           ; }
 0A19           ; }
 0A19           ; }
 0A19           L356:
 0A19                   .dbline 656
 0A19           ; }
 0A19           ; }
 0A19           ; }
 0A19           ; }
 0A19           ; }
 0A19                   .dbline 657
 0A19           ; }
 0A19 10                push X
 0A1A 5001              mov A,1
 0A1C 7C0000            xcall _LCD_Control
 0A1F                   .dbline 658
 0A1F           ; }
 0A1F 50CF              mov A,>L359
 0A21 08                push A
 0A22 50CF              mov A,<L359
 0A24 5C                mov X,A
 0A25 18                pop A
 0A26 7C0000            xcall _LCD_PrCString
 0A29                   .dbline 659
 0A29           ; }
 0A29 5700              mov X,0
 0A2B 5001              mov A,1
 0A2D 7C0000            xcall _LCD_Position
 0A30 20                pop X
 0A31                   .dbline 660
 0A31           ; }
 0A31 62D000            mov REG[0xd0],>_Cam2
 0A34 3C0000            cmp [_Cam2],0
 0A37 B00F              jnz L360
 0A39                   .dbline 660
 0A39 10                push X
 0A3A 50FF              mov A,>L338
 0A3C 08                push A
 0A3D 50FF              mov A,<L338
 0A3F 5C                mov X,A
 0A40 18                pop A
 0A41 7C0000            xcall _LCD_PrCString
 0A44 20                pop X
 0A45 8041              xjmp L361
 0A47           L360:
 0A47                   .dbline 661
 0A47           ; }
 0A47 62D000            mov REG[0xd0],>_Cam2
 0A4A 3C0001            cmp [_Cam2],1
 0A4D B00F              jnz L362
 0A4F                   .dbline 661
 0A4F 10                push X
 0A50 50F3              mov A,>L341
 0A52 08                push A
 0A53 50F3              mov A,<L341
 0A55 5C                mov X,A
 0A56 18                pop A
 0A57 7C0000            xcall _LCD_PrCString
 0A5A 20                pop X
 0A5B 802B              xjmp L363
 0A5D           L362:
 0A5D                   .dbline 662
 0A5D           ; }
 0A5D 62D000            mov REG[0xd0],>_Cam2
 0A60 3C0002            cmp [_Cam2],2
 0A63 B00F              jnz L364
 0A65                   .dbline 662
 0A65 10                push X
 0A66 50E4              mov A,>L344
 0A68 08                push A
 0A69 50E4              mov A,<L344
 0A6B 5C                mov X,A
 0A6C 18                pop A
 0A6D 7C0000            xcall _LCD_PrCString
 0A70 20                pop X
 0A71 8015              xjmp L365
 0A73           L364:
 0A73                   .dbline 663
 0A73           ; }
 0A73 62D000            mov REG[0xd0],>_Cam2
 0A76 3C0003            cmp [_Cam2],3
 0A79 B00D              jnz L366
 0A7B                   .dbline 663
 0A7B 10                push X
 0A7C 50D9              mov A,>L347
 0A7E 08                push A
 0A7F 50D9              mov A,<L347
 0A81 5C                mov X,A
 0A82 18                pop A
 0A83 7C0000            xcall _LCD_PrCString
 0A86 20                pop X
 0A87           L366:
 0A87           L365:
 0A87           L363:
 0A87           L361:
 0A87                   .dbline 664
 0A87           ; }
 0A87 7C0000            xcall _bucle_temp
 0A8A                   .dbline 665
 0A8A           ; }
 0A8A 7C009C            xcall _Pulsador
 0A8D 5400              mov [X+0],A
 0A8F                   .dbline 666
 0A8F           ; }
 0A8F 62D000            mov REG[0xd0],>_Buzzer
 0A92 3C0001            cmp [_Buzzer],1
 0A95 B004              jnz L368
 0A97                   .dbline 666
 0A97 7C0034            xcall _Pitido
 0A9A           L368:
 0A9A                   .dbline 667
 0A9A           ; }
 0A9A 3D0001            cmp [X+0],1
 0A9D A006              jz L372
 0A9F 3D0002            cmp [X+0],2
 0AA2 B00A              jnz L370
 0AA4           L372:
 0AA4                   .dbline 668
 0AA4           ; }
 0AA4                   .dbline 669
 0AA4           ; }
 0AA4 5D00              mov A,REG[ 0]
 0AA6 62D000            mov REG[0xd0],>__r0
 0AA9 6000              mov REG[ 0],A
 0AAB                   .dbline 670
 0AAB           ; }
 0AAB 800D              xjmp L371
 0AAD           L370:
 0AAD                   .dbline 671
 0AAD           ; }
 0AAD 3D0003            cmp [X+0],3
 0AB0 B008              jnz L373
 0AB2                   .dbline 672
 0AB2           ; }
 0AB2                   .dbline 673
 0AB2           ; }
 0AB2 5002              mov A,2
 0AB4 08                push A
 0AB5 900B              xcall _Tipo_disp
 0AB7 38FF              add SP,-1
 0AB9                   .dbline 674
 0AB9           ; }
 0AB9           L373:
 0AB9           L371:
 0AB9                   .dbline 675
 0AB9           L357:
 0AB9                   .dbline 675
 0AB9           ; }
 0AB9 3D0004            cmp [X+0],4
 0ABC BF5C              jnz L356
 0ABE                   .dbline -2
 0ABE                   .dbline 676
 0ABE           ; }
 0ABE           L355:
 0ABE 38FD              add SP,-3
 0AC0 20                pop X
 0AC1                   .dbline 0 ; func end
 0AC1 7F                ret
 0AC2                   .dbsym l x 1 i
 0AC2                   .dbsym l pulsat 0 c
 0AC2                   .dbend
 0AC2                   .dbfunc e Tipo_disp _Tipo_disp fV
 0AC2           ;              x -> X+2
 0AC2           ;           menu -> X+1
 0AC2           ;         pulsat -> X+0
 0AC2           ;         camara -> X-4
 0AC2           _Tipo_disp::
 0AC2                   .dbline -1
 0AC2 10                push X
 0AC3 4F                mov X,SP
 0AC4 3804              add SP,4
 0AC6                   .dbline 686
 0AC6           ; }
 0AC6           ; }
 0AC6           ; }
 0AC6           ; }
 0AC6           ; }
 0AC6           ; }
 0AC6           ; }
 0AC6           ; }
 0AC6           ; }
 0AC6           ; }
 0AC6                   .dbline 690
 0AC6           ; }
 0AC6           ; }
 0AC6           ; }
 0AC6           ; }
 0AC6 3DFC01            cmp [X-4],1
 0AC9 B00C              jnz L376
 0ACB                   .dbline 690
 0ACB 62D000            mov REG[0xd0],>_Cam1
 0ACE 5100              mov A,[_Cam1]
 0AD0 0101              add A,1
 0AD2 5401              mov [X+1],A
 0AD4 800F              xjmp L377
 0AD6           L376:
 0AD6                   .dbline 691
 0AD6           ; }
 0AD6 3DFC02            cmp [X-4],2
 0AD9 B00A              jnz L378
 0ADB                   .dbline 691
 0ADB 62D000            mov REG[0xd0],>_Cam2
 0ADE 5100              mov A,[_Cam2]
 0AE0 0101              add A,1
 0AE2 5401              mov [X+1],A
 0AE4           L378:
 0AE4           L377:
 0AE4           L380:
 0AE4                   .dbline 694
 0AE4           ; }
 0AE4           ; }
 0AE4           ; }
 0AE4                   .dbline 695
 0AE4           ; }
 0AE4 10                push X
 0AE5 5001              mov A,1
 0AE7 7C0000            xcall _LCD_Control
 0AEA                   .dbline 696
 0AEA           ; }
 0AEA 50C0              mov A,>L383
 0AEC 08                push A
 0AED 50C0              mov A,<L383
 0AEF 5C                mov X,A
 0AF0 18                pop A
 0AF1 7C0000            xcall _LCD_PrCString
 0AF4                   .dbline 697
 0AF4           ; }
 0AF4 5700              mov X,0
 0AF6 5001              mov A,1
 0AF8 7C0000            xcall _LCD_Position
 0AFB 20                pop X
 0AFC                   .dbline 698
 0AFC           ; }
 0AFC 3D0101            cmp [X+1],1
 0AFF B00F              jnz L384
 0B01                   .dbline 698
 0B01 10                push X
 0B02 50FF              mov A,>L338
 0B04 08                push A
 0B05 50FF              mov A,<L338
 0B07 5C                mov X,A
 0B08 18                pop A
 0B09 7C0000            xcall _LCD_PrCString
 0B0C 20                pop X
 0B0D 8038              xjmp L385
 0B0F           L384:
 0B0F                   .dbline 699
 0B0F           ; }
 0B0F 3D0102            cmp [X+1],2
 0B12 B00F              jnz L386
 0B14                   .dbline 699
 0B14 10                push X
 0B15 50F3              mov A,>L341
 0B17 08                push A
 0B18 50F3              mov A,<L341
 0B1A 5C                mov X,A
 0B1B 18                pop A
 0B1C 7C0000            xcall _LCD_PrCString
 0B1F 20                pop X
 0B20 8025              xjmp L387
 0B22           L386:
 0B22                   .dbline 700
 0B22           ; }
 0B22 3D0103            cmp [X+1],3
 0B25 B00F              jnz L388
 0B27                   .dbline 700
 0B27 10                push X
 0B28 50E4              mov A,>L344
 0B2A 08                push A
 0B2B 50E4              mov A,<L344
 0B2D 5C                mov X,A
 0B2E 18                pop A
 0B2F 7C0000            xcall _LCD_PrCString
 0B32 20                pop X
 0B33 8012              xjmp L389
 0B35           L388:
 0B35                   .dbline 701
 0B35           ; }
 0B35 3D0104            cmp [X+1],4
 0B38 B00D              jnz L390
 0B3A                   .dbline 701
 0B3A 10                push X
 0B3B 50D9              mov A,>L347
 0B3D 08                push A
 0B3E 50D9              mov A,<L347
 0B40 5C                mov X,A
 0B41 18                pop A
 0B42 7C0000            xcall _LCD_PrCString
 0B45 20                pop X
 0B46           L390:
 0B46           L389:
 0B46           L387:
 0B46           L385:
 0B46                   .dbline 702
 0B46           ; }
 0B46 7C0000            xcall _bucle_temp
 0B49                   .dbline 703
 0B49           ; }
 0B49 7C009C            xcall _Pulsador
 0B4C 5400              mov [X+0],A
 0B4E                   .dbline 704
 0B4E           ; }
 0B4E 62D000            mov REG[0xd0],>_Buzzer
 0B51 3C0001            cmp [_Buzzer],1
 0B54 B004              jnz L392
 0B56                   .dbline 704
 0B56 7C0034            xcall _Pitido
 0B59           L392:
 0B59                   .dbline 705
 0B59           ; }
 0B59 3D0001            cmp [X+0],1
 0B5C B019              jnz L394
 0B5E                   .dbline 706
 0B5E           ; }
 0B5E                   .dbline 707
 0B5E           ; }
 0B5E 62D000            mov REG[0xd0],>__r0
 0B61 5201              mov A,[X+1]
 0B63 0101              add A,1
 0B65 5300              mov [__r0],A
 0B67 5004              mov A,4
 0B69 3A00              cmp A,[__r0]
 0B6B D006              jnc L396
 0B6D           X14:
 0B6D                   .dbline 707
 0B6D 560101            mov [X+1],1
 0B70 805F              xjmp L395
 0B72           L396:
 0B72                   .dbline 708
 0B72           ; }
 0B72 7701              inc [X+1]
 0B74                   .dbline 709
 0B74           ; }
 0B74 805B              xjmp L395
 0B76           L394:
 0B76                   .dbline 710
 0B76           ; }
 0B76 3D0003            cmp [X+0],3
 0B79 B03F              jnz L398
 0B7B                   .dbline 711
 0B7B           ; }
 0B7B                   .dbline 712
 0B7B           ; }
 0B7B 3DFC01            cmp [X-4],1
 0B7E B00C              jnz L400
 0B80                   .dbline 712
 0B80 5201              mov A,[X+1]
 0B82 1101              sub A,1
 0B84 62D000            mov REG[0xd0],>_Cam1
 0B87 5300              mov [_Cam1],A
 0B89 800F              xjmp L401
 0B8B           L400:
 0B8B                   .dbline 713
 0B8B           ; }
 0B8B 3DFC02            cmp [X-4],2
 0B8E B00A              jnz L402
 0B90                   .dbline 713
 0B90 5201              mov A,[X+1]
 0B92 1101              sub A,1
 0B94 62D000            mov REG[0xd0],>_Cam2
 0B97 5300              mov [_Cam2],A
 0B99           L402:
 0B99           L401:
 0B99                   .dbline 714
 0B99           ; }
 0B99 3D0103            cmp [X+1],3
 0B9C B00A              jnz L404
 0B9E                   .dbline 714
 0B9E 52FC              mov A,[X-4]
 0BA0 08                push A
 0BA1 9036              xcall _Intervalometro
 0BA3 38FF              add SP,-1
 0BA5 800E              xjmp L405
 0BA7           L404:
 0BA7                   .dbline 715
 0BA7           ; }
 0BA7 3D0104            cmp [X+1],4
 0BAA B009              jnz L406
 0BAC                   .dbline 715
 0BAC 52FC              mov A,[X-4]
 0BAE 08                push A
 0BAF 7C0000            xcall _TimeLapse
 0BB2 38FF              add SP,-1
 0BB4           L406:
 0BB4           L405:
 0BB4                   .dbline 716
 0BB4           ; }
 0BB4 560004            mov [X+0],4
 0BB7                   .dbline 717
 0BB7           ; }
 0BB7 8018              xjmp L399
 0BB9           L398:
 0BB9                   .dbline 718
 0BB9           ; }
 0BB9 3D0002            cmp [X+0],2
 0BBC B013              jnz L408
 0BBE                   .dbline 719
 0BBE           ; }
 0BBE                   .dbline 720
 0BBE           ; }
 0BBE 62D000            mov REG[0xd0],>__r0
 0BC1 5201              mov A,[X+1]
 0BC3 1101              sub A,1
 0BC5 3901              cmp A,1
 0BC7 D006              jnc L410
 0BC9           X15:
 0BC9                   .dbline 720
 0BC9 560104            mov [X+1],4
 0BCC 8003              xjmp L411
 0BCE           L410:
 0BCE                   .dbline 721
 0BCE           ; }
 0BCE 7B01              dec [X+1]
 0BD0           L411:
 0BD0                   .dbline 722
 0BD0           ; }
 0BD0           L408:
 0BD0           L399:
 0BD0           L395:
 0BD0                   .dbline 723
 0BD0           L381:
 0BD0                   .dbline 723
 0BD0           ; }
 0BD0 3D0004            cmp [X+0],4
 0BD3 BF10              jnz L380
 0BD5                   .dbline -2
 0BD5                   .dbline 724
 0BD5           ; }
 0BD5           L375:
 0BD5 38FC              add SP,-4
 0BD7 20                pop X
 0BD8                   .dbline 0 ; func end
 0BD8 7F                ret
 0BD9                   .dbsym l x 2 i
 0BD9                   .dbsym l menu 1 c
 0BD9                   .dbsym l pulsat 0 c
 0BD9                   .dbsym l camara -4 c
 0BD9                   .dbend
 0BD9                   .dbfunc e Intervalometro _Intervalometro fV
 0BD9           ;              x -> X+2
 0BD9           ;           menu -> X+1
 0BD9           ;         pulsat -> X+0
 0BD9           ;         camara -> X-4
 0BD9           _Intervalometro::
 0BD9                   .dbline -1
 0BD9 10                push X
 0BDA 4F                mov X,SP
 0BDB 3804              add SP,4
 0BDD                   .dbline 732
 0BDD           ; }
 0BDD           ; }
 0BDD           ; }
 0BDD           ; }
 0BDD           ; }
 0BDD           ; }
 0BDD           ; }
 0BDD           ; }
 0BDD           L413:
 0BDD                   .dbline 737
 0BDD           ; }
 0BDD           ; }
 0BDD           ; }
 0BDD           ; }
 0BDD           ; }
 0BDD                   .dbline 738
 0BDD           ; }
 0BDD 10                push X
 0BDE 5001              mov A,1
 0BE0 7C0000            xcall _LCD_Control
 0BE3                   .dbline 739
 0BE3           ; }
 0BE3 50B0              mov A,>L416
 0BE5 08                push A
 0BE6 50B0              mov A,<L416
 0BE8 5C                mov X,A
 0BE9 18                pop A
 0BEA 7C0000            xcall _LCD_PrCString
 0BED                   .dbline 740
 0BED           ; }
 0BED 5700              mov X,0
 0BEF 5001              mov A,1
 0BF1 7C0000            xcall _LCD_Position
 0BF4 20                pop X
 0BF5                   .dbline 741
 0BF5           ; }
 0BF5 3D0101            cmp [X+1],1
 0BF8 B00F              jnz L417
 0BFA                   .dbline 741
 0BFA 10                push X
 0BFB 50A3              mov A,>L419
 0BFD 08                push A
 0BFE 50A3              mov A,<L419
 0C00 5C                mov X,A
 0C01 18                pop A
 0C02 7C0000            xcall _LCD_PrCString
 0C05 20                pop X
 0C06 8012              xjmp L418
 0C08           L417:
 0C08                   .dbline 742
 0C08           ; }
 0C08 3D0102            cmp [X+1],2
 0C0B B00D              jnz L420
 0C0D                   .dbline 742
 0C0D 10                push X
 0C0E 5093              mov A,>L422
 0C10 08                push A
 0C11 5093              mov A,<L422
 0C13 5C                mov X,A
 0C14 18                pop A
 0C15 7C0000            xcall _LCD_PrCString
 0C18 20                pop X
 0C19           L420:
 0C19           L418:
 0C19                   .dbline 743
 0C19           ; }
 0C19 7C0000            xcall _bucle_temp
 0C1C                   .dbline 744
 0C1C           ; }
 0C1C 7C009C            xcall _Pulsador
 0C1F 5400              mov [X+0],A
 0C21                   .dbline 745
 0C21           ; }
 0C21 62D000            mov REG[0xd0],>_Buzzer
 0C24 3C0001            cmp [_Buzzer],1
 0C27 B004              jnz L423
 0C29                   .dbline 745
 0C29 7C0034            xcall _Pitido
 0C2C           L423:
 0C2C                   .dbline 746
 0C2C           ; }
 0C2C 3D0001            cmp [X+0],1
 0C2F B019              jnz L425
 0C31                   .dbline 747
 0C31           ; }
 0C31                   .dbline 748
 0C31           ; }
 0C31 62D000            mov REG[0xd0],>__r0
 0C34 5201              mov A,[X+1]
 0C36 0101              add A,1
 0C38 5300              mov [__r0],A
 0C3A 5002              mov A,2
 0C3C 3A00              cmp A,[__r0]
 0C3E D006              jnc L427
 0C40           X16:
 0C40                   .dbline 748
 0C40 560101            mov [X+1],1
 0C43 8044              xjmp L426
 0C45           L427:
 0C45                   .dbline 749
 0C45           ; }
 0C45 7701              inc [X+1]
 0C47                   .dbline 750
 0C47           ; }
 0C47 8040              xjmp L426
 0C49           L425:
 0C49                   .dbline 751
 0C49           ; }
 0C49 3D0003            cmp [X+0],3
 0C4C B024              jnz L429
 0C4E                   .dbline 752
 0C4E           ; }
 0C4E                   .dbline 753
 0C4E           ; }
 0C4E 3DFC01            cmp [X-4],1
 0C51 B00C              jnz L431
 0C53                   .dbline 753
 0C53 5201              mov A,[X+1]
 0C55 1101              sub A,1
 0C57 62D000            mov REG[0xd0],>_Cam1
 0C5A 5300              mov [_Cam1],A
 0C5C 800F              xjmp L432
 0C5E           L431:
 0C5E                   .dbline 754
 0C5E           ; }
 0C5E 3DFC02            cmp [X-4],2
 0C61 B00A              jnz L433
 0C63                   .dbline 754
 0C63 5201              mov A,[X+1]
 0C65 1101              sub A,1
 0C67 62D000            mov REG[0xd0],>_Cam2
 0C6A 5300              mov [_Cam2],A
 0C6C           L433:
 0C6C           L432:
 0C6C                   .dbline 755
 0C6C           ; }
 0C6C 560004            mov [X+0],4
 0C6F                   .dbline 756
 0C6F           ; }
 0C6F 8018              xjmp L430
 0C71           L429:
 0C71                   .dbline 757
 0C71           ; }
 0C71 3D0002            cmp [X+0],2
 0C74 B013              jnz L435
 0C76                   .dbline 758
 0C76           ; }
 0C76                   .dbline 759
 0C76           ; }
 0C76 62D000            mov REG[0xd0],>__r0
 0C79 5201              mov A,[X+1]
 0C7B 1101              sub A,1
 0C7D 3901              cmp A,1
 0C7F D006              jnc L437
 0C81           X17:
 0C81                   .dbline 759
 0C81 560102            mov [X+1],2
 0C84 8003              xjmp L438
 0C86           L437:
 0C86                   .dbline 760
 0C86           ; }
 0C86 7B01              dec [X+1]
 0C88           L438:
 0C88                   .dbline 761
 0C88           ; }
 0C88           L435:
 0C88           L430:
 0C88           L426:
 0C88                   .dbline 762
 0C88           L414:
 0C88                   .dbline 762
 0C88           ; }
 0C88 3D0004            cmp [X+0],4
 0C8B BF51              jnz L413
 0C8D                   .dbline -2
 0C8D                   .dbline 764
 0C8D           ; }
 0C8D           ; }
 0C8D           L412:
 0C8D 38FC              add SP,-4
 0C8F 20                pop X
 0C90                   .dbline 0 ; func end
 0C90 7F                ret
 0C91                   .dbsym l x 2 i
 0C91                   .dbsym l menu 1 c
 0C91                   .dbsym l pulsat 0 c
 0C91                   .dbsym l camara -4 c
 0C91                   .dbend
 0C91                   .dbfunc e Executar _Executar fV
 0C91           ;              x -> X+2
 0C91           ;           menu -> X+1
 0C91           ;         pulsat -> X+0
 0C91           _Executar::
 0C91                   .dbline -1
 0C91 10                push X
 0C92 4F                mov X,SP
 0C93 3804              add SP,4
 0C95                   .dbline 774
 0C95           ; }
 0C95           ; }
 0C95           ; }
 0C95           ; }
 0C95           ; }
 0C95           ; }
 0C95           ; }
 0C95           ; }
 0C95           ; }
 0C95           ; }
 0C95                   .dbline 775
 0C95           ; }
 0C95 560101            mov [X+1],1
 0C98           L440:
 0C98                   .dbline 779
 0C98           ; }
 0C98           ; }
 0C98           ; }
 0C98           ; }
 0C98                   .dbline 780
 0C98           ; }
 0C98 10                push X
 0C99 5001              mov A,1
 0C9B 7C0000            xcall _LCD_Control
 0C9E                   .dbline 781
 0C9E           ; }
 0C9E 5089              mov A,>L443
 0CA0 08                push A
 0CA1 5089              mov A,<L443
 0CA3 5C                mov X,A
 0CA4 18                pop A
 0CA5 7C0000            xcall _LCD_PrCString
 0CA8                   .dbline 782
 0CA8           ; }
 0CA8 5700              mov X,0
 0CAA 5001              mov A,1
 0CAC 7C0000            xcall _LCD_Position
 0CAF                   .dbline 783
 0CAF           ; }
 0CAF 5081              mov A,>L444
 0CB1 08                push A
 0CB2 5081              mov A,<L444
 0CB4 5C                mov X,A
 0CB5 18                pop A
 0CB6 7C0000            xcall _LCD_PrCString
 0CB9 20                pop X
 0CBA                   .dbline 784
 0CBA           ; }
 0CBA 7C0000            xcall _bucle_temp
 0CBD                   .dbline 785
 0CBD           ; }
 0CBD 7C009C            xcall _Pulsador
 0CC0 5400              mov [X+0],A
 0CC2                   .dbline 786
 0CC2           ; }
 0CC2 62D000            mov REG[0xd0],>_Buzzer
 0CC5 3C0001            cmp [_Buzzer],1
 0CC8 B006              jnz L445
 0CCA                   .dbline 786
 0CCA 7C0034            xcall _Pitido
 0CCD 800D              xjmp L446
 0CCF           L445:
 0CCF                   .dbline 787
 0CCF           ; }
 0CCF 3D0003            cmp [X+0],3
 0CD2 B008              jnz L447
 0CD4                   .dbline 788
 0CD4           ; }
 0CD4                   .dbline 789
 0CD4           ; }
 0CD4 3D0101            cmp [X+1],1
 0CD7 B003              jnz L449
 0CD9                   .dbline 789
 0CD9 9009              xcall _Ara
 0CDB           L449:
 0CDB                   .dbline 790
 0CDB           ; }
 0CDB           L447:
 0CDB           L446:
 0CDB                   .dbline 791
 0CDB           L441:
 0CDB                   .dbline 791
 0CDB           ; }
 0CDB 3D0004            cmp [X+0],4
 0CDE BFB9              jnz L440
 0CE0                   .dbline -2
 0CE0                   .dbline 792
 0CE0           ; }
 0CE0           L439:
 0CE0 38FC              add SP,-4
 0CE2 20                pop X
 0CE3                   .dbline 0 ; func end
 0CE3 7F                ret
 0CE4                   .dbsym l x 2 i
 0CE4                   .dbsym l menu 1 c
 0CE4                   .dbsym l pulsat 0 c
 0CE4                   .dbend
 0CE4                   .dbfunc e Ara _Ara fV
 0CE4           _Ara::
 0CE4                   .dbline -1
 0CE4                   .dbline 801
 0CE4           ; }
 0CE4           ; }
 0CE4           ; }
 0CE4           ; }
 0CE4           ; }
 0CE4           ; }
 0CE4           ; }
 0CE4           ; }
 0CE4           ; }
 0CE4                   .dbline 802
 0CE4           ; }
 0CE4 7C0060            xcall _Reset_PdT
 0CE7                   .dbline 803
 0CE7           ; }
 0CE7 5009              mov A,9
 0CE9 08                push A
 0CEA 908A              xcall _Envia
 0CEC 38FF              add SP,-1
 0CEE                   .dbline 804
 0CEE           ; }
 0CEE 62D000            mov REG[0xd0],>_Ent1
 0CF1 5100              mov A,[_Ent1]
 0CF3 08                push A
 0CF4 9080              xcall _Envia
 0CF6                   .dbline 805
 0CF6           ; }
 0CF6 62D000            mov REG[0xd0],>_Ent2
 0CF9 5100              mov A,[_Ent2]
 0CFB 08                push A
 0CFC 9078              xcall _Envia
 0CFE 38FE              add SP,-2
 0D00                   .dbline 806
 0D00           ; }
 0D00 62D000            mov REG[0xd0],>_Ent3
 0D03 5100              mov A,[_Ent3]
 0D05 08                push A
 0D06 906E              xcall _Envia
 0D08                   .dbline 807
 0D08           ; }
 0D08 62D000            mov REG[0xd0],>_Ent4
 0D0B 5100              mov A,[_Ent4]
 0D0D 08                push A
 0D0E 9066              xcall _Envia
 0D10 38FE              add SP,-2
 0D12                   .dbline 808
 0D12           ; }
 0D12 62D000            mov REG[0xd0],>_Cam1
 0D15 5100              mov A,[_Cam1]
 0D17 08                push A
 0D18 905C              xcall _Envia
 0D1A                   .dbline 809
 0D1A           ; }
 0D1A 62D000            mov REG[0xd0],>_Cam2
 0D1D 5100              mov A,[_Cam2]
 0D1F 08                push A
 0D20 9054              xcall _Envia
 0D22 38FE              add SP,-2
 0D24                   .dbline 810
 0D24           ; }
 0D24 62D000            mov REG[0xd0],>_Fla1
 0D27 5100              mov A,[_Fla1]
 0D29 08                push A
 0D2A 904A              xcall _Envia
 0D2C                   .dbline 811
 0D2C           ; }
 0D2C 62D000            mov REG[0xd0],>_Fla2
 0D2F 5100              mov A,[_Fla2]
 0D31 08                push A
 0D32 9042              xcall _Envia
 0D34 38FE              add SP,-2
 0D36                   .dbline 812
 0D36           ; }
 0D36 62D000            mov REG[0xd0],>_Fla3
 0D39 5100              mov A,[_Fla3]
 0D3B 08                push A
 0D3C 9038              xcall _Envia
 0D3E                   .dbline 813
 0D3E           ; }
 0D3E 62D000            mov REG[0xd0],>_Fla4
 0D41 5100              mov A,[_Fla4]
 0D43 08                push A
 0D44 9030              xcall _Envia
 0D46 38FE              add SP,-2
 0D48                   .dbline 817
 0D48           ; }
 0D48           ; }
 0D48           ; }
 0D48           ; }
 0D48 62D000            mov REG[0xd0],>_Buzzer
 0D4B 3C0001            cmp [_Buzzer],1
 0D4E B004              jnz L452
 0D50                   .dbline 817
 0D50 7C0034            xcall _Pitido
 0D53           L452:
 0D53                   .dbline 818
 0D53           ; }
 0D53 10                push X
 0D54 5001              mov A,1
 0D56 7C0000            xcall _LCD_Control
 0D59                   .dbline 819
 0D59           ; }
 0D59 5072              mov A,>L454
 0D5B 08                push A
 0D5C 5072              mov A,<L454
 0D5E 5C                mov X,A
 0D5F 18                pop A
 0D60 7C0000            xcall _LCD_PrCString
 0D63                   .dbline 820
 0D63           ; }
 0D63 5700              mov X,0
 0D65 5001              mov A,1
 0D67 7C0000            xcall _LCD_Position
 0D6A                   .dbline 821
 0D6A           ; }
 0D6A 5062              mov A,>L455
 0D6C 08                push A
 0D6D 5062              mov A,<L455
 0D6F 5C                mov X,A
 0D70 18                pop A
 0D71 7C0000            xcall _LCD_PrCString
 0D74 20                pop X
 0D75                   .dbline -2
 0D75                   .dbline 822
 0D75           ; }
 0D75           L451:
 0D75                   .dbline 0 ; func end
 0D75 7F                ret
 0D76                   .dbend
 0D76                   .dbfunc e Envia _Envia fV
 0D76           ;   confirmacion -> X+0
 0D76           ;          valor -> X-4
 0D76           _Envia::
 0D76                   .dbline -1
 0D76 10                push X
 0D77 4F                mov X,SP
 0D78 3801              add SP,1
 0D7A                   .dbline 832
 0D7A           ; }
 0D7A           ; }
 0D7A           ; }
 0D7A           ; }
 0D7A           ; }
 0D7A           ; }
 0D7A           ; }
 0D7A           ; }
 0D7A           ; }
 0D7A           ; }
 0D7A           L457:
 0D7A                   .dbline 836
 0D7A           ; }
 0D7A           ; }
 0D7A           ; }
 0D7A           ; }
 0D7A                   .dbline 837
 0D7A           ; }
 0D7A 10                push X
 0D7B 52FC              mov A,[X-4]
 0D7D 7C0000            xcall _UART_PutChar
 0D80                   .dbline 838
 0D80           ; }
 0D80 7C0000            xcall _UART_cGetChar
 0D83 62D000            mov REG[0xd0],>__r0
 0D86 20                pop X
 0D87 5400              mov [X+0],A
 0D89                   .dbline 839
 0D89           ; }
 0D89 52FC              mov A,[X-4]
 0D8B 3B00              cmp A,[X+0]
 0D8D B00A              jnz L460
 0D8F                   .dbline 839
 0D8F 10                push X
 0D90 5005              mov A,5
 0D92 7C0000            xcall _UART_PutChar
 0D95 20                pop X
 0D96 8008              xjmp L461
 0D98           L460:
 0D98                   .dbline 840
 0D98           ; }
 0D98 10                push X
 0D99 5004              mov A,4
 0D9B 7C0000            xcall _UART_PutChar
 0D9E 20                pop X
 0D9F           L461:
 0D9F                   .dbline 841
 0D9F           L458:
 0D9F                   .dbline 841
 0D9F           ; }
 0D9F 52FC              mov A,[X-4]
 0DA1 3B00              cmp A,[X+0]
 0DA3 BFD6              jnz L457
 0DA5                   .dbline -2
 0DA5                   .dbline 842
 0DA5           ; }
 0DA5           L456:
 0DA5 38FF              add SP,-1
 0DA7 20                pop X
 0DA8                   .dbline 0 ; func end
 0DA8 7F                ret
 0DA9                   .dbsym l confirmacion 0 c
 0DA9                   .dbsym l valor -4 c
 0DA9                   .dbend
 0DA9                   .dbfunc e Sistema _Sistema fV
 0DA9           ;              x -> X+2
 0DA9           ;           menu -> X+1
 0DA9           ;         pulsat -> X+0
 0DA9           _Sistema::
 0DA9                   .dbline -1
 0DA9 10                push X
 0DAA 4F                mov X,SP
 0DAB 3804              add SP,4
 0DAD                   .dbline 852
 0DAD           ; }
 0DAD           ; }
 0DAD           ; }
 0DAD           ; }
 0DAD           ; }
 0DAD           ; }
 0DAD           ; }
 0DAD           ; }
 0DAD           ; }
 0DAD           ; }
 0DAD                   .dbline 853
 0DAD           ; }
 0DAD 560101            mov [X+1],1
 0DB0           L463:
 0DB0                   .dbline 857
 0DB0           ; }
 0DB0           ; }
 0DB0           ; }
 0DB0           ; }
 0DB0                   .dbline 858
 0DB0           ; }
 0DB0 10                push X
 0DB1 5001              mov A,1
 0DB3 7C0000            xcall _LCD_Control
 0DB6                   .dbline 859
 0DB6           ; }
 0DB6 5053              mov A,>L466
 0DB8 08                push A
 0DB9 5053              mov A,<L466
 0DBB 5C                mov X,A
 0DBC 18                pop A
 0DBD 7C0000            xcall _LCD_PrCString
 0DC0                   .dbline 860
 0DC0           ; }
 0DC0 5700              mov X,0
 0DC2 5001              mov A,1
 0DC4 7C0000            xcall _LCD_Position
 0DC7 20                pop X
 0DC8                   .dbline 861
 0DC8           ; }
 0DC8 3D0101            cmp [X+1],1
 0DCB B00F              jnz L467
 0DCD                   .dbline 861
 0DCD 10                push X
 0DCE 5049              mov A,>L469
 0DD0 08                push A
 0DD1 5049              mov A,<L469
 0DD3 5C                mov X,A
 0DD4 18                pop A
 0DD5 7C0000            xcall _LCD_PrCString
 0DD8 20                pop X
 0DD9 8025              xjmp L468
 0DDB           L467:
 0DDB                   .dbline 862
 0DDB           ; }
 0DDB 3D0102            cmp [X+1],2
 0DDE B00F              jnz L470
 0DE0                   .dbline 862
 0DE0 10                push X
 0DE1 5038              mov A,>L472
 0DE3 08                push A
 0DE4 5038              mov A,<L472
 0DE6 5C                mov X,A
 0DE7 18                pop A
 0DE8 7C0000            xcall _LCD_PrCString
 0DEB 20                pop X
 0DEC 8012              xjmp L471
 0DEE           L470:
 0DEE                   .dbline 863
 0DEE           ; }
 0DEE 3D0103            cmp [X+1],3
 0DF1 B00D              jnz L473
 0DF3                   .dbline 863
 0DF3 10                push X
 0DF4 5028              mov A,>L475
 0DF6 08                push A
 0DF7 5028              mov A,<L475
 0DF9 5C                mov X,A
 0DFA 18                pop A
 0DFB 7C0000            xcall _LCD_PrCString
 0DFE 20                pop X
 0DFF           L473:
 0DFF           L471:
 0DFF           L468:
 0DFF                   .dbline 864
 0DFF           ; }
 0DFF 7C0000            xcall _bucle_temp
 0E02                   .dbline 865
 0E02           ; }
 0E02 7C009C            xcall _Pulsador
 0E05 5400              mov [X+0],A
 0E07                   .dbline 866
 0E07           ; }
 0E07 62D000            mov REG[0xd0],>_Buzzer
 0E0A 3C0001            cmp [_Buzzer],1
 0E0D B004              jnz L476
 0E0F                   .dbline 866
 0E0F 7C0034            xcall _Pitido
 0E12           L476:
 0E12                   .dbline 867
 0E12           ; }
 0E12 3D0001            cmp [X+0],1
 0E15 B019              jnz L478
 0E17                   .dbline 868
 0E17           ; }
 0E17                   .dbline 869
 0E17           ; }
 0E17 62D000            mov REG[0xd0],>__r0
 0E1A 5201              mov A,[X+1]
 0E1C 0101              add A,1
 0E1E 5300              mov [__r0],A
 0E20 5003              mov A,3
 0E22 3A00              cmp A,[__r0]
 0E24 D006              jnc L480
 0E26           X18:
 0E26                   .dbline 869
 0E26 560101            mov [X+1],1
 0E29 803C              xjmp L479
 0E2B           L480:
 0E2B                   .dbline 870
 0E2B           ; }
 0E2B 7701              inc [X+1]
 0E2D                   .dbline 871
 0E2D           ; }
 0E2D 8038              xjmp L479
 0E2F           L478:
 0E2F                   .dbline 872
 0E2F           ; }
 0E2F 3D0003            cmp [X+0],3
 0E32 B01C              jnz L482
 0E34                   .dbline 873
 0E34           ; }
 0E34                   .dbline 874
 0E34           ; }
 0E34 3D0101            cmp [X+1],1
 0E37 B005              jnz L484
 0E39                   .dbline 874
 0E39 9034              xcall _Reali_LCD
 0E3B 802A              xjmp L483
 0E3D           L484:
 0E3D                   .dbline 875
 0E3D           ; }
 0E3D 3D0102            cmp [X+1],2
 0E40 B005              jnz L486
 0E42                   .dbline 875
 0E42 90B6              xcall _Zumbador
 0E44 8021              xjmp L483
 0E46           L486:
 0E46                   .dbline 876
 0E46           ; }
 0E46 3D0103            cmp [X+1],3
 0E49 B01C              jnz L483
 0E4B                   .dbline 876
 0E4B 9132              xcall _Ali_Led
 0E4D                   .dbline 877
 0E4D           ; }
 0E4D 8018              xjmp L483
 0E4F           L482:
 0E4F                   .dbline 878
 0E4F           ; }
 0E4F 3D0002            cmp [X+0],2
 0E52 B013              jnz L490
 0E54                   .dbline 879
 0E54           ; }
 0E54                   .dbline 880
 0E54           ; }
 0E54 62D000            mov REG[0xd0],>__r0
 0E57 5201              mov A,[X+1]
 0E59 1101              sub A,1
 0E5B 3901              cmp A,1
 0E5D D006              jnc L492
 0E5F           X19:
 0E5F                   .dbline 880
 0E5F 560103            mov [X+1],3
 0E62 8003              xjmp L493
 0E64           L492:
 0E64                   .dbline 881
 0E64           ; }
 0E64 7B01              dec [X+1]
 0E66           L493:
 0E66                   .dbline 882
 0E66           ; }
 0E66           L490:
 0E66           L483:
 0E66           L479:
 0E66                   .dbline 883
 0E66           L464:
 0E66                   .dbline 883
 0E66           ; }
 0E66 3D0004            cmp [X+0],4
 0E69 BF46              jnz L463
 0E6B                   .dbline -2
 0E6B                   .dbline 884
 0E6B           ; }
 0E6B           L462:
 0E6B 38FC              add SP,-4
 0E6D 20                pop X
 0E6E                   .dbline 0 ; func end
 0E6E 7F                ret
 0E6F                   .dbsym l x 2 i
 0E6F                   .dbsym l menu 1 c
 0E6F                   .dbsym l pulsat 0 c
 0E6F                   .dbend
 0E6F                   .dbfunc e Reali_LCD _Reali_LCD fV
 0E6F           ;              x -> X+1
 0E6F           ;         pulsat -> X+0
 0E6F           _Reali_LCD::
 0E6F                   .dbline -1
 0E6F 10                push X
 0E70 4F                mov X,SP
 0E71 3803              add SP,3
 0E73                   .dbline 893
 0E73           ; }
 0E73           ; }
 0E73           ; }
 0E73           ; }
 0E73           ; }
 0E73           ; }
 0E73           ; }
 0E73           ; }
 0E73           ; }
 0E73           L495:
 0E73                   .dbline 898
 0E73           ; }
 0E73           ; }
 0E73           ; }
 0E73           ; }
 0E73           ; }
 0E73                   .dbline 899
 0E73           ; }
 0E73 10                push X
 0E74 5001              mov A,1
 0E76 7C0000            xcall _LCD_Control
 0E79                   .dbline 900
 0E79           ; }
 0E79 501F              mov A,>L498
 0E7B 08                push A
 0E7C 501F              mov A,<L498
 0E7E 5C                mov X,A
 0E7F 18                pop A
 0E80 7C0000            xcall _LCD_PrCString
 0E83                   .dbline 901
 0E83           ; }
 0E83 5700              mov X,0
 0E85 5001              mov A,1
 0E87 7C0000            xcall _LCD_Position
 0E8A 20                pop X
 0E8B                   .dbline 902
 0E8B           ; }
 0E8B 62D000            mov REG[0xd0],>_Luz_LCD
 0E8E 3C0000            cmp [_Luz_LCD],0
 0E91 B00F              jnz L499
 0E93                   .dbline 902
 0E93 10                push X
 0E94 50D7              mov A,>L133
 0E96 08                push A
 0E97 50D7              mov A,<L133
 0E99 5C                mov X,A
 0E9A 18                pop A
 0E9B 7C0000            xcall _LCD_PrCString
 0E9E 20                pop X
 0E9F 800D              xjmp L500
 0EA1           L499:
 0EA1                   .dbline 903
 0EA1           ; }
 0EA1 10                push X
 0EA2 50D4              mov A,>L134
 0EA4 08                push A
 0EA5 50D4              mov A,<L134
 0EA7 5C                mov X,A
 0EA8 18                pop A
 0EA9 7C0000            xcall _LCD_PrCString
 0EAC 20                pop X
 0EAD           L500:
 0EAD                   .dbline 904
 0EAD           ; }
 0EAD 7C0000            xcall _bucle_temp
 0EB0                   .dbline 905
 0EB0           ; }
 0EB0 7C009C            xcall _Pulsador
 0EB3 5400              mov [X+0],A
 0EB5                   .dbline 906
 0EB5           ; }
 0EB5 62D000            mov REG[0xd0],>_Buzzer
 0EB8 3C0001            cmp [_Buzzer],1
 0EBB B004              jnz L501
 0EBD                   .dbline 906
 0EBD 7C0034            xcall _Pitido
 0EC0           L501:
 0EC0                   .dbline 907
 0EC0           ; }
 0EC0 3D0001            cmp [X+0],1
 0EC3 A006              jz L505
 0EC5 3D0002            cmp [X+0],2
 0EC8 B00A              jnz L503
 0ECA           L505:
 0ECA                   .dbline 908
 0ECA           ; }
 0ECA                   .dbline 909
 0ECA           ; }
 0ECA 5D00              mov A,REG[ 0]
 0ECC 62D000            mov REG[0xd0],>__r0
 0ECF 6000              mov REG[ 0],A
 0ED1                   .dbline 910
 0ED1           ; }
 0ED1 801F              xjmp L504
 0ED3           L503:
 0ED3                   .dbline 911
 0ED3           ; }
 0ED3 3D0003            cmp [X+0],3
 0ED6 B01A              jnz L506
 0ED8                   .dbline 912
 0ED8           ; }
 0ED8                   .dbline 913
 0ED8           ; }
 0ED8 62D000            mov REG[0xd0],>_Luz_LCD
 0EDB 3C0000            cmp [_Luz_LCD],0
 0EDE B009              jnz L508
 0EE0                   .dbline 914
 0EE0           ; }
 0EE0                   .dbline 915
 0EE0           ; }
 0EE0 430002            or REG[ 0],2
 0EE3                   .dbline 916
 0EE3           ; }
 0EE3 550001            mov [_Luz_LCD],1
 0EE6                   .dbline 917
 0EE6           ; }
 0EE6 800A              xjmp L509
 0EE8           L508:
 0EE8                   .dbline 919
 0EE8           ; }
 0EE8           ; }
 0EE8                   .dbline 920
 0EE8           ; }
 0EE8 4100FD            and REG[ 0],-3
 0EEB                   .dbline 921
 0EEB           ; }
 0EEB 62D000            mov REG[0xd0],>_Luz_LCD
 0EEE 550000            mov [_Luz_LCD],0
 0EF1                   .dbline 922
 0EF1           ; }
 0EF1           L509:
 0EF1                   .dbline 923
 0EF1           ; }
 0EF1           L506:
 0EF1           L504:
 0EF1                   .dbline 924
 0EF1           L496:
 0EF1                   .dbline 924
 0EF1           ; }
 0EF1 3D0004            cmp [X+0],4
 0EF4 BF7E              jnz L495
 0EF6                   .dbline -2
 0EF6                   .dbline 925
 0EF6           ; }
 0EF6           L494:
 0EF6 38FD              add SP,-3
 0EF8 20                pop X
 0EF9                   .dbline 0 ; func end
 0EF9 7F                ret
 0EFA                   .dbsym l x 1 i
 0EFA                   .dbsym l pulsat 0 c
 0EFA                   .dbend
 0EFA                   .dbfunc e Zumbador _Zumbador fV
 0EFA           ;              x -> X+1
 0EFA           ;         pulsat -> X+0
 0EFA           _Zumbador::
 0EFA                   .dbline -1
 0EFA 10                push X
 0EFB 4F                mov X,SP
 0EFC 3803              add SP,3
 0EFE                   .dbline 934
 0EFE           ; }
 0EFE           ; }
 0EFE           ; }
 0EFE           ; }
 0EFE           ; }
 0EFE           ; }
 0EFE           ; }
 0EFE           ; }
 0EFE           ; }
 0EFE           L511:
 0EFE                   .dbline 939
 0EFE           ; }
 0EFE           ; }
 0EFE           ; }
 0EFE           ; }
 0EFE           ; }
 0EFE                   .dbline 940
 0EFE           ; }
 0EFE 10                push X
 0EFF 5001              mov A,1
 0F01 7C0000            xcall _LCD_Control
 0F04                   .dbline 941
 0F04           ; }
 0F04 500F              mov A,>L514
 0F06 08                push A
 0F07 500F              mov A,<L514
 0F09 5C                mov X,A
 0F0A 18                pop A
 0F0B 7C0000            xcall _LCD_PrCString
 0F0E                   .dbline 942
 0F0E           ; }
 0F0E 5700              mov X,0
 0F10 5001              mov A,1
 0F12 7C0000            xcall _LCD_Position
 0F15 20                pop X
 0F16                   .dbline 943
 0F16           ; }
 0F16 62D000            mov REG[0xd0],>_Buzzer
 0F19 3C0000            cmp [_Buzzer],0
 0F1C B00F              jnz L515
 0F1E                   .dbline 943
 0F1E 10                push X
 0F1F 50D7              mov A,>L133
 0F21 08                push A
 0F22 50D7              mov A,<L133
 0F24 5C                mov X,A
 0F25 18                pop A
 0F26 7C0000            xcall _LCD_PrCString
 0F29 20                pop X
 0F2A 800D              xjmp L516
 0F2C           L515:
 0F2C                   .dbline 944
 0F2C           ; }
 0F2C 10                push X
 0F2D 50D4              mov A,>L134
 0F2F 08                push A
 0F30 50D4              mov A,<L134
 0F32 5C                mov X,A
 0F33 18                pop A
 0F34 7C0000            xcall _LCD_PrCString
 0F37 20                pop X
 0F38           L516:
 0F38                   .dbline 945
 0F38           ; }
 0F38 7C0000            xcall _bucle_temp
 0F3B                   .dbline 946
 0F3B           ; }
 0F3B 7C009C            xcall _Pulsador
 0F3E 5400              mov [X+0],A
 0F40                   .dbline 947
 0F40           ; }
 0F40 62D000            mov REG[0xd0],>_Buzzer
 0F43 3C0001            cmp [_Buzzer],1
 0F46 B004              jnz L517
 0F48                   .dbline 947
 0F48 7C0034            xcall _Pitido
 0F4B           L517:
 0F4B                   .dbline 948
 0F4B           ; }
 0F4B 3D0001            cmp [X+0],1
 0F4E A006              jz L521
 0F50 3D0002            cmp [X+0],2
 0F53 B00A              jnz L519
 0F55           L521:
 0F55                   .dbline 949
 0F55           ; }
 0F55                   .dbline 950
 0F55           ; }
 0F55 5D00              mov A,REG[ 0]
 0F57 62D000            mov REG[0xd0],>__r0
 0F5A 6000              mov REG[ 0],A
 0F5C                   .dbline 951
 0F5C           ; }
 0F5C 8019              xjmp L520
 0F5E           L519:
 0F5E                   .dbline 952
 0F5E           ; }
 0F5E 3D0003            cmp [X+0],3
 0F61 B014              jnz L522
 0F63                   .dbline 953
 0F63           ; }
 0F63                   .dbline 954
 0F63           ; }
 0F63 62D000            mov REG[0xd0],>_Buzzer
 0F66 3C0000            cmp [_Buzzer],0
 0F69 B006              jnz L524
 0F6B                   .dbline 954
 0F6B 550001            mov [_Buzzer],1
 0F6E 8007              xjmp L525
 0F70           L524:
 0F70                   .dbline 955
 0F70           ; }
 0F70 62D000            mov REG[0xd0],>_Buzzer
 0F73 550000            mov [_Buzzer],0
 0F76           L525:
 0F76                   .dbline 956
 0F76           ; }
 0F76           L522:
 0F76           L520:
 0F76                   .dbline 957
 0F76           L512:
 0F76                   .dbline 957
 0F76           ; }
 0F76 3D0004            cmp [X+0],4
 0F79 BF84              jnz L511
 0F7B                   .dbline -2
 0F7B                   .dbline 958
 0F7B           ; }
 0F7B           L510:
 0F7B 38FD              add SP,-3
 0F7D 20                pop X
 0F7E                   .dbline 0 ; func end
 0F7E 7F                ret
 0F7F                   .dbsym l x 1 i
 0F7F                   .dbsym l pulsat 0 c
 0F7F                   .dbend
 0F7F                   .dbfunc e Ali_Led _Ali_Led fV
 0F7F           ;              x -> X+1
 0F7F           ;         pulsat -> X+0
 0F7F           _Ali_Led::
 0F7F                   .dbline -1
 0F7F 10                push X
 0F80 4F                mov X,SP
 0F81 3803              add SP,3
 0F83                   .dbline 967
 0F83           ; }
 0F83           ; }
 0F83           ; }
 0F83           ; }
 0F83           ; }
 0F83           ; }
 0F83           ; }
 0F83           ; }
 0F83           ; }
 0F83           L527:
 0F83                   .dbline 972
 0F83           ; }
 0F83           ; }
 0F83           ; }
 0F83           ; }
 0F83           ; }
 0F83                   .dbline 973
 0F83           ; }
 0F83 10                push X
 0F84 5001              mov A,1
 0F86 7C0000            xcall _LCD_Control
 0F89                   .dbline 974
 0F89           ; }
 0F89 5000              mov A,>L530
 0F8B 08                push A
 0F8C 5000              mov A,<L530
 0F8E 5C                mov X,A
 0F8F 18                pop A
 0F90 7C0000            xcall _LCD_PrCString
 0F93                   .dbline 975
 0F93           ; }
 0F93 5700              mov X,0
 0F95 5001              mov A,1
 0F97 7C0000            xcall _LCD_Position
 0F9A 20                pop X
 0F9B                   .dbline 976
 0F9B           ; }
 0F9B 62D000            mov REG[0xd0],>_Alimentacion
 0F9E 3C0000            cmp [_Alimentacion],0
 0FA1 B00F              jnz L531
 0FA3                   .dbline 976
 0FA3 10                push X
 0FA4 50D7              mov A,>L133
 0FA6 08                push A
 0FA7 50D7              mov A,<L133
 0FA9 5C                mov X,A
 0FAA 18                pop A
 0FAB 7C0000            xcall _LCD_PrCString
 0FAE 20                pop X
 0FAF 800D              xjmp L532
 0FB1           L531:
 0FB1                   .dbline 977
 0FB1           ; }
 0FB1 10                push X
 0FB2 50D4              mov A,>L134
 0FB4 08                push A
 0FB5 50D4              mov A,<L134
 0FB7 5C                mov X,A
 0FB8 18                pop A
 0FB9 7C0000            xcall _LCD_PrCString
 0FBC 20                pop X
 0FBD           L532:
 0FBD                   .dbline 978
 0FBD           ; }
 0FBD 7C0000            xcall _bucle_temp
 0FC0                   .dbline 979
 0FC0           ; }
 0FC0 7C009C            xcall _Pulsador
 0FC3 5400              mov [X+0],A
 0FC5                   .dbline 980
 0FC5           ; }
 0FC5 62D000            mov REG[0xd0],>_Buzzer
 0FC8 3C0001            cmp [_Buzzer],1
 0FCB B004              jnz L533
 0FCD                   .dbline 980
 0FCD 7C0034            xcall _Pitido
 0FD0           L533:
 0FD0                   .dbline 981
 0FD0           ; }
 0FD0 3D0001            cmp [X+0],1
 0FD3 A006              jz L537
 0FD5 3D0002            cmp [X+0],2
 0FD8 B00A              jnz L535
 0FDA           L537:
 0FDA                   .dbline 982
 0FDA           ; }
 0FDA                   .dbline 983
 0FDA           ; }
 0FDA 5D00              mov A,REG[ 0]
 0FDC 62D000            mov REG[0xd0],>__r0
 0FDF 6000              mov REG[ 0],A
 0FE1                   .dbline 984
 0FE1           ; }
 0FE1 801F              xjmp L536
 0FE3           L535:
 0FE3                   .dbline 985
 0FE3           ; }
 0FE3 3D0003            cmp [X+0],3
 0FE6 B01A              jnz L538
 0FE8                   .dbline 986
 0FE8           ; }
 0FE8                   .dbline 987
 0FE8           ; }
 0FE8 62D000            mov REG[0xd0],>_Alimentacion
 0FEB 3C0000            cmp [_Alimentacion],0
 0FEE B009              jnz L540
 0FF0                   .dbline 988
 0FF0           ; }
 0FF0                   .dbline 989
 0FF0           ; }
 0FF0 430010            or REG[ 0],16
 0FF3                   .dbline 990
 0FF3           ; }
 0FF3 550001            mov [_Alimentacion],1
 0FF6                   .dbline 991
 0FF6           ; }
 0FF6 800A              xjmp L541
 0FF8           L540:
 0FF8                   .dbline 993
 0FF8           ; }
 0FF8           ; }
 0FF8                   .dbline 994
 0FF8           ; }
 0FF8 4100EF            and REG[ 0],-17
 0FFB                   .dbline 995
 0FFB           ; }
 0FFB 62D000            mov REG[0xd0],>_Alimentacion
 0FFE 550000            mov [_Alimentacion],0
 1001                   .dbline 996
 1001           ; }
 1001           L541:
 1001                   .dbline 997
 1001           ; }
 1001           L538:
 1001           L536:
 1001                   .dbline 998
 1001           L528:
 1001                   .dbline 998
 1001           ; }
 1001 3D0004            cmp [X+0],4
 1004 BF7E              jnz L527
 1006                   .dbline -2
 1006                   .dbline 999
 1006           ; }
 1006           L526:
 1006 38FD              add SP,-3
 1008 20                pop X
 1009                   .dbline 0 ; func end
 1009 7F                ret
 100A                   .dbsym l x 1 i
 100A                   .dbsym l pulsat 0 c
 100A                   .dbend
 100A                   .dbfile ./main.c
 100A                   .dbfunc e main _main fV
 100A           ;             xx -> X+1
 100A           ;              x -> X+0
 100A           _main::
 100A                   .dbline -1
 100A 10                push X
 100B 4F                mov X,SP
 100C 3803              add SP,3
 100E                   .dbline 14
 100E                   .dbline 18
 100E 10                push X
 100F 509C              mov A,-100
 1011 7C0000            xcall _Timer8_WritePeriod
 1014                   .dbline 19
 1014 504E              mov A,78
 1016 7C0000            xcall _Timer8_WriteCompareValue
 1019                   .dbline 20
 1019 7C0000            xcall _Timer8_Start
 101C                   .dbline 22
 101C 7C0000            xcall _LCD_Start
 101F                   .dbline 23
 101F 7C0000            xcall _LCD_Init
 1022                   .dbline 25
 1022 5000              mov A,0
 1024 7C0000            xcall _UART_Start
 1027 20                pop X
 1028                   .dbline 26
 1028 6200A0            mov REG[ 0],-96
 102B                   .dbline 29
 102B 4100E1            and REG[ 0],-31
 102E                   .dbline 33
 102E           L543:
 102E                   .dbline 33
 102E 7C0121            xcall _Principal
 1031                   .dbline 33
 1031                   .dbline 33
 1031 8FFC              xjmp L543
 1033           X20:
 1033                   .dbline -2
 1033           L542:
 1033 38FD              add SP,-3
 1035 20                pop X
 1036                   .dbline 0 ; func end
 1036 8FFF              jmp .
 1038                   .dbsym l xx 1 I
 1038                   .dbsym l x 0 c
 1038                   .dbend
                        .area lit(rom, con, rel)
 0000           L530:
 0000 3E4C6564206465206D617263686100    .byte 62,'L,'e,'d,32,'d,'e,32,'m,'a,'r,'c,'h,'a,0
 000F           L514:
 000F 3E50697469646F20696E7465726E6F00  .byte 62,'P,'i,'t,'i,'d,'o,32,'i,'n,'t,'e,'r,'n,'o,0
 001F           L498:
 001F 3E4C757A204C434400        .byte 62,'L,'u,'z,32,'L,'C,'D,0
 0028           L475:
 0028 332D4C6564206465206D617263686100  .byte 51,45,'L,'e,'d,32,'d,'e,32,'m,'a,'r,'c,'h,'a,0
 0038           L472:
 0038 322D50697469646F20696E7465726E6F  .byte 50,45,'P,'i,'t,'i,'d,'o,32,'i,'n,'t,'e,'r,'n,'o
 0048 00                .byte 0
 0049           L469:
 0049 312D4C757A204C434400      .byte 49,45,'L,'u,'z,32,'L,'C,'D,0
 0053           L466:
 0053 3E436F6E662E2053697374656D6100    .byte 62,'C,'o,'n,'f,46,32,'S,'i,'s,'t,'e,'m,'a,0
 0062           L455:
 0062 50686F746F534F432041637469766F00  .byte 'P,'h,'o,'t,'o,'S,'O,'C,32,'A,'c,'t,'i,'v,'o,0
 0072           L454:
 0072 4461746F7320656E766961646F7300    .byte 'D,'a,'t,'o,'s,32,'e,'n,'v,'i,'a,'d,'o,'s,0
 0081           L444:
 0081 312D41686F726100  .byte 49,45,'A,'h,'o,'r,'a,0
 0089           L443:
 0089 3E456A65637574617200      .byte 62,'E,'j,'e,'c,'u,'t,'a,'r,0
 0093           L422:
 0093 4E756D65726F20646520666F746F7300  .byte 'N,'u,'m,'e,'r,'o,32,'d,'e,32,'f,'o,'t,'o,'s,0
 00A3           L419:
 00A3 5420656E74726520666F746F00        .byte 'T,32,'e,'n,'t,'r,'e,32,'f,'o,'t,'o,0
 00B0           L416:
 00B0 3E496E74657276616C6F6D6574726F00  .byte 62,'I,'n,'t,'e,'r,'v,'a,'l,'o,'m,'e,'t,'r,'o,0
 00C0           L383:
 00C0 3E5469706F20646520646973702E00    .byte 62,'T,'i,'p,'o,32,'d,'e,32,'d,'i,'s,'p,46,0
 00CF           L359:
 00CF 3E43616D617261203200      .byte 62,'C,'a,'m,'a,'r,'a,32,50,0
 00D9           L347:
 00D9 54696D65204C6170736500    .byte 'T,'i,'m,'e,32,'L,'a,'p,'s,'e,0
 00E4           L344:
 00E4 496E74657276616C6F6D6574726F00    .byte 'I,'n,'t,'e,'r,'v,'a,'l,'o,'m,'e,'t,'r,'o,0
 00F3           L341:
 00F3 446973702E20556E69636F00  .byte 'D,'i,'s,'p,46,32,'U,'n,'i,'c,'o,0
 00FF           L338:
 00FF 4E6F206469737061726100    .byte 'N,'o,32,'d,'i,'s,'p,'a,'r,'a,0
 010A           L335:
 010A 3E43616D617261203100      .byte 62,'C,'a,'m,'a,'r,'a,32,49,0
 0114           L314:
 0114 322D43616D617261203200    .byte 50,45,'C,'a,'m,'a,'r,'a,32,50,0
 011F           L311:
 011F 312D43616D617261203100    .byte 49,45,'C,'a,'m,'a,'r,'a,32,49,0
 012A           L308:
 012A 3E436F6E662E204469737061726F00    .byte 62,'C,'o,'n,'f,46,32,'D,'i,'s,'p,'a,'r,'o,0
 0139           L292:
 0139 3E466C617368203400        .byte 62,'F,'l,'a,'s,'h,32,52,0
 0142           L276:
 0142 3E466C617368203300        .byte 62,'F,'l,'a,'s,'h,32,51,0
 014B           L260:
 014B 3E466C617368203200        .byte 62,'F,'l,'a,'s,'h,32,50,0
 0154           L244:
 0154 3E466C617368203100        .byte 62,'F,'l,'a,'s,'h,32,49,0
 015D           L219:
 015D 2020284F66662900  .byte 32,32,40,'O,'f,'f,41,0
 0165           L216:
 0165 342D466C617368203400      .byte 52,45,'F,'l,'a,'s,'h,32,52,0
 016F           L211:
 016F 332D466C617368203300      .byte 51,45,'F,'l,'a,'s,'h,32,51,0
 0179           L206:
 0179 322D466C617368203200      .byte 50,45,'F,'l,'a,'s,'h,32,50,0
 0183           L203:
 0183 20284F6E2900      .byte 32,40,'O,'n,41,0
 0189           L202:
 0189 20284F66662900    .byte 32,40,'O,'f,'f,41,0
 0190           L199:
 0190 312D466C617368203100      .byte 49,45,'F,'l,'a,'s,'h,32,49,0
 019A           L196:
 019A 3E436F6E662E20466C617368657300    .byte 62,'C,'o,'n,'f,46,32,'F,'l,'a,'s,'h,'e,'s,0
 01A9           L180:
 01A9 3E4469676974616C203220355600      .byte 62,'D,'i,'g,'i,'t,'a,'l,32,50,32,53,'V,0
 01B7           L164:
 01B7 3E4469676974616C203120355600      .byte 62,'D,'i,'g,'i,'t,'a,'l,32,49,32,53,'V,0
 01C5           L148:
 01C5 3E4261727265726120322031325600    .byte 62,'B,'a,'r,'r,'e,'r,'a,32,50,32,49,50,'V,0
 01D4           L134:
 01D4 4F4E00            .byte 'O,'N,0
 01D7           L133:
 01D7 4F464600          .byte 'O,'F,'F,0
 01DB           L130:
 01DB 3E4261727265726120312031325600    .byte 62,'B,'a,'r,'r,'e,'r,'a,32,49,32,49,50,'V,0
 01EA           L105:
 01EA 342D4469676974616C203220355600    .byte 52,45,'D,'i,'g,'i,'t,'a,'l,32,50,32,53,'V,0
 01F9           L102:
 01F9 332D4469676974616C203120355600    .byte 51,45,'D,'i,'g,'i,'t,'a,'l,32,49,32,53,'V,0
 0208           L99:
 0208 322D4261727265726120322031325600  .byte 50,45,'B,'a,'r,'r,'e,'r,'a,32,50,32,49,50,'V,0
 0218           L96:
 0218 312D4261727265726120312031325600  .byte 49,45,'B,'a,'r,'r,'e,'r,'a,32,49,32,49,50,'V,0
 0228           L93:
 0228 3E436F6E662E2053656E736F72657300  .byte 62,'C,'o,'n,'f,46,32,'S,'e,'n,'s,'o,'r,'e,'s,0
 0238           L66:
 0238 352D436F6E662E2053697374656D6100  .byte 53,45,'C,'o,'n,'f,46,32,'S,'i,'s,'t,'e,'m,'a,0
 0248           L63:
 0248 342D456A65637574617200    .byte 52,45,'E,'j,'e,'c,'u,'t,'a,'r,0
 0253           L60:
 0253 332D436F6E662E204469737061726F00  .byte 51,45,'C,'o,'n,'f,46,32,'D,'i,'s,'p,'a,'r,'o,0
 0263           L57:
 0263 322D436F6E662E20466C617368657300  .byte 50,45,'C,'o,'n,'f,46,32,'F,'l,'a,'s,'h,'e,'s,0
 0273           L54:
 0273 312D436F6E662E2053656E736F726573  .byte 49,45,'C,'o,'n,'f,46,32,'S,'e,'n,'s,'o,'r,'e,'s
 0283 00                .byte 0
 0284           L51:
 0284 3E4D656E75205072696E636970616C00  .byte 62,'M,'e,'n,'u,32,'P,'r,'i,'n,'c,'i,'p,'a,'l,0
 0294           L42:
 0294 61202050686F746F536F4300  .byte 'a,32,32,'P,'h,'o,'t,'o,'S,'o,'C,0
 02A0           L41:
 02A0 4269656E76656E69646F7300  .byte 'B,'i,'e,'n,'v,'e,'n,'i,'d,'o,'s,0
