 0000                   cpu LMM
                        .module main.c
                        .area data(ram, con, rel)
 0000           _Luz_LCD::
 0000 00                .byte 0
 0001                   .dbfile ./terminal.h
 0001                   .dbsym e Luz_LCD _Luz_LCD c
                        .area data(ram, con, rel)
 0000                   .dbfile ./terminal.h
                        .area data(ram, con, rel)
 0000                   .dbfile ./terminal.h
 0000           _Buzzer::
 0000 00                .byte 0
 0001                   .dbsym e Buzzer _Buzzer c
                        .area data(ram, con, rel)
 0000                   .dbfile ./terminal.h
                        .area data(ram, con, rel)
 0000                   .dbfile ./terminal.h
 0000           _Alimentacion::
 0000 00                .byte 0
 0001                   .dbsym e Alimentacion _Alimentacion c
                        .area data(ram, con, rel)
 0000                   .dbfile ./terminal.h
                        .area data(ram, con, rel)
 0000                   .dbfile ./terminal.h
 0000           _Interrupcion::
 0000 01                .byte 1
 0001                   .dbsym e Interrupcion _Interrupcion c
                        .area data(ram, con, rel)
 0000                   .dbfile ./terminal.h
                        .area data(ram, con, rel)
 0000                   .dbfile ./terminal.h
 0000           _Ent1::
 0000 00                .byte 0
 0001                   .dbsym e Ent1 _Ent1 c
                        .area data(ram, con, rel)
 0000                   .dbfile ./terminal.h
                        .area data(ram, con, rel)
 0000                   .dbfile ./terminal.h
 0000           _Ent2::
 0000 00                .byte 0
 0001                   .dbsym e Ent2 _Ent2 c
                        .area data(ram, con, rel)
 0000                   .dbfile ./terminal.h
                        .area data(ram, con, rel)
 0000                   .dbfile ./terminal.h
 0000           _Ent3::
 0000 00                .byte 0
 0001                   .dbsym e Ent3 _Ent3 c
                        .area data(ram, con, rel)
 0000                   .dbfile ./terminal.h
                        .area data(ram, con, rel)
 0000                   .dbfile ./terminal.h
 0000           _Ent4::
 0000 00                .byte 0
 0001                   .dbsym e Ent4 _Ent4 c
                        .area data(ram, con, rel)
 0000                   .dbfile ./terminal.h
                        .area data(ram, con, rel)
 0000                   .dbfile ./terminal.h
 0000           _Fla1::
 0000 00                .byte 0
 0001                   .dbsym e Fla1 _Fla1 c
                        .area data(ram, con, rel)
 0000                   .dbfile ./terminal.h
                        .area data(ram, con, rel)
 0000                   .dbfile ./terminal.h
 0000           _Fla2::
 0000 00                .byte 0
 0001                   .dbsym e Fla2 _Fla2 c
                        .area data(ram, con, rel)
 0000                   .dbfile ./terminal.h
                        .area data(ram, con, rel)
 0000                   .dbfile ./terminal.h
 0000           _Fla3::
 0000 00                .byte 0
 0001                   .dbsym e Fla3 _Fla3 c
                        .area data(ram, con, rel)
 0000                   .dbfile ./terminal.h
                        .area data(ram, con, rel)
 0000                   .dbfile ./terminal.h
 0000           _Fla4::
 0000 00                .byte 0
 0001                   .dbsym e Fla4 _Fla4 c
                        .area data(ram, con, rel)
 0000                   .dbfile ./terminal.h
                        .area data(ram, con, rel)
 0000                   .dbfile ./terminal.h
 0000           _Cam1::
 0000 00                .byte 0
 0001                   .dbsym e Cam1 _Cam1 c
                        .area data(ram, con, rel)
 0000                   .dbfile ./terminal.h
                        .area data(ram, con, rel)
 0000                   .dbfile ./terminal.h
 0000           _Cam2::
 0000 00                .byte 0
 0001                   .dbsym e Cam2 _Cam2 c
                        .area data(ram, con, rel)
 0000                   .dbfile ./terminal.h
                        .area data(ram, con, rel)
 0000                   .dbfile ./terminal.h
 0000           _Inter1::
 0000 00                .byte 0
 0001                   .dbsym e Inter1 _Inter1 c
                        .area data(ram, con, rel)
 0000                   .dbfile ./terminal.h
                        .area data(ram, con, rel)
 0000                   .dbfile ./terminal.h
 0000           _Tilap1::
 0000 00                .byte 0
 0001                   .dbsym e Tilap1 _Tilap1 c
                        .area data(ram, con, rel)
 0000                   .dbfile ./terminal.h
                        .area data(ram, con, rel)
 0000                   .dbfile ./terminal.h
 0000           _Inter2::
 0000 00                .byte 0
 0001                   .dbsym e Inter2 _Inter2 c
                        .area data(ram, con, rel)
 0000                   .dbfile ./terminal.h
                        .area data(ram, con, rel)
 0000                   .dbfile ./terminal.h
 0000           _Tilap2::
 0000 00                .byte 0
 0001                   .dbsym e Tilap2 _Tilap2 c
                        .area data(ram, con, rel)
 0000                   .dbfile ./terminal.h
                        .area text(rom, con, rel)
 0000                   .dbfile ./terminal.h
 0000                   .dbfunc e bucle_temp _bucle_temp fV
 0000           ;              x -> X+0
 0000           _bucle_temp::
 0000                   .dbline -1
 0000 10                push X
 0001 4F                mov X,SP
 0002 3802              add SP,2
 0004                   .dbline 52
 0004           ; //----------------------------------------------------------------//
 0004           ; //     Proyecto de GS Desarrollo Productos Electronicos EPSS    //
 0004           ; //                   By Albert Sagol & Xavi Vicient                         //
 0004           ; //                 PhotoSoC - Controlador fotográfico                   //
 0004           ; //----------------------------------------------------------------//
 0004           ; 
 0004           ; #include <m8c.h>        // part specific constants and macros
 0004           ; #include "PSoCAPI.h"    // PSoC API definitions for all User Modules
 0004           ; #include "stdlib.h"
 0004           ; #include "terminal.h" // Libreria creada por Albert y Xavi para el proyecto
 0004           ; #pragma interrupt_handler PATATA;     //Interrupcion para el apagado de LCD
 0004           ; 
 0004           ; void main()
 0004           ; {     char x;
 0004           ;       int xx;
 0004           ; 
 0004           ; //- Inicializacion de parametros basicos del sistema al encender      
 0004           ;       Timer8_WritePeriod(156);                //Este valor es Fosc/Baudios/8
 0004           ;       Timer8_WriteCompareValue(156/2);
 0004           ;       Timer8_Start();
 0004           ;       
 0004           ;       M8C_EnableGInt;
 0004           ;       Timer1seg_EnableInt();
 0004           ;       
 0004           ;       LCD_Start();
 0004           ;       LCD_Init();
 0004           ; 
 0004           ;       UART_Start(UART_PARITY_NONE);
 0004           ;       PRT0DR=0xA0;    // Conectem las resistencias de pull-up
 0004           ; 
 0004           ; //- Inicializacion de parametros modificables al encender
 0004           ;       PRT0DR=PRT0DR & 0xE1;   //Apago la alrma del Buzzer, Realimentacion de LCD, Led de alimentacion y la pata de reset
 0004           ;                                                       //Aprovechamos para conectar las resistencias de pull-up
 0004           ;       
 0004           ;       
 0004           ;       for (;;) Principal();           //Programa principal del PSoC terminal del PhotoSOC
 0004           ;               
 0004           ;               
 0004           ;               /* Elementos de testeo o para utilizar
 0004           ;               
 0004           ;               - implementar como realimentacion del LCD
 0004           ;               PRT2DR=PRT2DR | 0x80;           //reali del LCD
 0004           ;               
 0004           ;               - Comprovacion de comunicacion con UART y que lo muestre por el LCD
 0004           ;               UART_CPutString("");    //Para cadenas de carateres 
 0004           ;               UART_PutChar();                 //Para valores tipo char
 0004           ;               x=UART_cGetChar();  //Esta se espera a que llegue un byte. Ver tambien UART_cReadChar()
 0004           ;               LCD_WriteData(x);
 0004           ;               
 0004           ;               - Saber si ha llegado a cierto punto
 0004           ;               LCD_Control(0x01);
 0004           ;               LCD_PrCString("prueba");
 0004                   .dbline 55
 0004 560100            mov [X+1],0
 0007 560000            mov [X+0],0
 000A 8006              xjmp L5
 000C           L2:
 000C                   .dbline 55
 000C           L3:
 000C                   .dbline 55
 000C 7701              inc [X+1]
 000E 0F0000            adc [X+0],0
 0011           L5:
 0011                   .dbline 55
 0011           ;               for(x=0;x<50000;x++);
 0011           ;               
 0011           ;               - Detectar cierto numero y que lo muestre por el LCD            
 0011 62D000            mov REG[0xd0],>__r0
 0014 5201              mov A,[X+1]
 0016 5300              mov [__r3],A
 0018 5200              mov A,[X+0]
 001A 5300              mov [__r2],A
 001C 5100              mov A,[__r3]
 001E 11B8              sub A,-72
 0020 5100              mov A,[__r2]
 0022 1988              sbb A,-120
 0024 5000              mov A,0
 0026 1900              sbb A,0
 0028 5000              mov A,0
 002A 3180              xor A,-128
 002C 1980              sbb A,(0 ^ 0x80)
 002E CFDD              jc L2
 0030           X0:
 0030                   .dbline -2
 0030                   .dbline 56
 0030           ;               LCD_Control(0x01);
 0030           L1:
 0030 38FE              add SP,-2
 0032 20                pop X
 0033                   .dbline 0 ; func end
 0033 7F                ret
 0034                   .dbsym l x 0 i
 0034                   .dbend
 0034                   .dbfunc e Pitido _Pitido fV
 0034           ;             xx -> X+0
 0034           _Pitido::
 0034                   .dbline -1
 0034 10                push X
 0035 4F                mov X,SP
 0036 3802              add SP,2
 0038                   .dbline 65
 0038           ;               LCD_WriteData(+48);
 0038           ;               for(x=0;x<50000;x++);
 0038           ;               */              
 0038           ; }
 0038           ; }
 0038           ; }
 0038           ; }
 0038           ; }
 0038           ; }
 0038                   .dbline 68
 0038           ; }
 0038           ; }
 0038           ; }
 0038 430008            or REG[ 0],8
 003B                   .dbline 69
 003B 560100            mov [X+1],0
 003E 560000            mov [X+0],0
 0041           L7:
 0041                   .dbline 69
 0041 5D00              mov A,REG[ 0]
 0043 62D000            mov REG[0xd0],>__r0
 0046 6000              mov REG[ 0],A
 0048           L8:
 0048                   .dbline 69
 0048           ; }
 0048 7701              inc [X+1]
 004A 0F0000            adc [X+0],0
 004D                   .dbline 69
 004D 5201              mov A,[X+1]
 004F 11A0              sub A,-96
 0051 5200              mov A,[X+0]
 0053 3180              xor A,-128
 0055 198F              sbb A,(15 ^ 0x80)
 0057 CFE9              jc L7
 0059           X1:
 0059                   .dbline 70
 0059           ; }
 0059 4100F7            and REG[ 0],-9
 005C                   .dbline -2
 005C                   .dbline 71
 005C           ; }
 005C           L6:
 005C 38FE              add SP,-2
 005E 20                pop X
 005F                   .dbline 0 ; func end
 005F 7F                ret
 0060                   .dbsym l xx 0 I
 0060                   .dbend
 0060                   .dbfunc e Reset_PdT _Reset_PdT fV
 0060           ;              x -> X+0
 0060           _Reset_PdT::
 0060                   .dbline -1
 0060 10                push X
 0061 4F                mov X,SP
 0062 3802              add SP,2
 0064                   .dbline 80
 0064           ; }
 0064           ; }
 0064           ; }
 0064           ; }
 0064           ; }
 0064           ; }
 0064           ; }
 0064           ; }
 0064           ; }
 0064                   .dbline 83
 0064           ; }
 0064           ; }
 0064           ; }
 0064 430004            or REG[ 0],4
 0067                   .dbline 84
 0067 560100            mov [X+1],0
 006A 560000            mov [X+0],0
 006D           L12:
 006D                   .dbline 84
 006D           L13:
 006D                   .dbline 84
 006D           ; }
 006D 7701              inc [X+1]
 006F 0F0000            adc [X+0],0
 0072                   .dbline 84
 0072 5201              mov A,[X+1]
 0074 11F4              sub A,-12
 0076 5200              mov A,[X+0]
 0078 3180              xor A,-128
 007A 1981              sbb A,(1 ^ 0x80)
 007C CFF0              jc L12
 007E           X2:
 007E                   .dbline 85
 007E           ; }
 007E 4100FB            and REG[ 0],-5
 0081                   .dbline 86
 0081 560100            mov [X+1],0
 0084 560000            mov [X+0],0
 0087           L16:
 0087                   .dbline 86
 0087           L17:
 0087                   .dbline 86
 0087           ; }
 0087 7701              inc [X+1]
 0089 0F0000            adc [X+0],0
 008C                   .dbline 86
 008C 5201              mov A,[X+1]
 008E 11F4              sub A,-12
 0090 5200              mov A,[X+0]
 0092 3180              xor A,-128
 0094 1981              sbb A,(1 ^ 0x80)
 0096 CFF0              jc L16
 0098           X3:
 0098                   .dbline -2
 0098                   .dbline 87
 0098           ; }
 0098           L11:
 0098 38FE              add SP,-2
 009A 20                pop X
 009B                   .dbline 0 ; func end
 009B 7F                ret
 009C                   .dbsym l x 0 I
 009C                   .dbend
 009C                   .dbfunc e PATATA _PATATA fV
 009C           _PATATA::
 009C                   .dbline -1
 009C                   .dbline 95
 009C           ; }
 009C           ; }
 009C           ; }
 009C           ; }
 009C           ; }
 009C           ; }
 009C           ; }
 009C           ; }
 009C                   .dbline 96
 009C           ; }
 009C 62D000            mov REG[0xd0],>_Interrupcion
 009F 550000            mov [_Interrupcion],0
 00A2                   .dbline 97
 00A2           ; }
 00A2 7C0F91            xcall _Trabajando
 00A5                   .dbline -2
 00A5                   .dbline 98
 00A5           ; }
 00A5           L20:
 00A5                   .dbline 0 ; func end
 00A5 7F                ret
 00A6                   .dbend
 00A6                   .dbfunc e Pulsador _Pulsador fc
 00A6           ;          aviso -> X+3
 00A6           ;        pulsado -> X+2
 00A6           ;              x -> X+0
 00A6           _Pulsador::
 00A6                   .dbline -1
 00A6 10                push X
 00A7 4F                mov X,SP
 00A8 3804              add SP,4
 00AA                   .dbline 111
 00AA           ; }
 00AA           ; }
 00AA           ; }
 00AA           ; }
 00AA           ; }
 00AA           ; }
 00AA           ; }
 00AA           ; }
 00AA           ; }
 00AA           ; }
 00AA           ; }
 00AA           ; }
 00AA           ; }
 00AA                   .dbline 115
 00AA           ; }
 00AA           ; }
 00AA           ; }
 00AA           ; }
 00AA 560200            mov [X+2],0
 00AD           L22:
 00AD                   .dbline 119
 00AD           ; }
 00AD           ; }
 00AD           ; }
 00AD           ; }
 00AD                   .dbline 120
 00AD           ; }
 00AD 10                push X
 00AE 7C0000            xcall _UART_cReadChar
 00B1 62D000            mov REG[0xd0],>__r0
 00B4 20                pop X
 00B5 5403              mov [X+3],A
 00B7                   .dbline 121
 00B7           ; }
 00B7 3D03FF            cmp [X+3],-1
 00BA B001              jnz L25
 00BC                   .dbline 121
 00BC           L25:
 00BC                   .dbline 122
 00BC           ; }
 00BC 5D00              mov A,REG[ 0]
 00BE 62D000            mov REG[0xd0],>__r0
 00C1 5300              mov [__r0],A
 00C3 2600A0            and [__r0],-96
 00C6 3C0020            cmp [__r0],32
 00C9 B004              jnz L27
 00CB                   .dbline 122
 00CB 560201            mov [X+2],1
 00CE           L27:
 00CE                   .dbline 123
 00CE           ; }
 00CE 5D00              mov A,REG[ 0]
 00D0 62D000            mov REG[0xd0],>__r0
 00D3 5300              mov [__r0],A
 00D5 2600A0            and [__r0],-96
 00D8 3C0080            cmp [__r0],-128
 00DB B004              jnz L29
 00DD                   .dbline 123
 00DD 560202            mov [X+2],2
 00E0           L29:
 00E0                   .dbline 124
 00E0           ; }
 00E0 3D0200            cmp [X+2],0
 00E3 A048              jz L31
 00E5                   .dbline 125
 00E5           ; }
 00E5                   .dbline 126
 00E5 560100            mov [X+1],0
 00E8 560000            mov [X+0],0
 00EB 8006              xjmp L36
 00ED           L33:
 00ED                   .dbline 126
 00ED           L34:
 00ED                   .dbline 126
 00ED 7701              inc [X+1]
 00EF 0F0000            adc [X+0],0
 00F2           L36:
 00F2                   .dbline 126
 00F2           ; }
 00F2 5201              mov A,[X+1]
 00F4 1164              sub A,100
 00F6 5200              mov A,[X+0]
 00F8 1900              sbb A,0
 00FA CFF2              jc L33
 00FC           X4:
 00FC                   .dbline 127
 00FC           ; }
 00FC 560100            mov [X+1],0
 00FF 560000            mov [X+0],0
 0102 801C              xjmp L40
 0104           L37:
 0104                   .dbline 128
 0104           ; }
 0104                   .dbline 129
 0104           ; }
 0104 5D00              mov A,REG[ 0]
 0106 62D000            mov REG[0xd0],>__r0
 0109 5300              mov [__r0],A
 010B 2600A0            and [__r0],-96
 010E 3C00A0            cmp [__r0],-96
 0111 B005              jnz L41
 0113                   .dbline 129
 0113 5202              mov A,[X+2]
 0115 8020              xjmp L21
 0117           L41:
 0117                   .dbline 130
 0117 4300A0            or REG[ 0],-96
 011A                   .dbline 131
 011A           L38:
 011A                   .dbline 127
 011A 7701              inc [X+1]
 011C 0F0000            adc [X+0],0
 011F           L40:
 011F                   .dbline 127
 011F 5201              mov A,[X+1]
 0121 1130              sub A,48
 0123 5200              mov A,[X+0]
 0125 1975              sbb A,117
 0127 CFDC              jc L37
 0129           X5:
 0129                   .dbline 132
 0129           ; }
 0129           ; }
 0129           ; }
 0129 070202            add [X+2],2
 012C                   .dbline 133
 012C           ; }
 012C           L31:
 012C                   .dbline 134
 012C           L23:
 012C                   .dbline 134
 012C           ; }
 012C 3D0200            cmp [X+2],0
 012F AF7D              jz L22
 0131                   .dbline 135
 0131           ; }
 0131 5202              mov A,[X+2]
 0133 62D000            mov REG[0xd0],>__r0
 0136                   .dbline -2
 0136           L21:
 0136 38FC              add SP,-4
 0138 20                pop X
 0139                   .dbline 0 ; func end
 0139 7F                ret
 013A                   .dbsym l aviso 3 c
 013A                   .dbsym l pulsado 2 c
 013A                   .dbsym l x 0 i
 013A                   .dbend
 013A                   .dbfunc e Principal _Principal fV
 013A           ;              x -> X+1
 013A           ;          boton -> X+0
 013A           _Principal::
 013A                   .dbline -1
 013A 10                push X
 013B 4F                mov X,SP
 013C 3803              add SP,3
 013E                   .dbline 146
 013E           ; }
 013E           ; }
 013E           ; }
 013E           ; }
 013E           ; }
 013E           ; }
 013E           ; }
 013E           ; }
 013E           ; }
 013E           ; }
 013E           ; }
 013E                   .dbline 150
 013E           ; }
 013E           ; }
 013E           ; }
 013E           ; }
 013E 10                push X
 013F 5001              mov A,1
 0141 7C0000            xcall _LCD_Control
 0144                   .dbline 151
 0144           ; }
 0144 5701              mov X,1
 0146 5000              mov A,0
 0148 7C0000            xcall _LCD_Position
 014B                   .dbline 152
 014B           ; }
 014B 50DF              mov A,>L44
 014D 08                push A
 014E 50DF              mov A,<L44
 0150 5C                mov X,A
 0151 18                pop A
 0152 7C0000            xcall _LCD_PrCString
 0155                   .dbline 153
 0155           ; }
 0155 5703              mov X,3
 0157 5001              mov A,1
 0159 7C0000            xcall _LCD_Position
 015C                   .dbline 154
 015C           ; }
 015C 50D3              mov A,>L45
 015E 08                push A
 015F 50D3              mov A,<L45
 0161 5C                mov X,A
 0162 18                pop A
 0163 7C0000            xcall _LCD_PrCString
 0166 20                pop X
 0167                   .dbline 155
 0167           ; }
 0167 9E97              xcall _bucle_temp
 0169                   .dbline 156
 0169           ; }
 0169 9F3B              xcall _Pulsador
 016B 5400              mov [X+0],A
 016D                   .dbline 157
 016D           ; }
 016D 62D000            mov REG[0xd0],>_Buzzer
 0170 3C0001            cmp [_Buzzer],1
 0173 B003              jnz L46
 0175                   .dbline 157
 0175 9EBD              xcall _Pitido
 0177           L46:
 0177                   .dbline 158
 0177 3D0000            cmp [X+0],0
 017A A003              jz L48
 017C                   .dbline 159
 017C                   .dbline 160
 017C 9004              xcall _Menu
 017E                   .dbline 161
 017E           L48:
 017E                   .dbline -2
 017E                   .dbline 162
 017E           ; }
 017E           ; }
 017E           ; }
 017E           ; }
 017E           ; }
 017E           L43:
 017E 38FD              add SP,-3
 0180 20                pop X
 0181                   .dbline 0 ; func end
 0181 7F                ret
 0182                   .dbsym l x 1 i
 0182                   .dbsym l boton 0 c
 0182                   .dbend
 0182                   .dbfunc e Menu _Menu fV
 0182           ;              x -> X+2
 0182           ;         pulsat -> X+1
 0182           ;          index -> X+0
 0182           _Menu::
 0182                   .dbline -1
 0182 10                push X
 0183 4F                mov X,SP
 0184 3804              add SP,4
 0186                   .dbline 172
 0186           ; }
 0186           ; }
 0186           ; }
 0186           ; }
 0186           ; }
 0186           ; }
 0186           ; }
 0186           ; }
 0186           ; }
 0186           ; }
 0186                   .dbline 173
 0186           ; }
 0186 560001            mov [X+0],1
 0189           L51:
 0189                   .dbline 177
 0189           ; }
 0189           ; }
 0189           ; }
 0189           ; }
 0189                   .dbline 178
 0189           ; }
 0189 10                push X
 018A 5001              mov A,1
 018C 7C0000            xcall _LCD_Control
 018F                   .dbline 179
 018F           ; }
 018F 50C3              mov A,>L54
 0191 08                push A
 0192 50C3              mov A,<L54
 0194 5C                mov X,A
 0195 18                pop A
 0196 7C0000            xcall _LCD_PrCString
 0199                   .dbline 180
 0199           ; }
 0199 5700              mov X,0
 019B 5001              mov A,1
 019D 7C0000            xcall _LCD_Position
 01A0 20                pop X
 01A1                   .dbline 181
 01A1           ; }
 01A1 3D0001            cmp [X+0],1
 01A4 B00F              jnz L55
 01A6                   .dbline 181
 01A6 10                push X
 01A7 50B2              mov A,>L57
 01A9 08                push A
 01AA 50B2              mov A,<L57
 01AC 5C                mov X,A
 01AD 18                pop A
 01AE 7C0000            xcall _LCD_PrCString
 01B1 20                pop X
 01B2 804B              xjmp L56
 01B4           L55:
 01B4                   .dbline 182
 01B4           ; }
 01B4 3D0002            cmp [X+0],2
 01B7 B00F              jnz L58
 01B9                   .dbline 182
 01B9 10                push X
 01BA 50A2              mov A,>L60
 01BC 08                push A
 01BD 50A2              mov A,<L60
 01BF 5C                mov X,A
 01C0 18                pop A
 01C1 7C0000            xcall _LCD_PrCString
 01C4 20                pop X
 01C5 8038              xjmp L59
 01C7           L58:
 01C7                   .dbline 183
 01C7           ; }
 01C7 3D0003            cmp [X+0],3
 01CA B00F              jnz L61
 01CC                   .dbline 183
 01CC 10                push X
 01CD 5092              mov A,>L63
 01CF 08                push A
 01D0 5092              mov A,<L63
 01D2 5C                mov X,A
 01D3 18                pop A
 01D4 7C0000            xcall _LCD_PrCString
 01D7 20                pop X
 01D8 8025              xjmp L62
 01DA           L61:
 01DA                   .dbline 184
 01DA           ; }
 01DA 3D0004            cmp [X+0],4
 01DD B00F              jnz L64
 01DF                   .dbline 184
 01DF 10                push X
 01E0 5087              mov A,>L66
 01E2 08                push A
 01E3 5087              mov A,<L66
 01E5 5C                mov X,A
 01E6 18                pop A
 01E7 7C0000            xcall _LCD_PrCString
 01EA 20                pop X
 01EB 8012              xjmp L65
 01ED           L64:
 01ED                   .dbline 185
 01ED           ; }
 01ED 3D0005            cmp [X+0],5
 01F0 B00D              jnz L67
 01F2                   .dbline 185
 01F2 10                push X
 01F3 5077              mov A,>L69
 01F5 08                push A
 01F6 5077              mov A,<L69
 01F8 5C                mov X,A
 01F9 18                pop A
 01FA 7C0000            xcall _LCD_PrCString
 01FD 20                pop X
 01FE           L67:
 01FE           L65:
 01FE           L62:
 01FE           L59:
 01FE           L56:
 01FE                   .dbline 186
 01FE           ; }
 01FE 9E00              xcall _bucle_temp
 0200                   .dbline 187
 0200           ; }
 0200 9EA4              xcall _Pulsador
 0202 5401              mov [X+1],A
 0204                   .dbline 188
 0204           ; }
 0204 62D000            mov REG[0xd0],>_Buzzer
 0207 3C0001            cmp [_Buzzer],1
 020A B003              jnz L70
 020C                   .dbline 188
 020C 9E26              xcall _Pitido
 020E           L70:
 020E                   .dbline 189
 020E           ; }
 020E 3D0101            cmp [X+1],1
 0211 B019              jnz L72
 0213                   .dbline 190
 0213           ; }
 0213                   .dbline 191
 0213           ; }
 0213 62D000            mov REG[0xd0],>__r0
 0216 5200              mov A,[X+0]
 0218 0101              add A,1
 021A 5300              mov [__r0],A
 021C 5005              mov A,5
 021E 3A00              cmp A,[__r0]
 0220 D006              jnc L74
 0222           X6:
 0222                   .dbline 191
 0222 560001            mov [X+0],1
 0225 8050              xjmp L73
 0227           L74:
 0227                   .dbline 192
 0227           ; }
 0227 7700              inc [X+0]
 0229                   .dbline 193
 0229           ; }
 0229 804C              xjmp L73
 022B           L72:
 022B                   .dbline 194
 022B           ; }
 022B 3D0103            cmp [X+1],3
 022E B030              jnz L76
 0230                   .dbline 195
 0230           ; }
 0230                   .dbline 196
 0230           ; }
 0230 3D0001            cmp [X+0],1
 0233 B005              jnz L78
 0235                   .dbline 196
 0235 9048              xcall _Sensors
 0237 803E              xjmp L77
 0239           L78:
 0239                   .dbline 197
 0239           ; }
 0239 3D0002            cmp [X+0],2
 023C B005              jnz L80
 023E                   .dbline 197
 023E 9326              xcall _Flashes
 0240 8035              xjmp L77
 0242           L80:
 0242                   .dbline 198
 0242           ; }
 0242 3D0003            cmp [X+0],3
 0245 B005              jnz L82
 0247                   .dbline 198
 0247 968F              xcall _Dispar
 0249 802C              xjmp L77
 024B           L82:
 024B                   .dbline 199
 024B           ; }
 024B 3D0004            cmp [X+0],4
 024E B006              jnz L84
 0250                   .dbline 199
 0250 7C0E99            xcall _Executar
 0253 8022              xjmp L77
 0255           L84:
 0255                   .dbline 200
 0255           ; }
 0255 3D0005            cmp [X+0],5
 0258 B01D              jnz L77
 025A                   .dbline 200
 025A 7C1056            xcall _Sistema
 025D                   .dbline 201
 025D           ; }
 025D 8018              xjmp L77
 025F           L76:
 025F                   .dbline 202
 025F           ; }
 025F 3D0102            cmp [X+1],2
 0262 B013              jnz L88
 0264                   .dbline 203
 0264           ; }
 0264                   .dbline 204
 0264           ; }
 0264 62D000            mov REG[0xd0],>__r0
 0267 5200              mov A,[X+0]
 0269 1101              sub A,1
 026B 3901              cmp A,1
 026D D006              jnc L90
 026F           X7:
 026F                   .dbline 204
 026F 560005            mov [X+0],5
 0272 8003              xjmp L91
 0274           L90:
 0274                   .dbline 205
 0274           ; }
 0274 7B00              dec [X+0]
 0276           L91:
 0276                   .dbline 206
 0276           ; }
 0276           L88:
 0276           L77:
 0276           L73:
 0276                   .dbline 207
 0276           L52:
 0276                   .dbline 207
 0276           ; }
 0276 3D0104            cmp [X+1],4
 0279 BF0F              jnz L51
 027B                   .dbline -2
 027B                   .dbline 208
 027B           ; }
 027B           L50:
 027B 38FC              add SP,-4
 027D 20                pop X
 027E                   .dbline 0 ; func end
 027E 7F                ret
 027F                   .dbsym l x 2 i
 027F                   .dbsym l pulsat 1 c
 027F                   .dbsym l index 0 c
 027F                   .dbend
 027F                   .dbfunc e Sensors _Sensors fV
 027F           ;              x -> X+2
 027F           ;           menu -> X+1
 027F           ;         pulsat -> X+0
 027F           _Sensors::
 027F                   .dbline -1
 027F 10                push X
 0280 4F                mov X,SP
 0281 3804              add SP,4
 0283                   .dbline 218
 0283           ; }
 0283           ; }
 0283           ; }
 0283           ; }
 0283           ; }
 0283           ; }
 0283           ; }
 0283           ; }
 0283           ; }
 0283           ; }
 0283                   .dbline 219
 0283           ; }
 0283 560101            mov [X+1],1
 0286           L93:
 0286                   .dbline 223
 0286           ; }
 0286           ; }
 0286           ; }
 0286           ; }
 0286                   .dbline 224
 0286           ; }
 0286 10                push X
 0287 5001              mov A,1
 0289 7C0000            xcall _LCD_Control
 028C                   .dbline 225
 028C           ; }
 028C 5067              mov A,>L96
 028E 08                push A
 028F 5067              mov A,<L96
 0291 5C                mov X,A
 0292 18                pop A
 0293 7C0000            xcall _LCD_PrCString
 0296                   .dbline 226
 0296           ; }
 0296 5700              mov X,0
 0298 5001              mov A,1
 029A 7C0000            xcall _LCD_Position
 029D 20                pop X
 029E                   .dbline 227
 029E           ; }
 029E 3D0101            cmp [X+1],1
 02A1 B00F              jnz L97
 02A3                   .dbline 227
 02A3 10                push X
 02A4 5057              mov A,>L99
 02A6 08                push A
 02A7 5057              mov A,<L99
 02A9 5C                mov X,A
 02AA 18                pop A
 02AB 7C0000            xcall _LCD_PrCString
 02AE 20                pop X
 02AF 8038              xjmp L98
 02B1           L97:
 02B1                   .dbline 228
 02B1           ; }
 02B1 3D0102            cmp [X+1],2
 02B4 B00F              jnz L100
 02B6                   .dbline 228
 02B6 10                push X
 02B7 5047              mov A,>L102
 02B9 08                push A
 02BA 5047              mov A,<L102
 02BC 5C                mov X,A
 02BD 18                pop A
 02BE 7C0000            xcall _LCD_PrCString
 02C1 20                pop X
 02C2 8025              xjmp L101
 02C4           L100:
 02C4                   .dbline 229
 02C4           ; }
 02C4 3D0103            cmp [X+1],3
 02C7 B00F              jnz L103
 02C9                   .dbline 229
 02C9 10                push X
 02CA 5038              mov A,>L105
 02CC 08                push A
 02CD 5038              mov A,<L105
 02CF 5C                mov X,A
 02D0 18                pop A
 02D1 7C0000            xcall _LCD_PrCString
 02D4 20                pop X
 02D5 8012              xjmp L104
 02D7           L103:
 02D7                   .dbline 230
 02D7           ; }
 02D7 3D0104            cmp [X+1],4
 02DA B00D              jnz L106
 02DC                   .dbline 230
 02DC 10                push X
 02DD 5029              mov A,>L108
 02DF 08                push A
 02E0 5029              mov A,<L108
 02E2 5C                mov X,A
 02E3 18                pop A
 02E4 7C0000            xcall _LCD_PrCString
 02E7 20                pop X
 02E8           L106:
 02E8           L104:
 02E8           L101:
 02E8           L98:
 02E8                   .dbline 231
 02E8           ; }
 02E8 9D16              xcall _bucle_temp
 02EA                   .dbline 232
 02EA           ; }
 02EA 9DBA              xcall _Pulsador
 02EC 5400              mov [X+0],A
 02EE                   .dbline 233
 02EE           ; }
 02EE 62D000            mov REG[0xd0],>_Buzzer
 02F1 3C0001            cmp [_Buzzer],1
 02F4 B003              jnz L109
 02F6                   .dbline 233
 02F6 9D3C              xcall _Pitido
 02F8           L109:
 02F8                   .dbline 234
 02F8           ; }
 02F8 3D0001            cmp [X+0],1
 02FB B019              jnz L111
 02FD                   .dbline 235
 02FD           ; }
 02FD                   .dbline 236
 02FD           ; }
 02FD 62D000            mov REG[0xd0],>__r0
 0300 5201              mov A,[X+1]
 0302 0101              add A,1
 0304 5300              mov [__r0],A
 0306 5004              mov A,4
 0308 3A00              cmp A,[__r0]
 030A D006              jnc L113
 030C           X8:
 030C                   .dbline 236
 030C 560101            mov [X+1],1
 030F 8045              xjmp L112
 0311           L113:
 0311                   .dbline 237
 0311           ; }
 0311 7701              inc [X+1]
 0313                   .dbline 238
 0313           ; }
 0313 8041              xjmp L112
 0315           L111:
 0315                   .dbline 239
 0315           ; }
 0315 3D0003            cmp [X+0],3
 0318 B025              jnz L115
 031A                   .dbline 240
 031A           ; }
 031A                   .dbline 241
 031A           ; }
 031A 3D0101            cmp [X+1],1
 031D B005              jnz L117
 031F                   .dbline 241
 031F 903D              xcall _Entrada1
 0321 8033              xjmp L116
 0323           L117:
 0323                   .dbline 242
 0323           ; }
 0323 3D0102            cmp [X+1],2
 0326 B005              jnz L119
 0328                   .dbline 242
 0328 90B6              xcall _Entrada2
 032A 802A              xjmp L116
 032C           L119:
 032C                   .dbline 243
 032C           ; }
 032C 3D0103            cmp [X+1],3
 032F B005              jnz L121
 0331                   .dbline 243
 0331 912F              xcall _Entrada3
 0333 8021              xjmp L116
 0335           L121:
 0335                   .dbline 244
 0335           ; }
 0335 3D0104            cmp [X+1],4
 0338 B01C              jnz L116
 033A                   .dbline 244
 033A 91A8              xcall _Entrada4
 033C                   .dbline 245
 033C           ; }
 033C 8018              xjmp L116
 033E           L115:
 033E                   .dbline 246
 033E           ; }
 033E 3D0002            cmp [X+0],2
 0341 B013              jnz L125
 0343                   .dbline 247
 0343           ; }
 0343                   .dbline 248
 0343           ; }
 0343 62D000            mov REG[0xd0],>__r0
 0346 5201              mov A,[X+1]
 0348 1101              sub A,1
 034A 3901              cmp A,1
 034C D006              jnc L127
 034E           X9:
 034E                   .dbline 248
 034E 560104            mov [X+1],4
 0351 8003              xjmp L128
 0353           L127:
 0353                   .dbline 249
 0353           ; }
 0353 7B01              dec [X+1]
 0355           L128:
 0355                   .dbline 250
 0355           ; }
 0355           L125:
 0355           L116:
 0355           L112:
 0355                   .dbline 251
 0355           L94:
 0355                   .dbline 251
 0355           ; }
 0355 3D0004            cmp [X+0],4
 0358 BF2D              jnz L93
 035A                   .dbline -2
 035A                   .dbline 252
 035A           ; }
 035A           L92:
 035A 38FC              add SP,-4
 035C 20                pop X
 035D                   .dbline 0 ; func end
 035D 7F                ret
 035E                   .dbsym l x 2 i
 035E                   .dbsym l menu 1 c
 035E                   .dbsym l pulsat 0 c
 035E                   .dbend
 035E                   .dbfunc e Entrada1 _Entrada1 fV
 035E           ;              x -> X+1
 035E           ;         pulsat -> X+0
 035E           _Entrada1::
 035E                   .dbline -1
 035E 10                push X
 035F 4F                mov X,SP
 0360 3803              add SP,3
 0362                   .dbline 262
 0362           ; }
 0362           ; }
 0362           ; }
 0362           ; }
 0362           ; }
 0362           ; }
 0362           ; }
 0362           ; }
 0362           ; }
 0362           ; }
 0362           L130:
 0362                   .dbline 267
 0362           ; }
 0362           ; }
 0362           ; }
 0362           ; }
 0362           ; }
 0362                   .dbline 268
 0362           ; }
 0362 10                push X
 0363 5001              mov A,1
 0365 7C0000            xcall _LCD_Control
 0368                   .dbline 269
 0368           ; }
 0368 501A              mov A,>L133
 036A 08                push A
 036B 501A              mov A,<L133
 036D 5C                mov X,A
 036E 18                pop A
 036F 7C0000            xcall _LCD_PrCString
 0372                   .dbline 270
 0372           ; }
 0372 5700              mov X,0
 0374 5001              mov A,1
 0376 7C0000            xcall _LCD_Position
 0379 20                pop X
 037A                   .dbline 271
 037A           ; }
 037A 62D000            mov REG[0xd0],>_Ent1
 037D 3C0000            cmp [_Ent1],0
 0380 B00F              jnz L134
 0382                   .dbline 271
 0382 10                push X
 0383 5016              mov A,>L136
 0385 08                push A
 0386 5016              mov A,<L136
 0388 5C                mov X,A
 0389 18                pop A
 038A 7C0000            xcall _LCD_PrCString
 038D 20                pop X
 038E 800D              xjmp L135
 0390           L134:
 0390                   .dbline 272
 0390           ; }
 0390 10                push X
 0391 5013              mov A,>L137
 0393 08                push A
 0394 5013              mov A,<L137
 0396 5C                mov X,A
 0397 18                pop A
 0398 7C0000            xcall _LCD_PrCString
 039B 20                pop X
 039C           L135:
 039C                   .dbline 273
 039C           ; }
 039C 9C62              xcall _bucle_temp
 039E                   .dbline 274
 039E           ; }
 039E 9D06              xcall _Pulsador
 03A0 5400              mov [X+0],A
 03A2                   .dbline 275
 03A2           ; }
 03A2 62D000            mov REG[0xd0],>_Buzzer
 03A5 3C0001            cmp [_Buzzer],1
 03A8 B003              jnz L138
 03AA                   .dbline 275
 03AA 9C88              xcall _Pitido
 03AC           L138:
 03AC                   .dbline 276
 03AC           ; }
 03AC 3D0001            cmp [X+0],1
 03AF A006              jz L142
 03B1 3D0002            cmp [X+0],2
 03B4 B00A              jnz L140
 03B6           L142:
 03B6                   .dbline 277
 03B6           ; }
 03B6                   .dbline 278
 03B6           ; }
 03B6 5D00              mov A,REG[ 0]
 03B8 62D000            mov REG[0xd0],>__r0
 03BB 6000              mov REG[ 0],A
 03BD                   .dbline 279
 03BD           ; }
 03BD 8019              xjmp L141
 03BF           L140:
 03BF                   .dbline 280
 03BF           ; }
 03BF 3D0003            cmp [X+0],3
 03C2 B014              jnz L143
 03C4                   .dbline 281
 03C4           ; }
 03C4                   .dbline 282
 03C4           ; }
 03C4 62D000            mov REG[0xd0],>_Ent1
 03C7 3C0000            cmp [_Ent1],0
 03CA B006              jnz L145
 03CC                   .dbline 282
 03CC 550001            mov [_Ent1],1
 03CF 8007              xjmp L146
 03D1           L145:
 03D1                   .dbline 283
 03D1           ; }
 03D1 62D000            mov REG[0xd0],>_Ent1
 03D4 550000            mov [_Ent1],0
 03D7           L146:
 03D7                   .dbline 284
 03D7           ; }
 03D7           L143:
 03D7           L141:
 03D7                   .dbline 285
 03D7           L131:
 03D7                   .dbline 285
 03D7           ; }
 03D7 3D0004            cmp [X+0],4
 03DA BF87              jnz L130
 03DC                   .dbline -2
 03DC                   .dbline 286
 03DC           ; }
 03DC           L129:
 03DC 38FD              add SP,-3
 03DE 20                pop X
 03DF                   .dbline 0 ; func end
 03DF 7F                ret
 03E0                   .dbsym l x 1 i
 03E0                   .dbsym l pulsat 0 c
 03E0                   .dbend
 03E0                   .dbfunc e Entrada2 _Entrada2 fV
 03E0           ;              x -> X+1
 03E0           ;         pulsat -> X+0
 03E0           _Entrada2::
 03E0                   .dbline -1
 03E0 10                push X
 03E1 4F                mov X,SP
 03E2 3803              add SP,3
 03E4                   .dbline 296
 03E4           ; }
 03E4           ; }
 03E4           ; }
 03E4           ; }
 03E4           ; }
 03E4           ; }
 03E4           ; }
 03E4           ; }
 03E4           ; }
 03E4           ; }
 03E4           L148:
 03E4                   .dbline 301
 03E4           ; }
 03E4           ; }
 03E4           ; }
 03E4           ; }
 03E4           ; }
 03E4                   .dbline 302
 03E4           ; }
 03E4 10                push X
 03E5 5001              mov A,1
 03E7 7C0000            xcall _LCD_Control
 03EA                   .dbline 303
 03EA           ; }
 03EA 5004              mov A,>L151
 03EC 08                push A
 03ED 5004              mov A,<L151
 03EF 5C                mov X,A
 03F0 18                pop A
 03F1 7C0000            xcall _LCD_PrCString
 03F4                   .dbline 304
 03F4           ; }
 03F4 5700              mov X,0
 03F6 5001              mov A,1
 03F8 7C0000            xcall _LCD_Position
 03FB 20                pop X
 03FC                   .dbline 305
 03FC           ; }
 03FC 62D000            mov REG[0xd0],>_Ent2
 03FF 3C0000            cmp [_Ent2],0
 0402 B00F              jnz L152
 0404                   .dbline 305
 0404 10                push X
 0405 5016              mov A,>L136
 0407 08                push A
 0408 5016              mov A,<L136
 040A 5C                mov X,A
 040B 18                pop A
 040C 7C0000            xcall _LCD_PrCString
 040F 20                pop X
 0410 800D              xjmp L153
 0412           L152:
 0412                   .dbline 306
 0412           ; }
 0412 10                push X
 0413 5013              mov A,>L137
 0415 08                push A
 0416 5013              mov A,<L137
 0418 5C                mov X,A
 0419 18                pop A
 041A 7C0000            xcall _LCD_PrCString
 041D 20                pop X
 041E           L153:
 041E                   .dbline 307
 041E           ; }
 041E 9BE0              xcall _bucle_temp
 0420                   .dbline 308
 0420           ; }
 0420 9C84              xcall _Pulsador
 0422 5400              mov [X+0],A
 0424                   .dbline 309
 0424           ; }
 0424 62D000            mov REG[0xd0],>_Buzzer
 0427 3C0001            cmp [_Buzzer],1
 042A B003              jnz L154
 042C                   .dbline 309
 042C 9C06              xcall _Pitido
 042E           L154:
 042E                   .dbline 310
 042E           ; }
 042E 3D0001            cmp [X+0],1
 0431 A006              jz L158
 0433 3D0002            cmp [X+0],2
 0436 B00A              jnz L156
 0438           L158:
 0438                   .dbline 311
 0438           ; }
 0438                   .dbline 312
 0438           ; }
 0438 5D00              mov A,REG[ 0]
 043A 62D000            mov REG[0xd0],>__r0
 043D 6000              mov REG[ 0],A
 043F                   .dbline 313
 043F           ; }
 043F 8019              xjmp L157
 0441           L156:
 0441                   .dbline 314
 0441           ; }
 0441 3D0003            cmp [X+0],3
 0444 B014              jnz L159
 0446                   .dbline 315
 0446           ; }
 0446                   .dbline 316
 0446           ; }
 0446 62D000            mov REG[0xd0],>_Ent2
 0449 3C0000            cmp [_Ent2],0
 044C B006              jnz L161
 044E                   .dbline 316
 044E 550001            mov [_Ent2],1
 0451 8007              xjmp L162
 0453           L161:
 0453                   .dbline 317
 0453           ; }
 0453 62D000            mov REG[0xd0],>_Ent2
 0456 550000            mov [_Ent2],0
 0459           L162:
 0459                   .dbline 318
 0459           ; }
 0459           L159:
 0459           L157:
 0459                   .dbline 319
 0459           L149:
 0459                   .dbline 319
 0459           ; }
 0459 3D0004            cmp [X+0],4
 045C BF87              jnz L148
 045E                   .dbline -2
 045E                   .dbline 320
 045E           ; }
 045E           L147:
 045E 38FD              add SP,-3
 0460 20                pop X
 0461                   .dbline 0 ; func end
 0461 7F                ret
 0462                   .dbsym l x 1 i
 0462                   .dbsym l pulsat 0 c
 0462                   .dbend
 0462                   .dbfunc e Entrada3 _Entrada3 fV
 0462           ;              x -> X+1
 0462           ;         pulsat -> X+0
 0462           _Entrada3::
 0462                   .dbline -1
 0462 10                push X
 0463 4F                mov X,SP
 0464 3803              add SP,3
 0466                   .dbline 330
 0466           ; }
 0466           ; }
 0466           ; }
 0466           ; }
 0466           ; }
 0466           ; }
 0466           ; }
 0466           ; }
 0466           ; }
 0466           ; }
 0466           L164:
 0466                   .dbline 335
 0466           ; }
 0466           ; }
 0466           ; }
 0466           ; }
 0466           ; }
 0466                   .dbline 336
 0466           ; }
 0466 10                push X
 0467 5001              mov A,1
 0469 7C0000            xcall _LCD_Control
 046C                   .dbline 337
 046C           ; }
 046C 50F6              mov A,>L167
 046E 08                push A
 046F 50F6              mov A,<L167
 0471 5C                mov X,A
 0472 18                pop A
 0473 7C0000            xcall _LCD_PrCString
 0476                   .dbline 338
 0476           ; }
 0476 5700              mov X,0
 0478 5001              mov A,1
 047A 7C0000            xcall _LCD_Position
 047D 20                pop X
 047E                   .dbline 339
 047E           ; }
 047E 62D000            mov REG[0xd0],>_Ent3
 0481 3C0000            cmp [_Ent3],0
 0484 B00F              jnz L168
 0486                   .dbline 339
 0486 10                push X
 0487 5016              mov A,>L136
 0489 08                push A
 048A 5016              mov A,<L136
 048C 5C                mov X,A
 048D 18                pop A
 048E 7C0000            xcall _LCD_PrCString
 0491 20                pop X
 0492 800D              xjmp L169
 0494           L168:
 0494                   .dbline 340
 0494           ; }
 0494 10                push X
 0495 5013              mov A,>L137
 0497 08                push A
 0498 5013              mov A,<L137
 049A 5C                mov X,A
 049B 18                pop A
 049C 7C0000            xcall _LCD_PrCString
 049F 20                pop X
 04A0           L169:
 04A0                   .dbline 341
 04A0           ; }
 04A0 9B5E              xcall _bucle_temp
 04A2                   .dbline 342
 04A2           ; }
 04A2 9C02              xcall _Pulsador
 04A4 5400              mov [X+0],A
 04A6                   .dbline 343
 04A6           ; }
 04A6 62D000            mov REG[0xd0],>_Buzzer
 04A9 3C0001            cmp [_Buzzer],1
 04AC B003              jnz L170
 04AE                   .dbline 343
 04AE 9B84              xcall _Pitido
 04B0           L170:
 04B0                   .dbline 344
 04B0           ; }
 04B0 3D0001            cmp [X+0],1
 04B3 A006              jz L174
 04B5 3D0002            cmp [X+0],2
 04B8 B00A              jnz L172
 04BA           L174:
 04BA                   .dbline 345
 04BA           ; }
 04BA                   .dbline 346
 04BA           ; }
 04BA 5D00              mov A,REG[ 0]
 04BC 62D000            mov REG[0xd0],>__r0
 04BF 6000              mov REG[ 0],A
 04C1                   .dbline 347
 04C1           ; }
 04C1 8019              xjmp L173
 04C3           L172:
 04C3                   .dbline 348
 04C3           ; }
 04C3 3D0003            cmp [X+0],3
 04C6 B014              jnz L175
 04C8                   .dbline 349
 04C8           ; }
 04C8                   .dbline 350
 04C8           ; }
 04C8 62D000            mov REG[0xd0],>_Ent3
 04CB 3C0000            cmp [_Ent3],0
 04CE B006              jnz L177
 04D0                   .dbline 350
 04D0 550001            mov [_Ent3],1
 04D3 8007              xjmp L178
 04D5           L177:
 04D5                   .dbline 351
 04D5           ; }
 04D5 62D000            mov REG[0xd0],>_Ent3
 04D8 550000            mov [_Ent3],0
 04DB           L178:
 04DB                   .dbline 352
 04DB           ; }
 04DB           L175:
 04DB           L173:
 04DB                   .dbline 353
 04DB           L165:
 04DB                   .dbline 353
 04DB           ; }
 04DB 3D0004            cmp [X+0],4
 04DE BF87              jnz L164
 04E0                   .dbline -2
 04E0                   .dbline 354
 04E0           ; }
 04E0           L163:
 04E0 38FD              add SP,-3
 04E2 20                pop X
 04E3                   .dbline 0 ; func end
 04E3 7F                ret
 04E4                   .dbsym l x 1 i
 04E4                   .dbsym l pulsat 0 c
 04E4                   .dbend
 04E4                   .dbfunc e Entrada4 _Entrada4 fV
 04E4           ;              x -> X+1
 04E4           ;         pulsat -> X+0
 04E4           _Entrada4::
 04E4                   .dbline -1
 04E4 10                push X
 04E5 4F                mov X,SP
 04E6 3803              add SP,3
 04E8                   .dbline 364
 04E8           ; }
 04E8           ; }
 04E8           ; }
 04E8           ; }
 04E8           ; }
 04E8           ; }
 04E8           ; }
 04E8           ; }
 04E8           ; }
 04E8           ; }
 04E8           L180:
 04E8                   .dbline 369
 04E8           ; }
 04E8           ; }
 04E8           ; }
 04E8           ; }
 04E8           ; }
 04E8                   .dbline 370
 04E8           ; }
 04E8 10                push X
 04E9 5001              mov A,1
 04EB 7C0000            xcall _LCD_Control
 04EE                   .dbline 371
 04EE           ; }
 04EE 50E8              mov A,>L183
 04F0 08                push A
 04F1 50E8              mov A,<L183
 04F3 5C                mov X,A
 04F4 18                pop A
 04F5 7C0000            xcall _LCD_PrCString
 04F8                   .dbline 372
 04F8           ; }
 04F8 5700              mov X,0
 04FA 5001              mov A,1
 04FC 7C0000            xcall _LCD_Position
 04FF 20                pop X
 0500                   .dbline 373
 0500           ; }
 0500 62D000            mov REG[0xd0],>_Ent4
 0503 3C0000            cmp [_Ent4],0
 0506 B00F              jnz L184
 0508                   .dbline 373
 0508 10                push X
 0509 5016              mov A,>L136
 050B 08                push A
 050C 5016              mov A,<L136
 050E 5C                mov X,A
 050F 18                pop A
 0510 7C0000            xcall _LCD_PrCString
 0513 20                pop X
 0514 800D              xjmp L185
 0516           L184:
 0516                   .dbline 374
 0516           ; }
 0516 10                push X
 0517 5013              mov A,>L137
 0519 08                push A
 051A 5013              mov A,<L137
 051C 5C                mov X,A
 051D 18                pop A
 051E 7C0000            xcall _LCD_PrCString
 0521 20                pop X
 0522           L185:
 0522                   .dbline 375
 0522           ; }
 0522 9ADC              xcall _bucle_temp
 0524                   .dbline 376
 0524           ; }
 0524 9B80              xcall _Pulsador
 0526 5400              mov [X+0],A
 0528                   .dbline 377
 0528           ; }
 0528 62D000            mov REG[0xd0],>_Buzzer
 052B 3C0001            cmp [_Buzzer],1
 052E B003              jnz L186
 0530                   .dbline 377
 0530 9B02              xcall _Pitido
 0532           L186:
 0532                   .dbline 378
 0532           ; }
 0532 3D0001            cmp [X+0],1
 0535 A006              jz L190
 0537 3D0002            cmp [X+0],2
 053A B00A              jnz L188
 053C           L190:
 053C                   .dbline 379
 053C           ; }
 053C                   .dbline 380
 053C           ; }
 053C 5D00              mov A,REG[ 0]
 053E 62D000            mov REG[0xd0],>__r0
 0541 6000              mov REG[ 0],A
 0543                   .dbline 381
 0543           ; }
 0543 8019              xjmp L189
 0545           L188:
 0545                   .dbline 382
 0545           ; }
 0545 3D0003            cmp [X+0],3
 0548 B014              jnz L191
 054A                   .dbline 383
 054A           ; }
 054A                   .dbline 384
 054A           ; }
 054A 62D000            mov REG[0xd0],>_Ent4
 054D 3C0000            cmp [_Ent4],0
 0550 B006              jnz L193
 0552                   .dbline 384
 0552 550001            mov [_Ent4],1
 0555 8007              xjmp L194
 0557           L193:
 0557                   .dbline 385
 0557           ; }
 0557 62D000            mov REG[0xd0],>_Ent4
 055A 550000            mov [_Ent4],0
 055D           L194:
 055D                   .dbline 386
 055D           ; }
 055D           L191:
 055D           L189:
 055D                   .dbline 387
 055D           L181:
 055D                   .dbline 387
 055D           ; }
 055D 3D0004            cmp [X+0],4
 0560 BF87              jnz L180
 0562                   .dbline -2
 0562                   .dbline 388
 0562           ; }
 0562           L179:
 0562 38FD              add SP,-3
 0564 20                pop X
 0565                   .dbline 0 ; func end
 0565 7F                ret
 0566                   .dbsym l x 1 i
 0566                   .dbsym l pulsat 0 c
 0566                   .dbend
 0566                   .dbfunc e Flashes _Flashes fV
 0566           ;              x -> X+2
 0566           ;           menu -> X+1
 0566           ;         pulsat -> X+0
 0566           _Flashes::
 0566                   .dbline -1
 0566 10                push X
 0567 4F                mov X,SP
 0568 3804              add SP,4
 056A                   .dbline 398
 056A           ; }
 056A           ; }
 056A           ; }
 056A           ; }
 056A           ; }
 056A           ; }
 056A           ; }
 056A           ; }
 056A           ; }
 056A           ; }
 056A                   .dbline 399
 056A           ; }
 056A 560101            mov [X+1],1
 056D           L196:
 056D                   .dbline 403
 056D           ; }
 056D           ; }
 056D           ; }
 056D           ; }
 056D                   .dbline 404
 056D           ; }
 056D 10                push X
 056E 5001              mov A,1
 0570 7C0000            xcall _LCD_Control
 0573                   .dbline 405
 0573           ; }
 0573 50D9              mov A,>L199
 0575 08                push A
 0576 50D9              mov A,<L199
 0578 5C                mov X,A
 0579 18                pop A
 057A 7C0000            xcall _LCD_PrCString
 057D                   .dbline 406
 057D           ; }
 057D 5700              mov X,0
 057F 5001              mov A,1
 0581 7C0000            xcall _LCD_Position
 0584 20                pop X
 0585                   .dbline 407
 0585           ; }
 0585 3D0101            cmp [X+1],1
 0588 B031              jnz L200
 058A                   .dbline 408
 058A           ; }
 058A                   .dbline 409
 058A           ; }
 058A 10                push X
 058B 50CF              mov A,>L202
 058D 08                push A
 058E 50CF              mov A,<L202
 0590 5C                mov X,A
 0591 18                pop A
 0592 7C0000            xcall _LCD_PrCString
 0595 20                pop X
 0596                   .dbline 410
 0596           ; }
 0596 62D000            mov REG[0xd0],>_Fla1
 0599 3C0000            cmp [_Fla1],0
 059C B00F              jnz L203
 059E                   .dbline 410
 059E 10                push X
 059F 50C8              mov A,>L205
 05A1 08                push A
 05A2 50C8              mov A,<L205
 05A4 5C                mov X,A
 05A5 18                pop A
 05A6 7C0000            xcall _LCD_PrCString
 05A9 20                pop X
 05AA 80AC              xjmp L201
 05AC           L203:
 05AC                   .dbline 411
 05AC           ; }
 05AC 10                push X
 05AD 50C2              mov A,>L206
 05AF 08                push A
 05B0 50C2              mov A,<L206
 05B2 5C                mov X,A
 05B3 18                pop A
 05B4 7C0000            xcall _LCD_PrCString
 05B7 20                pop X
 05B8                   .dbline 412
 05B8           ; }
 05B8 809E              xjmp L201
 05BA           L200:
 05BA                   .dbline 413
 05BA           ; }
 05BA 3D0102            cmp [X+1],2
 05BD B031              jnz L207
 05BF                   .dbline 414
 05BF           ; }
 05BF                   .dbline 415
 05BF           ; }
 05BF 10                push X
 05C0 50B8              mov A,>L209
 05C2 08                push A
 05C3 50B8              mov A,<L209
 05C5 5C                mov X,A
 05C6 18                pop A
 05C7 7C0000            xcall _LCD_PrCString
 05CA 20                pop X
 05CB                   .dbline 416
 05CB           ; }
 05CB 62D000            mov REG[0xd0],>_Fla2
 05CE 3C0000            cmp [_Fla2],0
 05D1 B00F              jnz L210
 05D3                   .dbline 416
 05D3 10                push X
 05D4 50C8              mov A,>L205
 05D6 08                push A
 05D7 50C8              mov A,<L205
 05D9 5C                mov X,A
 05DA 18                pop A
 05DB 7C0000            xcall _LCD_PrCString
 05DE 20                pop X
 05DF 8077              xjmp L208
 05E1           L210:
 05E1                   .dbline 417
 05E1           ; }
 05E1 10                push X
 05E2 50C2              mov A,>L206
 05E4 08                push A
 05E5 50C2              mov A,<L206
 05E7 5C                mov X,A
 05E8 18                pop A
 05E9 7C0000            xcall _LCD_PrCString
 05EC 20                pop X
 05ED                   .dbline 418
 05ED           ; }
 05ED 8069              xjmp L208
 05EF           L207:
 05EF                   .dbline 419
 05EF           ; }
 05EF 3D0103            cmp [X+1],3
 05F2 B031              jnz L212
 05F4                   .dbline 420
 05F4           ; }
 05F4                   .dbline 422
 05F4           ; }
 05F4           ; }
 05F4 10                push X
 05F5 50AE              mov A,>L214
 05F7 08                push A
 05F8 50AE              mov A,<L214
 05FA 5C                mov X,A
 05FB 18                pop A
 05FC 7C0000            xcall _LCD_PrCString
 05FF 20                pop X
 0600                   .dbline 423
 0600           ; }
 0600 62D000            mov REG[0xd0],>_Fla3
 0603 3C0000            cmp [_Fla3],0
 0606 B00F              jnz L215
 0608                   .dbline 423
 0608 10                push X
 0609 50C8              mov A,>L205
 060B 08                push A
 060C 50C8              mov A,<L205
 060E 5C                mov X,A
 060F 18                pop A
 0610 7C0000            xcall _LCD_PrCString
 0613 20                pop X
 0614 8042              xjmp L213
 0616           L215:
 0616                   .dbline 424
 0616           ; }
 0616 10                push X
 0617 50C2              mov A,>L206
 0619 08                push A
 061A 50C2              mov A,<L206
 061C 5C                mov X,A
 061D 18                pop A
 061E 7C0000            xcall _LCD_PrCString
 0621 20                pop X
 0622                   .dbline 425
 0622           ; }
 0622 8034              xjmp L213
 0624           L212:
 0624                   .dbline 426
 0624           ; }
 0624 3D0104            cmp [X+1],4
 0627 B02F              jnz L217
 0629                   .dbline 427
 0629           ; }
 0629                   .dbline 428
 0629           ; }
 0629 10                push X
 062A 50A4              mov A,>L219
 062C 08                push A
 062D 50A4              mov A,<L219
 062F 5C                mov X,A
 0630 18                pop A
 0631 7C0000            xcall _LCD_PrCString
 0634 20                pop X
 0635                   .dbline 429
 0635           ; }
 0635 62D000            mov REG[0xd0],>_Fla4
 0638 3C0000            cmp [_Fla4],0
 063B B00F              jnz L220
 063D                   .dbline 429
 063D 10                push X
 063E 509C              mov A,>L222
 0640 08                push A
 0641 509C              mov A,<L222
 0643 5C                mov X,A
 0644 18                pop A
 0645 7C0000            xcall _LCD_PrCString
 0648 20                pop X
 0649 800D              xjmp L221
 064B           L220:
 064B                   .dbline 430
 064B           ; }
 064B 10                push X
 064C 50C2              mov A,>L206
 064E 08                push A
 064F 50C2              mov A,<L206
 0651 5C                mov X,A
 0652 18                pop A
 0653 7C0000            xcall _LCD_PrCString
 0656 20                pop X
 0657           L221:
 0657                   .dbline 431
 0657           ; }
 0657           L217:
 0657           L213:
 0657           L208:
 0657           L201:
 0657                   .dbline 432
 0657           ; }
 0657 99A7              xcall _bucle_temp
 0659                   .dbline 433
 0659           ; }
 0659 9A4B              xcall _Pulsador
 065B 5400              mov [X+0],A
 065D                   .dbline 434
 065D           ; }
 065D 62D000            mov REG[0xd0],>_Buzzer
 0660 3C0001            cmp [_Buzzer],1
 0663 B003              jnz L223
 0665                   .dbline 434
 0665 99CD              xcall _Pitido
 0667           L223:
 0667                   .dbline 435
 0667           ; }
 0667 3D0001            cmp [X+0],1
 066A B019              jnz L225
 066C                   .dbline 436
 066C           ; }
 066C                   .dbline 437
 066C           ; }
 066C 62D000            mov REG[0xd0],>__r0
 066F 5201              mov A,[X+1]
 0671 0101              add A,1
 0673 5300              mov [__r0],A
 0675 5004              mov A,4
 0677 3A00              cmp A,[__r0]
 0679 D006              jnc L227
 067B           X10:
 067B                   .dbline 437
 067B 560101            mov [X+1],1
 067E 8045              xjmp L226
 0680           L227:
 0680                   .dbline 438
 0680           ; }
 0680 7701              inc [X+1]
 0682                   .dbline 439
 0682           ; }
 0682 8041              xjmp L226
 0684           L225:
 0684                   .dbline 440
 0684           ; }
 0684 3D0003            cmp [X+0],3
 0687 B025              jnz L229
 0689                   .dbline 441
 0689           ; }
 0689                   .dbline 442
 0689           ; }
 0689 3D0101            cmp [X+1],1
 068C B005              jnz L231
 068E                   .dbline 442
 068E 903D              xcall _Flash1
 0690 8033              xjmp L230
 0692           L231:
 0692                   .dbline 443
 0692           ; }
 0692 3D0102            cmp [X+1],2
 0695 B005              jnz L233
 0697                   .dbline 443
 0697 90B6              xcall _Flash2
 0699 802A              xjmp L230
 069B           L233:
 069B                   .dbline 444
 069B           ; }
 069B 3D0103            cmp [X+1],3
 069E B005              jnz L235
 06A0                   .dbline 444
 06A0 912F              xcall _Flash3
 06A2 8021              xjmp L230
 06A4           L235:
 06A4                   .dbline 445
 06A4           ; }
 06A4 3D0104            cmp [X+1],4
 06A7 B01C              jnz L230
 06A9                   .dbline 445
 06A9 91A9              xcall _Flash4
 06AB                   .dbline 446
 06AB           ; }
 06AB 8018              xjmp L230
 06AD           L229:
 06AD                   .dbline 447
 06AD           ; }
 06AD 3D0002            cmp [X+0],2
 06B0 B013              jnz L239
 06B2                   .dbline 448
 06B2           ; }
 06B2                   .dbline 449
 06B2           ; }
 06B2 62D000            mov REG[0xd0],>__r0
 06B5 5201              mov A,[X+1]
 06B7 1101              sub A,1
 06B9 3901              cmp A,1
 06BB D006              jnc L241
 06BD           X11:
 06BD                   .dbline 449
 06BD 560104            mov [X+1],4
 06C0 8003              xjmp L242
 06C2           L241:
 06C2                   .dbline 450
 06C2           ; }
 06C2 7B01              dec [X+1]
 06C4           L242:
 06C4                   .dbline 451
 06C4           ; }
 06C4           L239:
 06C4           L230:
 06C4           L226:
 06C4                   .dbline 452
 06C4           L197:
 06C4                   .dbline 452
 06C4           ; }
 06C4 3D0004            cmp [X+0],4
 06C7 BEA5              jnz L196
 06C9                   .dbline -2
 06C9                   .dbline 453
 06C9           ; }
 06C9           L195:
 06C9 38FC              add SP,-4
 06CB 20                pop X
 06CC                   .dbline 0 ; func end
 06CC 7F                ret
 06CD                   .dbsym l x 2 i
 06CD                   .dbsym l menu 1 c
 06CD                   .dbsym l pulsat 0 c
 06CD                   .dbend
 06CD                   .dbfunc e Flash1 _Flash1 fV
 06CD           ;              x -> X+1
 06CD           ;         pulsat -> X+0
 06CD           _Flash1::
 06CD                   .dbline -1
 06CD 10                push X
 06CE 4F                mov X,SP
 06CF 3803              add SP,3
 06D1                   .dbline 462
 06D1           ; }
 06D1           ; }
 06D1           ; }
 06D1           ; }
 06D1           ; }
 06D1           ; }
 06D1           ; }
 06D1           ; }
 06D1           ; }
 06D1           L244:
 06D1                   .dbline 467
 06D1           ; }
 06D1           ; }
 06D1           ; }
 06D1           ; }
 06D1           ; }
 06D1                   .dbline 468
 06D1           ; }
 06D1 10                push X
 06D2 5001              mov A,1
 06D4 7C0000            xcall _LCD_Control
 06D7                   .dbline 469
 06D7           ; }
 06D7 5093              mov A,>L247
 06D9 08                push A
 06DA 5093              mov A,<L247
 06DC 5C                mov X,A
 06DD 18                pop A
 06DE 7C0000            xcall _LCD_PrCString
 06E1                   .dbline 470
 06E1           ; }
 06E1 5700              mov X,0
 06E3 5001              mov A,1
 06E5 7C0000            xcall _LCD_Position
 06E8 20                pop X
 06E9                   .dbline 471
 06E9           ; }
 06E9 62D000            mov REG[0xd0],>_Fla1
 06EC 3C0000            cmp [_Fla1],0
 06EF B00F              jnz L248
 06F1                   .dbline 471
 06F1 10                push X
 06F2 5016              mov A,>L136
 06F4 08                push A
 06F5 5016              mov A,<L136
 06F7 5C                mov X,A
 06F8 18                pop A
 06F9 7C0000            xcall _LCD_PrCString
 06FC 20                pop X
 06FD 800D              xjmp L249
 06FF           L248:
 06FF                   .dbline 472
 06FF           ; }
 06FF 10                push X
 0700 5013              mov A,>L137
 0702 08                push A
 0703 5013              mov A,<L137
 0705 5C                mov X,A
 0706 18                pop A
 0707 7C0000            xcall _LCD_PrCString
 070A 20                pop X
 070B           L249:
 070B                   .dbline 473
 070B           ; }
 070B 98F3              xcall _bucle_temp
 070D                   .dbline 474
 070D           ; }
 070D 9997              xcall _Pulsador
 070F 5400              mov [X+0],A
 0711                   .dbline 475
 0711           ; }
 0711 62D000            mov REG[0xd0],>_Buzzer
 0714 3C0001            cmp [_Buzzer],1
 0717 B003              jnz L250
 0719                   .dbline 475
 0719 9919              xcall _Pitido
 071B           L250:
 071B                   .dbline 476
 071B           ; }
 071B 3D0001            cmp [X+0],1
 071E A006              jz L254
 0720 3D0002            cmp [X+0],2
 0723 B00A              jnz L252
 0725           L254:
 0725                   .dbline 477
 0725           ; }
 0725                   .dbline 478
 0725           ; }
 0725 5D00              mov A,REG[ 0]
 0727 62D000            mov REG[0xd0],>__r0
 072A 6000              mov REG[ 0],A
 072C                   .dbline 479
 072C           ; }
 072C 8019              xjmp L253
 072E           L252:
 072E                   .dbline 480
 072E           ; }
 072E 3D0003            cmp [X+0],3
 0731 B014              jnz L255
 0733                   .dbline 481
 0733           ; }
 0733                   .dbline 482
 0733           ; }
 0733 62D000            mov REG[0xd0],>_Fla1
 0736 3C0000            cmp [_Fla1],0
 0739 B006              jnz L257
 073B                   .dbline 482
 073B 550001            mov [_Fla1],1
 073E 8007              xjmp L258
 0740           L257:
 0740                   .dbline 483
 0740           ; }
 0740 62D000            mov REG[0xd0],>_Fla1
 0743 550000            mov [_Fla1],0
 0746           L258:
 0746                   .dbline 484
 0746           ; }
 0746           L255:
 0746           L253:
 0746                   .dbline 485
 0746           L245:
 0746                   .dbline 485
 0746           ; }
 0746 3D0004            cmp [X+0],4
 0749 BF87              jnz L244
 074B                   .dbline -2
 074B                   .dbline 486
 074B           ; }
 074B           L243:
 074B 38FD              add SP,-3
 074D 20                pop X
 074E                   .dbline 0 ; func end
 074E 7F                ret
 074F                   .dbsym l x 1 i
 074F                   .dbsym l pulsat 0 c
 074F                   .dbend
 074F                   .dbfunc e Flash2 _Flash2 fV
 074F           ;              x -> X+1
 074F           ;         pulsat -> X+0
 074F           _Flash2::
 074F                   .dbline -1
 074F 10                push X
 0750 4F                mov X,SP
 0751 3803              add SP,3
 0753                   .dbline 496
 0753           ; }
 0753           ; }
 0753           ; }
 0753           ; }
 0753           ; }
 0753           ; }
 0753           ; }
 0753           ; }
 0753           ; }
 0753           ; }
 0753           L260:
 0753                   .dbline 501
 0753           ; }
 0753           ; }
 0753           ; }
 0753           ; }
 0753           ; }
 0753                   .dbline 502
 0753           ; }
 0753 10                push X
 0754 5001              mov A,1
 0756 7C0000            xcall _LCD_Control
 0759                   .dbline 503
 0759           ; }
 0759 508A              mov A,>L263
 075B 08                push A
 075C 508A              mov A,<L263
 075E 5C                mov X,A
 075F 18                pop A
 0760 7C0000            xcall _LCD_PrCString
 0763                   .dbline 504
 0763           ; }
 0763 5700              mov X,0
 0765 5001              mov A,1
 0767 7C0000            xcall _LCD_Position
 076A 20                pop X
 076B                   .dbline 505
 076B           ; }
 076B 62D000            mov REG[0xd0],>_Fla2
 076E 3C0000            cmp [_Fla2],0
 0771 B00F              jnz L264
 0773                   .dbline 505
 0773 10                push X
 0774 5016              mov A,>L136
 0776 08                push A
 0777 5016              mov A,<L136
 0779 5C                mov X,A
 077A 18                pop A
 077B 7C0000            xcall _LCD_PrCString
 077E 20                pop X
 077F 800D              xjmp L265
 0781           L264:
 0781                   .dbline 506
 0781           ; }
 0781 10                push X
 0782 5013              mov A,>L137
 0784 08                push A
 0785 5013              mov A,<L137
 0787 5C                mov X,A
 0788 18                pop A
 0789 7C0000            xcall _LCD_PrCString
 078C 20                pop X
 078D           L265:
 078D                   .dbline 507
 078D           ; }
 078D 9871              xcall _bucle_temp
 078F                   .dbline 508
 078F           ; }
 078F 9915              xcall _Pulsador
 0791 5400              mov [X+0],A
 0793                   .dbline 509
 0793           ; }
 0793 62D000            mov REG[0xd0],>_Buzzer
 0796 3C0001            cmp [_Buzzer],1
 0799 B003              jnz L266
 079B                   .dbline 509
 079B 9897              xcall _Pitido
 079D           L266:
 079D                   .dbline 510
 079D           ; }
 079D 3D0001            cmp [X+0],1
 07A0 A006              jz L270
 07A2 3D0002            cmp [X+0],2
 07A5 B00A              jnz L268
 07A7           L270:
 07A7                   .dbline 511
 07A7           ; }
 07A7                   .dbline 512
 07A7           ; }
 07A7 5D00              mov A,REG[ 0]
 07A9 62D000            mov REG[0xd0],>__r0
 07AC 6000              mov REG[ 0],A
 07AE                   .dbline 513
 07AE           ; }
 07AE 8019              xjmp L269
 07B0           L268:
 07B0                   .dbline 514
 07B0           ; }
 07B0 3D0003            cmp [X+0],3
 07B3 B014              jnz L271
 07B5                   .dbline 515
 07B5           ; }
 07B5                   .dbline 516
 07B5           ; }
 07B5 62D000            mov REG[0xd0],>_Fla2
 07B8 3C0000            cmp [_Fla2],0
 07BB B006              jnz L273
 07BD                   .dbline 516
 07BD 550001            mov [_Fla2],1
 07C0 8007              xjmp L274
 07C2           L273:
 07C2                   .dbline 517
 07C2           ; }
 07C2 62D000            mov REG[0xd0],>_Fla2
 07C5 550000            mov [_Fla2],0
 07C8           L274:
 07C8                   .dbline 518
 07C8           ; }
 07C8           L271:
 07C8           L269:
 07C8                   .dbline 519
 07C8           L261:
 07C8                   .dbline 519
 07C8           ; }
 07C8 3D0004            cmp [X+0],4
 07CB BF87              jnz L260
 07CD                   .dbline -2
 07CD                   .dbline 520
 07CD           ; }
 07CD           L259:
 07CD 38FD              add SP,-3
 07CF 20                pop X
 07D0                   .dbline 0 ; func end
 07D0 7F                ret
 07D1                   .dbsym l x 1 i
 07D1                   .dbsym l pulsat 0 c
 07D1                   .dbend
 07D1                   .dbfunc e Flash3 _Flash3 fV
 07D1           ;              x -> X+1
 07D1           ;         pulsat -> X+0
 07D1           _Flash3::
 07D1                   .dbline -1
 07D1 10                push X
 07D2 4F                mov X,SP
 07D3 3803              add SP,3
 07D5                   .dbline 529
 07D5           ; }
 07D5           ; }
 07D5           ; }
 07D5           ; }
 07D5           ; }
 07D5           ; }
 07D5           ; }
 07D5           ; }
 07D5           ; }
 07D5           L276:
 07D5                   .dbline 534
 07D5           ; }
 07D5           ; }
 07D5           ; }
 07D5           ; }
 07D5           ; }
 07D5                   .dbline 535
 07D5           ; }
 07D5 10                push X
 07D6 5001              mov A,1
 07D8 7C0000            xcall _LCD_Control
 07DB                   .dbline 536
 07DB           ; }
 07DB 5081              mov A,>L279
 07DD 08                push A
 07DE 5081              mov A,<L279
 07E0 5C                mov X,A
 07E1 18                pop A
 07E2 7C0000            xcall _LCD_PrCString
 07E5                   .dbline 537
 07E5           ; }
 07E5 5700              mov X,0
 07E7 5001              mov A,1
 07E9 7C0000            xcall _LCD_Position
 07EC 20                pop X
 07ED                   .dbline 538
 07ED           ; }
 07ED 62D000            mov REG[0xd0],>_Fla3
 07F0 3C0000            cmp [_Fla3],0
 07F3 B00F              jnz L280
 07F5                   .dbline 538
 07F5 10                push X
 07F6 5016              mov A,>L136
 07F8 08                push A
 07F9 5016              mov A,<L136
 07FB 5C                mov X,A
 07FC 18                pop A
 07FD 7C0000            xcall _LCD_PrCString
 0800 20                pop X
 0801 800D              xjmp L281
 0803           L280:
 0803                   .dbline 539
 0803           ; }
 0803 10                push X
 0804 5013              mov A,>L137
 0806 08                push A
 0807 5013              mov A,<L137
 0809 5C                mov X,A
 080A 18                pop A
 080B 7C0000            xcall _LCD_PrCString
 080E 20                pop X
 080F           L281:
 080F                   .dbline 540
 080F           ; }
 080F 7C0000            xcall _bucle_temp
 0812                   .dbline 541
 0812           ; }
 0812 9892              xcall _Pulsador
 0814 5400              mov [X+0],A
 0816                   .dbline 542
 0816           ; }
 0816 62D000            mov REG[0xd0],>_Buzzer
 0819 3C0001            cmp [_Buzzer],1
 081C B003              jnz L282
 081E                   .dbline 542
 081E 9814              xcall _Pitido
 0820           L282:
 0820                   .dbline 543
 0820           ; }
 0820 3D0001            cmp [X+0],1
 0823 A006              jz L286
 0825 3D0002            cmp [X+0],2
 0828 B00A              jnz L284
 082A           L286:
 082A                   .dbline 544
 082A           ; }
 082A                   .dbline 545
 082A           ; }
 082A 5D00              mov A,REG[ 0]
 082C 62D000            mov REG[0xd0],>__r0
 082F 6000              mov REG[ 0],A
 0831                   .dbline 546
 0831           ; }
 0831 8019              xjmp L285
 0833           L284:
 0833                   .dbline 547
 0833           ; }
 0833 3D0003            cmp [X+0],3
 0836 B014              jnz L287
 0838                   .dbline 548
 0838           ; }
 0838                   .dbline 549
 0838           ; }
 0838 62D000            mov REG[0xd0],>_Fla3
 083B 3C0000            cmp [_Fla3],0
 083E B006              jnz L289
 0840                   .dbline 549
 0840 550001            mov [_Fla3],1
 0843 8007              xjmp L290
 0845           L289:
 0845                   .dbline 550
 0845           ; }
 0845 62D000            mov REG[0xd0],>_Fla3
 0848 550000            mov [_Fla3],0
 084B           L290:
 084B                   .dbline 551
 084B           ; }
 084B           L287:
 084B           L285:
 084B                   .dbline 552
 084B           L277:
 084B                   .dbline 552
 084B           ; }
 084B 3D0004            cmp [X+0],4
 084E BF86              jnz L276
 0850                   .dbline -2
 0850                   .dbline 553
 0850           ; }
 0850           L275:
 0850 38FD              add SP,-3
 0852 20                pop X
 0853                   .dbline 0 ; func end
 0853 7F                ret
 0854                   .dbsym l x 1 i
 0854                   .dbsym l pulsat 0 c
 0854                   .dbend
 0854                   .dbfunc e Flash4 _Flash4 fV
 0854           ;              x -> X+1
 0854           ;         pulsat -> X+0
 0854           _Flash4::
 0854                   .dbline -1
 0854 10                push X
 0855 4F                mov X,SP
 0856 3803              add SP,3
 0858                   .dbline 562
 0858           ; }
 0858           ; }
 0858           ; }
 0858           ; }
 0858           ; }
 0858           ; }
 0858           ; }
 0858           ; }
 0858           ; }
 0858           L292:
 0858                   .dbline 567
 0858           ; }
 0858           ; }
 0858           ; }
 0858           ; }
 0858           ; }
 0858                   .dbline 568
 0858           ; }
 0858 10                push X
 0859 5001              mov A,1
 085B 7C0000            xcall _LCD_Control
 085E                   .dbline 569
 085E           ; }
 085E 5078              mov A,>L295
 0860 08                push A
 0861 5078              mov A,<L295
 0863 5C                mov X,A
 0864 18                pop A
 0865 7C0000            xcall _LCD_PrCString
 0868                   .dbline 570
 0868           ; }
 0868 5700              mov X,0
 086A 5001              mov A,1
 086C 7C0000            xcall _LCD_Position
 086F 20                pop X
 0870                   .dbline 571
 0870           ; }
 0870 62D000            mov REG[0xd0],>_Fla4
 0873 3C0000            cmp [_Fla4],0
 0876 B00F              jnz L296
 0878                   .dbline 571
 0878 10                push X
 0879 5016              mov A,>L136
 087B 08                push A
 087C 5016              mov A,<L136
 087E 5C                mov X,A
 087F 18                pop A
 0880 7C0000            xcall _LCD_PrCString
 0883 20                pop X
 0884 800D              xjmp L297
 0886           L296:
 0886                   .dbline 572
 0886           ; }
 0886 10                push X
 0887 5013              mov A,>L137
 0889 08                push A
 088A 5013              mov A,<L137
 088C 5C                mov X,A
 088D 18                pop A
 088E 7C0000            xcall _LCD_PrCString
 0891 20                pop X
 0892           L297:
 0892                   .dbline 573
 0892           ; }
 0892 7C0000            xcall _bucle_temp
 0895                   .dbline 574
 0895           ; }
 0895 980F              xcall _Pulsador
 0897 5400              mov [X+0],A
 0899                   .dbline 575
 0899           ; }
 0899 62D000            mov REG[0xd0],>_Buzzer
 089C 3C0001            cmp [_Buzzer],1
 089F B004              jnz L298
 08A1                   .dbline 575
 08A1 7C0034            xcall _Pitido
 08A4           L298:
 08A4                   .dbline 576
 08A4           ; }
 08A4 3D0001            cmp [X+0],1
 08A7 A006              jz L302
 08A9 3D0002            cmp [X+0],2
 08AC B00A              jnz L300
 08AE           L302:
 08AE                   .dbline 577
 08AE           ; }
 08AE                   .dbline 578
 08AE           ; }
 08AE 5D00              mov A,REG[ 0]
 08B0 62D000            mov REG[0xd0],>__r0
 08B3 6000              mov REG[ 0],A
 08B5                   .dbline 579
 08B5           ; }
 08B5 8019              xjmp L301
 08B7           L300:
 08B7                   .dbline 580
 08B7           ; }
 08B7 3D0003            cmp [X+0],3
 08BA B014              jnz L303
 08BC                   .dbline 581
 08BC           ; }
 08BC                   .dbline 582
 08BC           ; }
 08BC 62D000            mov REG[0xd0],>_Fla4
 08BF 3C0000            cmp [_Fla4],0
 08C2 B006              jnz L305
 08C4                   .dbline 582
 08C4 550001            mov [_Fla4],1
 08C7 8007              xjmp L306
 08C9           L305:
 08C9                   .dbline 583
 08C9           ; }
 08C9 62D000            mov REG[0xd0],>_Fla4
 08CC 550000            mov [_Fla4],0
 08CF           L306:
 08CF                   .dbline 584
 08CF           ; }
 08CF           L303:
 08CF           L301:
 08CF                   .dbline 585
 08CF           L293:
 08CF                   .dbline 585
 08CF           ; }
 08CF 3D0004            cmp [X+0],4
 08D2 BF85              jnz L292
 08D4                   .dbline -2
 08D4                   .dbline 586
 08D4           ; }
 08D4           L291:
 08D4 38FD              add SP,-3
 08D6 20                pop X
 08D7                   .dbline 0 ; func end
 08D7 7F                ret
 08D8                   .dbsym l x 1 i
 08D8                   .dbsym l pulsat 0 c
 08D8                   .dbend
 08D8                   .dbfunc e Dispar _Dispar fV
 08D8           ;              x -> X+2
 08D8           ;           menu -> X+1
 08D8           ;         pulsat -> X+0
 08D8           _Dispar::
 08D8                   .dbline -1
 08D8 10                push X
 08D9 4F                mov X,SP
 08DA 3804              add SP,4
 08DC                   .dbline 596
 08DC           ; }
 08DC           ; }
 08DC           ; }
 08DC           ; }
 08DC           ; }
 08DC           ; }
 08DC           ; }
 08DC           ; }
 08DC           ; }
 08DC           ; }
 08DC                   .dbline 598
 08DC           ; }
 08DC           ; }
 08DC 560101            mov [X+1],1
 08DF           L308:
 08DF                   .dbline 602
 08DF           ; }
 08DF           ; }
 08DF           ; }
 08DF           ; }
 08DF                   .dbline 603
 08DF           ; }
 08DF 10                push X
 08E0 5001              mov A,1
 08E2 7C0000            xcall _LCD_Control
 08E5                   .dbline 604
 08E5           ; }
 08E5 5069              mov A,>L311
 08E7 08                push A
 08E8 5069              mov A,<L311
 08EA 5C                mov X,A
 08EB 18                pop A
 08EC 7C0000            xcall _LCD_PrCString
 08EF                   .dbline 605
 08EF           ; }
 08EF 5700              mov X,0
 08F1 5001              mov A,1
 08F3 7C0000            xcall _LCD_Position
 08F6 20                pop X
 08F7                   .dbline 606
 08F7           ; }
 08F7 3D0101            cmp [X+1],1
 08FA B00F              jnz L312
 08FC                   .dbline 606
 08FC 10                push X
 08FD 505E              mov A,>L314
 08FF 08                push A
 0900 505E              mov A,<L314
 0902 5C                mov X,A
 0903 18                pop A
 0904 7C0000            xcall _LCD_PrCString
 0907 20                pop X
 0908 8012              xjmp L313
 090A           L312:
 090A                   .dbline 607
 090A           ; }
 090A 3D0102            cmp [X+1],2
 090D B00D              jnz L315
 090F                   .dbline 607
 090F 10                push X
 0910 5053              mov A,>L317
 0912 08                push A
 0913 5053              mov A,<L317
 0915 5C                mov X,A
 0916 18                pop A
 0917 7C0000            xcall _LCD_PrCString
 091A 20                pop X
 091B           L315:
 091B           L313:
 091B                   .dbline 608
 091B           ; }
 091B 7C0000            xcall _bucle_temp
 091E                   .dbline 609
 091E           ; }
 091E 7C00A6            xcall _Pulsador
 0921 5400              mov [X+0],A
 0923                   .dbline 610
 0923           ; }
 0923 62D000            mov REG[0xd0],>_Buzzer
 0926 3C0001            cmp [_Buzzer],1
 0929 B004              jnz L318
 092B                   .dbline 610
 092B 7C0034            xcall _Pitido
 092E           L318:
 092E                   .dbline 611
 092E           ; }
 092E 3D0001            cmp [X+0],1
 0931 B019              jnz L320
 0933                   .dbline 612
 0933           ; }
 0933                   .dbline 613
 0933           ; }
 0933 62D000            mov REG[0xd0],>__r0
 0936 5201              mov A,[X+1]
 0938 0101              add A,1
 093A 5300              mov [__r0],A
 093C 5002              mov A,2
 093E 3A00              cmp A,[__r0]
 0940 D006              jnc L322
 0942           X12:
 0942                   .dbline 613
 0942 560101            mov [X+1],1
 0945 8033              xjmp L321
 0947           L322:
 0947                   .dbline 614
 0947           ; }
 0947 7701              inc [X+1]
 0949                   .dbline 615
 0949           ; }
 0949 802F              xjmp L321
 094B           L320:
 094B                   .dbline 616
 094B           ; }
 094B 3D0003            cmp [X+0],3
 094E B013              jnz L324
 0950                   .dbline 617
 0950           ; }
 0950                   .dbline 618
 0950           ; }
 0950 3D0101            cmp [X+1],1
 0953 B005              jnz L326
 0955                   .dbline 618
 0955 902B              xcall _Camara1
 0957 8021              xjmp L325
 0959           L326:
 0959                   .dbline 619
 0959           ; }
 0959 3D0102            cmp [X+1],2
 095C B01C              jnz L325
 095E                   .dbline 619
 095E 90CF              xcall _Camara2
 0960                   .dbline 620
 0960           ; }
 0960 8018              xjmp L325
 0962           L324:
 0962                   .dbline 621
 0962           ; }
 0962 3D0002            cmp [X+0],2
 0965 B013              jnz L330
 0967                   .dbline 622
 0967           ; }
 0967                   .dbline 623
 0967           ; }
 0967 62D000            mov REG[0xd0],>__r0
 096A 5201              mov A,[X+1]
 096C 1101              sub A,1
 096E 3901              cmp A,1
 0970 D006              jnc L332
 0972           X13:
 0972                   .dbline 623
 0972 560102            mov [X+1],2
 0975 8003              xjmp L333
 0977           L332:
 0977                   .dbline 624
 0977           ; }
 0977 7B01              dec [X+1]
 0979           L333:
 0979                   .dbline 625
 0979           ; }
 0979           L330:
 0979           L325:
 0979           L321:
 0979                   .dbline 626
 0979           L309:
 0979                   .dbline 626
 0979           ; }
 0979 3D0004            cmp [X+0],4
 097C BF62              jnz L308
 097E                   .dbline -2
 097E                   .dbline 627
 097E           ; }
 097E           L307:
 097E 38FC              add SP,-4
 0980 20                pop X
 0981                   .dbline 0 ; func end
 0981 7F                ret
 0982                   .dbsym l x 2 i
 0982                   .dbsym l menu 1 c
 0982                   .dbsym l pulsat 0 c
 0982                   .dbend
 0982                   .dbfunc e Camara1 _Camara1 fV
 0982           ;              x -> X+1
 0982           ;         pulsat -> X+0
 0982           _Camara1::
 0982                   .dbline -1
 0982 10                push X
 0983 4F                mov X,SP
 0984 3803              add SP,3
 0986                   .dbline 636
 0986           ; }
 0986           ; }
 0986           ; }
 0986           ; }
 0986           ; }
 0986           ; }
 0986           ; }
 0986           ; }
 0986           ; }
 0986           L335:
 0986                   .dbline 641
 0986           ; }
 0986           ; }
 0986           ; }
 0986           ; }
 0986           ; }
 0986                   .dbline 642
 0986           ; }
 0986 10                push X
 0987 5001              mov A,1
 0989 7C0000            xcall _LCD_Control
 098C                   .dbline 643
 098C           ; }
 098C 5049              mov A,>L338
 098E 08                push A
 098F 5049              mov A,<L338
 0991 5C                mov X,A
 0992 18                pop A
 0993 7C0000            xcall _LCD_PrCString
 0996                   .dbline 644
 0996           ; }
 0996 5700              mov X,0
 0998 5001              mov A,1
 099A 7C0000            xcall _LCD_Position
 099D 20                pop X
 099E                   .dbline 645
 099E           ; }
 099E 62D000            mov REG[0xd0],>_Cam1
 09A1 3C0000            cmp [_Cam1],0
 09A4 B00F              jnz L339
 09A6                   .dbline 645
 09A6 10                push X
 09A7 503E              mov A,>L341
 09A9 08                push A
 09AA 503E              mov A,<L341
 09AC 5C                mov X,A
 09AD 18                pop A
 09AE 7C0000            xcall _LCD_PrCString
 09B1 20                pop X
 09B2 8041              xjmp L340
 09B4           L339:
 09B4                   .dbline 646
 09B4           ; }
 09B4 62D000            mov REG[0xd0],>_Cam1
 09B7 3C0001            cmp [_Cam1],1
 09BA B00F              jnz L342
 09BC                   .dbline 646
 09BC 10                push X
 09BD 5032              mov A,>L344
 09BF 08                push A
 09C0 5032              mov A,<L344
 09C2 5C                mov X,A
 09C3 18                pop A
 09C4 7C0000            xcall _LCD_PrCString
 09C7 20                pop X
 09C8 802B              xjmp L343
 09CA           L342:
 09CA                   .dbline 647
 09CA           ; }
 09CA 62D000            mov REG[0xd0],>_Cam1
 09CD 3C0002            cmp [_Cam1],2
 09D0 B00F              jnz L345
 09D2                   .dbline 647
 09D2 10                push X
 09D3 5023              mov A,>L347
 09D5 08                push A
 09D6 5023              mov A,<L347
 09D8 5C                mov X,A
 09D9 18                pop A
 09DA 7C0000            xcall _LCD_PrCString
 09DD 20                pop X
 09DE 8015              xjmp L346
 09E0           L345:
 09E0                   .dbline 648
 09E0           ; }
 09E0 62D000            mov REG[0xd0],>_Cam1
 09E3 3C0003            cmp [_Cam1],3
 09E6 B00D              jnz L348
 09E8                   .dbline 648
 09E8 10                push X
 09E9 5018              mov A,>L350
 09EB 08                push A
 09EC 5018              mov A,<L350
 09EE 5C                mov X,A
 09EF 18                pop A
 09F0 7C0000            xcall _LCD_PrCString
 09F3 20                pop X
 09F4           L348:
 09F4           L346:
 09F4           L343:
 09F4           L340:
 09F4                   .dbline 649
 09F4           ; }
 09F4 7C0000            xcall _bucle_temp
 09F7                   .dbline 650
 09F7           ; }
 09F7 7C00A6            xcall _Pulsador
 09FA 5400              mov [X+0],A
 09FC                   .dbline 651
 09FC           ; }
 09FC 62D000            mov REG[0xd0],>_Buzzer
 09FF 3C0001            cmp [_Buzzer],1
 0A02 B004              jnz L351
 0A04                   .dbline 651
 0A04 7C0034            xcall _Pitido
 0A07           L351:
 0A07                   .dbline 652
 0A07           ; }
 0A07 3D0001            cmp [X+0],1
 0A0A A006              jz L355
 0A0C 3D0002            cmp [X+0],2
 0A0F B00A              jnz L353
 0A11           L355:
 0A11                   .dbline 653
 0A11           ; }
 0A11                   .dbline 654
 0A11           ; }
 0A11 5D00              mov A,REG[ 0]
 0A13 62D000            mov REG[0xd0],>__r0
 0A16 6000              mov REG[ 0],A
 0A18                   .dbline 655
 0A18           ; }
 0A18 800D              xjmp L354
 0A1A           L353:
 0A1A                   .dbline 656
 0A1A           ; }
 0A1A 3D0003            cmp [X+0],3
 0A1D B008              jnz L356
 0A1F                   .dbline 657
 0A1F           ; }
 0A1F                   .dbline 658
 0A1F           ; }
 0A1F 5001              mov A,1
 0A21 08                push A
 0A22 90B8              xcall _Tipo_disp
 0A24 38FF              add SP,-1
 0A26                   .dbline 659
 0A26           ; }
 0A26           L356:
 0A26           L354:
 0A26                   .dbline 660
 0A26           L336:
 0A26                   .dbline 660
 0A26           ; }
 0A26 3D0004            cmp [X+0],4
 0A29 BF5C              jnz L335
 0A2B                   .dbline -2
 0A2B                   .dbline 661
 0A2B           ; }
 0A2B           L334:
 0A2B 38FD              add SP,-3
 0A2D 20                pop X
 0A2E                   .dbline 0 ; func end
 0A2E 7F                ret
 0A2F                   .dbsym l x 1 i
 0A2F                   .dbsym l pulsat 0 c
 0A2F                   .dbend
 0A2F                   .dbfunc e Camara2 _Camara2 fV
 0A2F           ;              x -> X+1
 0A2F           ;         pulsat -> X+0
 0A2F           _Camara2::
 0A2F                   .dbline -1
 0A2F 10                push X
 0A30 4F                mov X,SP
 0A31 3803              add SP,3
 0A33                   .dbline 670
 0A33           ; }
 0A33           ; }
 0A33           ; }
 0A33           ; }
 0A33           ; }
 0A33           ; }
 0A33           ; }
 0A33           ; }
 0A33           ; }
 0A33           L359:
 0A33                   .dbline 675
 0A33           ; }
 0A33           ; }
 0A33           ; }
 0A33           ; }
 0A33           ; }
 0A33                   .dbline 676
 0A33           ; }
 0A33 10                push X
 0A34 5001              mov A,1
 0A36 7C0000            xcall _LCD_Control
 0A39                   .dbline 677
 0A39           ; }
 0A39 500E              mov A,>L362
 0A3B 08                push A
 0A3C 500E              mov A,<L362
 0A3E 5C                mov X,A
 0A3F 18                pop A
 0A40 7C0000            xcall _LCD_PrCString
 0A43                   .dbline 678
 0A43           ; }
 0A43 5700              mov X,0
 0A45 5001              mov A,1
 0A47 7C0000            xcall _LCD_Position
 0A4A 20                pop X
 0A4B                   .dbline 679
 0A4B           ; }
 0A4B 62D000            mov REG[0xd0],>_Cam2
 0A4E 3C0000            cmp [_Cam2],0
 0A51 B00F              jnz L363
 0A53                   .dbline 679
 0A53 10                push X
 0A54 503E              mov A,>L341
 0A56 08                push A
 0A57 503E              mov A,<L341
 0A59 5C                mov X,A
 0A5A 18                pop A
 0A5B 7C0000            xcall _LCD_PrCString
 0A5E 20                pop X
 0A5F 8041              xjmp L364
 0A61           L363:
 0A61                   .dbline 680
 0A61           ; }
 0A61 62D000            mov REG[0xd0],>_Cam2
 0A64 3C0001            cmp [_Cam2],1
 0A67 B00F              jnz L365
 0A69                   .dbline 680
 0A69 10                push X
 0A6A 5032              mov A,>L344
 0A6C 08                push A
 0A6D 5032              mov A,<L344
 0A6F 5C                mov X,A
 0A70 18                pop A
 0A71 7C0000            xcall _LCD_PrCString
 0A74 20                pop X
 0A75 802B              xjmp L366
 0A77           L365:
 0A77                   .dbline 681
 0A77           ; }
 0A77 62D000            mov REG[0xd0],>_Cam2
 0A7A 3C0002            cmp [_Cam2],2
 0A7D B00F              jnz L367
 0A7F                   .dbline 681
 0A7F 10                push X
 0A80 5023              mov A,>L347
 0A82 08                push A
 0A83 5023              mov A,<L347
 0A85 5C                mov X,A
 0A86 18                pop A
 0A87 7C0000            xcall _LCD_PrCString
 0A8A 20                pop X
 0A8B 8015              xjmp L368
 0A8D           L367:
 0A8D                   .dbline 682
 0A8D           ; }
 0A8D 62D000            mov REG[0xd0],>_Cam2
 0A90 3C0003            cmp [_Cam2],3
 0A93 B00D              jnz L369
 0A95                   .dbline 682
 0A95 10                push X
 0A96 5018              mov A,>L350
 0A98 08                push A
 0A99 5018              mov A,<L350
 0A9B 5C                mov X,A
 0A9C 18                pop A
 0A9D 7C0000            xcall _LCD_PrCString
 0AA0 20                pop X
 0AA1           L369:
 0AA1           L368:
 0AA1           L366:
 0AA1           L364:
 0AA1                   .dbline 683
 0AA1           ; }
 0AA1 7C0000            xcall _bucle_temp
 0AA4                   .dbline 684
 0AA4           ; }
 0AA4 7C00A6            xcall _Pulsador
 0AA7 5400              mov [X+0],A
 0AA9                   .dbline 685
 0AA9           ; }
 0AA9 62D000            mov REG[0xd0],>_Buzzer
 0AAC 3C0001            cmp [_Buzzer],1
 0AAF B004              jnz L371
 0AB1                   .dbline 685
 0AB1 7C0034            xcall _Pitido
 0AB4           L371:
 0AB4                   .dbline 686
 0AB4           ; }
 0AB4 3D0001            cmp [X+0],1
 0AB7 A006              jz L375
 0AB9 3D0002            cmp [X+0],2
 0ABC B00A              jnz L373
 0ABE           L375:
 0ABE                   .dbline 687
 0ABE           ; }
 0ABE                   .dbline 688
 0ABE           ; }
 0ABE 5D00              mov A,REG[ 0]
 0AC0 62D000            mov REG[0xd0],>__r0
 0AC3 6000              mov REG[ 0],A
 0AC5                   .dbline 689
 0AC5           ; }
 0AC5 800D              xjmp L374
 0AC7           L373:
 0AC7                   .dbline 690
 0AC7           ; }
 0AC7 3D0003            cmp [X+0],3
 0ACA B008              jnz L376
 0ACC                   .dbline 691
 0ACC           ; }
 0ACC                   .dbline 692
 0ACC           ; }
 0ACC 5002              mov A,2
 0ACE 08                push A
 0ACF 900B              xcall _Tipo_disp
 0AD1 38FF              add SP,-1
 0AD3                   .dbline 693
 0AD3           ; }
 0AD3           L376:
 0AD3           L374:
 0AD3                   .dbline 694
 0AD3           L360:
 0AD3                   .dbline 694
 0AD3           ; }
 0AD3 3D0004            cmp [X+0],4
 0AD6 BF5C              jnz L359
 0AD8                   .dbline -2
 0AD8                   .dbline 695
 0AD8           ; }
 0AD8           L358:
 0AD8 38FD              add SP,-3
 0ADA 20                pop X
 0ADB                   .dbline 0 ; func end
 0ADB 7F                ret
 0ADC                   .dbsym l x 1 i
 0ADC                   .dbsym l pulsat 0 c
 0ADC                   .dbend
 0ADC                   .dbfunc e Tipo_disp _Tipo_disp fV
 0ADC           ;              x -> X+2
 0ADC           ;           menu -> X+1
 0ADC           ;         pulsat -> X+0
 0ADC           ;         camara -> X-4
 0ADC           _Tipo_disp::
 0ADC                   .dbline -1
 0ADC 10                push X
 0ADD 4F                mov X,SP
 0ADE 3804              add SP,4
 0AE0                   .dbline 705
 0AE0           ; }
 0AE0           ; }
 0AE0           ; }
 0AE0           ; }
 0AE0           ; }
 0AE0           ; }
 0AE0           ; }
 0AE0           ; }
 0AE0           ; }
 0AE0           ; }
 0AE0                   .dbline 709
 0AE0           ; }
 0AE0           ; }
 0AE0           ; }
 0AE0           ; }
 0AE0 3DFC01            cmp [X-4],1
 0AE3 B00C              jnz L379
 0AE5                   .dbline 709
 0AE5 62D000            mov REG[0xd0],>_Cam1
 0AE8 5100              mov A,[_Cam1]
 0AEA 0101              add A,1
 0AEC 5401              mov [X+1],A
 0AEE 800F              xjmp L380
 0AF0           L379:
 0AF0                   .dbline 710
 0AF0           ; }
 0AF0 3DFC02            cmp [X-4],2
 0AF3 B00A              jnz L381
 0AF5                   .dbline 710
 0AF5 62D000            mov REG[0xd0],>_Cam2
 0AF8 5100              mov A,[_Cam2]
 0AFA 0101              add A,1
 0AFC 5401              mov [X+1],A
 0AFE           L381:
 0AFE           L380:
 0AFE           L383:
 0AFE                   .dbline 713
 0AFE           ; }
 0AFE           ; }
 0AFE           ; }
 0AFE                   .dbline 714
 0AFE           ; }
 0AFE 10                push X
 0AFF 5001              mov A,1
 0B01 7C0000            xcall _LCD_Control
 0B04                   .dbline 715
 0B04           ; }
 0B04 50FF              mov A,>L386
 0B06 08                push A
 0B07 50FF              mov A,<L386
 0B09 5C                mov X,A
 0B0A 18                pop A
 0B0B 7C0000            xcall _LCD_PrCString
 0B0E                   .dbline 716
 0B0E           ; }
 0B0E 5700              mov X,0
 0B10 5001              mov A,1
 0B12 7C0000            xcall _LCD_Position
 0B15 20                pop X
 0B16                   .dbline 717
 0B16           ; }
 0B16 3D0101            cmp [X+1],1
 0B19 B00F              jnz L387
 0B1B                   .dbline 717
 0B1B 10                push X
 0B1C 503E              mov A,>L341
 0B1E 08                push A
 0B1F 503E              mov A,<L341
 0B21 5C                mov X,A
 0B22 18                pop A
 0B23 7C0000            xcall _LCD_PrCString
 0B26 20                pop X
 0B27 8038              xjmp L388
 0B29           L387:
 0B29                   .dbline 718
 0B29           ; }
 0B29 3D0102            cmp [X+1],2
 0B2C B00F              jnz L389
 0B2E                   .dbline 718
 0B2E 10                push X
 0B2F 5032              mov A,>L344
 0B31 08                push A
 0B32 5032              mov A,<L344
 0B34 5C                mov X,A
 0B35 18                pop A
 0B36 7C0000            xcall _LCD_PrCString
 0B39 20                pop X
 0B3A 8025              xjmp L390
 0B3C           L389:
 0B3C                   .dbline 719
 0B3C           ; }
 0B3C 3D0103            cmp [X+1],3
 0B3F B00F              jnz L391
 0B41                   .dbline 719
 0B41 10                push X
 0B42 5023              mov A,>L347
 0B44 08                push A
 0B45 5023              mov A,<L347
 0B47 5C                mov X,A
 0B48 18                pop A
 0B49 7C0000            xcall _LCD_PrCString
 0B4C 20                pop X
 0B4D 8012              xjmp L392
 0B4F           L391:
 0B4F                   .dbline 720
 0B4F           ; }
 0B4F 3D0104            cmp [X+1],4
 0B52 B00D              jnz L393
 0B54                   .dbline 720
 0B54 10                push X
 0B55 5018              mov A,>L350
 0B57 08                push A
 0B58 5018              mov A,<L350
 0B5A 5C                mov X,A
 0B5B 18                pop A
 0B5C 7C0000            xcall _LCD_PrCString
 0B5F 20                pop X
 0B60           L393:
 0B60           L392:
 0B60           L390:
 0B60           L388:
 0B60                   .dbline 721
 0B60           ; }
 0B60 7C0000            xcall _bucle_temp
 0B63                   .dbline 722
 0B63           ; }
 0B63 7C00A6            xcall _Pulsador
 0B66 5400              mov [X+0],A
 0B68                   .dbline 723
 0B68           ; }
 0B68 62D000            mov REG[0xd0],>_Buzzer
 0B6B 3C0001            cmp [_Buzzer],1
 0B6E B004              jnz L395
 0B70                   .dbline 723
 0B70 7C0034            xcall _Pitido
 0B73           L395:
 0B73                   .dbline 724
 0B73           ; }
 0B73 3D0001            cmp [X+0],1
 0B76 B019              jnz L397
 0B78                   .dbline 725
 0B78           ; }
 0B78                   .dbline 726
 0B78           ; }
 0B78 62D000            mov REG[0xd0],>__r0
 0B7B 5201              mov A,[X+1]
 0B7D 0101              add A,1
 0B7F 5300              mov [__r0],A
 0B81 5004              mov A,4
 0B83 3A00              cmp A,[__r0]
 0B85 D006              jnc L399
 0B87           X14:
 0B87                   .dbline 726
 0B87 560101            mov [X+1],1
 0B8A 805E              xjmp L398
 0B8C           L399:
 0B8C                   .dbline 727
 0B8C           ; }
 0B8C 7701              inc [X+1]
 0B8E                   .dbline 728
 0B8E           ; }
 0B8E 805A              xjmp L398
 0B90           L397:
 0B90                   .dbline 729
 0B90           ; }
 0B90 3D0003            cmp [X+0],3
 0B93 B03E              jnz L401
 0B95                   .dbline 730
 0B95           ; }
 0B95                   .dbline 731
 0B95           ; }
 0B95 3DFC01            cmp [X-4],1
 0B98 B00C              jnz L403
 0B9A                   .dbline 731
 0B9A 5201              mov A,[X+1]
 0B9C 1101              sub A,1
 0B9E 62D000            mov REG[0xd0],>_Cam1
 0BA1 5300              mov [_Cam1],A
 0BA3 800F              xjmp L404
 0BA5           L403:
 0BA5                   .dbline 732
 0BA5           ; }
 0BA5 3DFC02            cmp [X-4],2
 0BA8 B00A              jnz L405
 0BAA                   .dbline 732
 0BAA 5201              mov A,[X+1]
 0BAC 1101              sub A,1
 0BAE 62D000            mov REG[0xd0],>_Cam2
 0BB1 5300              mov [_Cam2],A
 0BB3           L405:
 0BB3           L404:
 0BB3                   .dbline 733
 0BB3           ; }
 0BB3 3D0103            cmp [X+1],3
 0BB6 B00A              jnz L407
 0BB8                   .dbline 733
 0BB8 52FC              mov A,[X-4]
 0BBA 08                push A
 0BBB 9035              xcall _Intervalometro
 0BBD 38FF              add SP,-1
 0BBF 800D              xjmp L408
 0BC1           L407:
 0BC1                   .dbline 734
 0BC1           ; }
 0BC1 3D0104            cmp [X+1],4
 0BC4 B008              jnz L409
 0BC6                   .dbline 734
 0BC6 52FC              mov A,[X-4]
 0BC8 08                push A
 0BC9 90DF              xcall _TimeLapse
 0BCB 38FF              add SP,-1
 0BCD           L409:
 0BCD           L408:
 0BCD                   .dbline 735
 0BCD           ; }
 0BCD 560004            mov [X+0],4
 0BD0                   .dbline 736
 0BD0           ; }
 0BD0 8018              xjmp L402
 0BD2           L401:
 0BD2                   .dbline 737
 0BD2           ; }
 0BD2 3D0002            cmp [X+0],2
 0BD5 B013              jnz L411
 0BD7                   .dbline 738
 0BD7           ; }
 0BD7                   .dbline 739
 0BD7           ; }
 0BD7 62D000            mov REG[0xd0],>__r0
 0BDA 5201              mov A,[X+1]
 0BDC 1101              sub A,1
 0BDE 3901              cmp A,1
 0BE0 D006              jnc L413
 0BE2           X15:
 0BE2                   .dbline 739
 0BE2 560104            mov [X+1],4
 0BE5 8003              xjmp L414
 0BE7           L413:
 0BE7                   .dbline 740
 0BE7           ; }
 0BE7 7B01              dec [X+1]
 0BE9           L414:
 0BE9                   .dbline 741
 0BE9           ; }
 0BE9           L411:
 0BE9           L402:
 0BE9           L398:
 0BE9                   .dbline 742
 0BE9           L384:
 0BE9                   .dbline 742
 0BE9           ; }
 0BE9 3D0004            cmp [X+0],4
 0BEC BF11              jnz L383
 0BEE                   .dbline -2
 0BEE                   .dbline 743
 0BEE           ; }
 0BEE           L378:
 0BEE 38FC              add SP,-4
 0BF0 20                pop X
 0BF1                   .dbline 0 ; func end
 0BF1 7F                ret
 0BF2                   .dbsym l x 2 i
 0BF2                   .dbsym l menu 1 c
 0BF2                   .dbsym l pulsat 0 c
 0BF2                   .dbsym l camara -4 c
 0BF2                   .dbend
 0BF2                   .dbfunc e Intervalometro _Intervalometro fV
 0BF2           ;              x -> X+2
 0BF2           ;           menu -> X+1
 0BF2           ;         pulsat -> X+0
 0BF2           ;         camara -> X-4
 0BF2           _Intervalometro::
 0BF2                   .dbline -1
 0BF2 10                push X
 0BF3 4F                mov X,SP
 0BF4 3804              add SP,4
 0BF6                   .dbline 751
 0BF6           ; }
 0BF6           ; }
 0BF6           ; }
 0BF6           ; }
 0BF6           ; }
 0BF6           ; }
 0BF6           ; }
 0BF6           ; }
 0BF6           L416:
 0BF6                   .dbline 756
 0BF6           ; }
 0BF6           ; }
 0BF6           ; }
 0BF6           ; }
 0BF6           ; }
 0BF6                   .dbline 757
 0BF6           ; }
 0BF6 10                push X
 0BF7 5001              mov A,1
 0BF9 7C0000            xcall _LCD_Control
 0BFC                   .dbline 758
 0BFC           ; }
 0BFC 50EF              mov A,>L419
 0BFE 08                push A
 0BFF 50EF              mov A,<L419
 0C01 5C                mov X,A
 0C02 18                pop A
 0C03 7C0000            xcall _LCD_PrCString
 0C06                   .dbline 759
 0C06           ; }
 0C06 5700              mov X,0
 0C08 5001              mov A,1
 0C0A 7C0000            xcall _LCD_Position
 0C0D 20                pop X
 0C0E                   .dbline 760
 0C0E           ; }
 0C0E 3D0101            cmp [X+1],1
 0C11 B00F              jnz L420
 0C13                   .dbline 760
 0C13 10                push X
 0C14 50E2              mov A,>L422
 0C16 08                push A
 0C17 50E2              mov A,<L422
 0C19 5C                mov X,A
 0C1A 18                pop A
 0C1B 7C0000            xcall _LCD_PrCString
 0C1E 20                pop X
 0C1F 8012              xjmp L421
 0C21           L420:
 0C21                   .dbline 761
 0C21           ; }
 0C21 3D0102            cmp [X+1],2
 0C24 B00D              jnz L423
 0C26                   .dbline 761
 0C26 10                push X
 0C27 50D2              mov A,>L425
 0C29 08                push A
 0C2A 50D2              mov A,<L425
 0C2C 5C                mov X,A
 0C2D 18                pop A
 0C2E 7C0000            xcall _LCD_PrCString
 0C31 20                pop X
 0C32           L423:
 0C32           L421:
 0C32                   .dbline 762
 0C32           ; }
 0C32 7C0000            xcall _bucle_temp
 0C35                   .dbline 763
 0C35           ; }
 0C35 7C00A6            xcall _Pulsador
 0C38 5400              mov [X+0],A
 0C3A                   .dbline 764
 0C3A           ; }
 0C3A 62D000            mov REG[0xd0],>_Buzzer
 0C3D 3C0001            cmp [_Buzzer],1
 0C40 B004              jnz L426
 0C42                   .dbline 764
 0C42 7C0034            xcall _Pitido
 0C45           L426:
 0C45                   .dbline 765
 0C45           ; }
 0C45 3D0001            cmp [X+0],1
 0C48 B019              jnz L428
 0C4A                   .dbline 766
 0C4A           ; }
 0C4A                   .dbline 767
 0C4A           ; }
 0C4A 62D000            mov REG[0xd0],>__r0
 0C4D 5201              mov A,[X+1]
 0C4F 0101              add A,1
 0C51 5300              mov [__r0],A
 0C53 5002              mov A,2
 0C55 3A00              cmp A,[__r0]
 0C57 D006              jnc L430
 0C59           X16:
 0C59                   .dbline 767
 0C59 560101            mov [X+1],1
 0C5C 8044              xjmp L429
 0C5E           L430:
 0C5E                   .dbline 768
 0C5E           ; }
 0C5E 7701              inc [X+1]
 0C60                   .dbline 769
 0C60           ; }
 0C60 8040              xjmp L429
 0C62           L428:
 0C62                   .dbline 770
 0C62           ; }
 0C62 3D0003            cmp [X+0],3
 0C65 B024              jnz L432
 0C67                   .dbline 771
 0C67           ; }
 0C67                   .dbline 772
 0C67           ; }
 0C67 3DFC01            cmp [X-4],1
 0C6A B00C              jnz L434
 0C6C                   .dbline 772
 0C6C 5201              mov A,[X+1]
 0C6E 1101              sub A,1
 0C70 62D000            mov REG[0xd0],>_Cam1
 0C73 5300              mov [_Cam1],A
 0C75 800F              xjmp L435
 0C77           L434:
 0C77                   .dbline 773
 0C77           ; }
 0C77 3DFC02            cmp [X-4],2
 0C7A B00A              jnz L436
 0C7C                   .dbline 773
 0C7C 5201              mov A,[X+1]
 0C7E 1101              sub A,1
 0C80 62D000            mov REG[0xd0],>_Cam2
 0C83 5300              mov [_Cam2],A
 0C85           L436:
 0C85           L435:
 0C85                   .dbline 774
 0C85           ; }
 0C85 560004            mov [X+0],4
 0C88                   .dbline 775
 0C88           ; }
 0C88 8018              xjmp L433
 0C8A           L432:
 0C8A                   .dbline 776
 0C8A           ; }
 0C8A 3D0002            cmp [X+0],2
 0C8D B013              jnz L438
 0C8F                   .dbline 777
 0C8F           ; }
 0C8F                   .dbline 778
 0C8F           ; }
 0C8F 62D000            mov REG[0xd0],>__r0
 0C92 5201              mov A,[X+1]
 0C94 1101              sub A,1
 0C96 3901              cmp A,1
 0C98 D006              jnc L440
 0C9A           X17:
 0C9A                   .dbline 778
 0C9A 560102            mov [X+1],2
 0C9D 8003              xjmp L441
 0C9F           L440:
 0C9F                   .dbline 779
 0C9F           ; }
 0C9F 7B01              dec [X+1]
 0CA1           L441:
 0CA1                   .dbline 780
 0CA1           ; }
 0CA1           L438:
 0CA1           L433:
 0CA1           L429:
 0CA1                   .dbline 781
 0CA1           L417:
 0CA1                   .dbline 781
 0CA1           ; }
 0CA1 3D0004            cmp [X+0],4
 0CA4 BF51              jnz L416
 0CA6                   .dbline -2
 0CA6                   .dbline 783
 0CA6           ; }
 0CA6           ; }
 0CA6           L415:
 0CA6 38FC              add SP,-4
 0CA8 20                pop X
 0CA9                   .dbline 0 ; func end
 0CA9 7F                ret
 0CAA                   .dbsym l x 2 i
 0CAA                   .dbsym l menu 1 c
 0CAA                   .dbsym l pulsat 0 c
 0CAA                   .dbsym l camara -4 c
 0CAA                   .dbend
 0CAA                   .dbfunc e TimeLapse _TimeLapse fV
 0CAA           ;              x -> X+2
 0CAA           ;           menu -> X+1
 0CAA           ;         pulsat -> X+0
 0CAA           ;         camara -> X-4
 0CAA           _TimeLapse::
 0CAA                   .dbline -1
 0CAA 10                push X
 0CAB 4F                mov X,SP
 0CAC 3804              add SP,4
 0CAE                   .dbline 791
 0CAE           ; }
 0CAE           ; }
 0CAE           ; }
 0CAE           ; }
 0CAE           ; }
 0CAE           ; }
 0CAE           ; }
 0CAE           ; }
 0CAE           L443:
 0CAE                   .dbline 796
 0CAE           ; }
 0CAE           ; }
 0CAE           ; }
 0CAE           ; }
 0CAE           ; }
 0CAE                   .dbline 797
 0CAE           ; }
 0CAE 10                push X
 0CAF 5001              mov A,1
 0CB1 7C0000            xcall _LCD_Control
 0CB4                   .dbline 798
 0CB4           ; }
 0CB4 50EF              mov A,>L419
 0CB6 08                push A
 0CB7 50EF              mov A,<L419
 0CB9 5C                mov X,A
 0CBA 18                pop A
 0CBB 7C0000            xcall _LCD_PrCString
 0CBE                   .dbline 799
 0CBE           ; }
 0CBE 5700              mov X,0
 0CC0 5001              mov A,1
 0CC2 7C0000            xcall _LCD_Position
 0CC5 20                pop X
 0CC6                   .dbline 800
 0CC6           ; }
 0CC6 3D0101            cmp [X+1],1
 0CC9 B00F              jnz L446
 0CCB                   .dbline 800
 0CCB 10                push X
 0CCC 50E2              mov A,>L422
 0CCE 08                push A
 0CCF 50E2              mov A,<L422
 0CD1 5C                mov X,A
 0CD2 18                pop A
 0CD3 7C0000            xcall _LCD_PrCString
 0CD6 20                pop X
 0CD7 8012              xjmp L447
 0CD9           L446:
 0CD9                   .dbline 801
 0CD9           ; }
 0CD9 3D0102            cmp [X+1],2
 0CDC B00D              jnz L448
 0CDE                   .dbline 801
 0CDE 10                push X
 0CDF 50D2              mov A,>L425
 0CE1 08                push A
 0CE2 50D2              mov A,<L425
 0CE4 5C                mov X,A
 0CE5 18                pop A
 0CE6 7C0000            xcall _LCD_PrCString
 0CE9 20                pop X
 0CEA           L448:
 0CEA           L447:
 0CEA                   .dbline 802
 0CEA           ; }
 0CEA 7C0000            xcall _bucle_temp
 0CED                   .dbline 803
 0CED           ; }
 0CED 7C00A6            xcall _Pulsador
 0CF0 5400              mov [X+0],A
 0CF2                   .dbline 804
 0CF2           ; }
 0CF2 62D000            mov REG[0xd0],>_Buzzer
 0CF5 3C0001            cmp [_Buzzer],1
 0CF8 B004              jnz L450
 0CFA                   .dbline 804
 0CFA 7C0034            xcall _Pitido
 0CFD           L450:
 0CFD                   .dbline 805
 0CFD           ; }
 0CFD 3D0001            cmp [X+0],1
 0D00 B019              jnz L452
 0D02                   .dbline 806
 0D02           ; }
 0D02                   .dbline 807
 0D02           ; }
 0D02 62D000            mov REG[0xd0],>__r0
 0D05 5201              mov A,[X+1]
 0D07 0101              add A,1
 0D09 5300              mov [__r0],A
 0D0B 5002              mov A,2
 0D0D 3A00              cmp A,[__r0]
 0D0F D006              jnc L454
 0D11           X18:
 0D11                   .dbline 807
 0D11 560101            mov [X+1],1
 0D14 8044              xjmp L453
 0D16           L454:
 0D16                   .dbline 808
 0D16           ; }
 0D16 7701              inc [X+1]
 0D18                   .dbline 809
 0D18           ; }
 0D18 8040              xjmp L453
 0D1A           L452:
 0D1A                   .dbline 810
 0D1A           ; }
 0D1A 3D0003            cmp [X+0],3
 0D1D B024              jnz L456
 0D1F                   .dbline 811
 0D1F           ; }
 0D1F                   .dbline 812
 0D1F           ; }
 0D1F 3DFC01            cmp [X-4],1
 0D22 B00C              jnz L458
 0D24                   .dbline 812
 0D24 5201              mov A,[X+1]
 0D26 1101              sub A,1
 0D28 62D000            mov REG[0xd0],>_Cam1
 0D2B 5300              mov [_Cam1],A
 0D2D 800F              xjmp L459
 0D2F           L458:
 0D2F                   .dbline 813
 0D2F           ; }
 0D2F 3DFC02            cmp [X-4],2
 0D32 B00A              jnz L460
 0D34                   .dbline 813
 0D34 5201              mov A,[X+1]
 0D36 1101              sub A,1
 0D38 62D000            mov REG[0xd0],>_Cam2
 0D3B 5300              mov [_Cam2],A
 0D3D           L460:
 0D3D           L459:
 0D3D                   .dbline 814
 0D3D           ; }
 0D3D 560004            mov [X+0],4
 0D40                   .dbline 815
 0D40           ; }
 0D40 8018              xjmp L457
 0D42           L456:
 0D42                   .dbline 816
 0D42           ; }
 0D42 3D0002            cmp [X+0],2
 0D45 B013              jnz L462
 0D47                   .dbline 817
 0D47           ; }
 0D47                   .dbline 818
 0D47           ; }
 0D47 62D000            mov REG[0xd0],>__r0
 0D4A 5201              mov A,[X+1]
 0D4C 1101              sub A,1
 0D4E 3901              cmp A,1
 0D50 D006              jnc L464
 0D52           X19:
 0D52                   .dbline 818
 0D52 560102            mov [X+1],2
 0D55 8003              xjmp L465
 0D57           L464:
 0D57                   .dbline 819
 0D57           ; }
 0D57 7B01              dec [X+1]
 0D59           L465:
 0D59                   .dbline 820
 0D59           ; }
 0D59           L462:
 0D59           L457:
 0D59           L453:
 0D59                   .dbline 821
 0D59           L444:
 0D59                   .dbline 821
 0D59           ; }
 0D59 3D0004            cmp [X+0],4
 0D5C BF51              jnz L443
 0D5E                   .dbline -2
 0D5E                   .dbline 823
 0D5E           ; }
 0D5E           ; }
 0D5E           L442:
 0D5E 38FC              add SP,-4
 0D60 20                pop X
 0D61                   .dbline 0 ; func end
 0D61 7F                ret
 0D62                   .dbsym l x 2 i
 0D62                   .dbsym l menu 1 c
 0D62                   .dbsym l pulsat 0 c
 0D62                   .dbsym l camara -4 c
 0D62                   .dbend
 0D62                   .dbfunc e Numeros _Numeros fc
 0D62           ;              x -> X+2
 0D62           ;           menu -> X+1
 0D62           ;         pulsat -> X+0
 0D62           _Numeros::
 0D62                   .dbline -1
 0D62 10                push X
 0D63 4F                mov X,SP
 0D64 3804              add SP,4
 0D66                   .dbline 831
 0D66           ; }
 0D66           ; }
 0D66           ; }
 0D66           ; }
 0D66           ; }
 0D66           ; }
 0D66           ; }
 0D66           ; }
 0D66                   .dbline 832
 0D66           ; }
 0D66 560100            mov [X+1],0
 0D69           L467:
 0D69                   .dbline 836
 0D69           ; }
 0D69           ; }
 0D69           ; }
 0D69           ; }
 0D69                   .dbline 837
 0D69           ; }
 0D69 10                push X
 0D6A 5001              mov A,1
 0D6C 7C0000            xcall _LCD_Control
 0D6F                   .dbline 838
 0D6F           ; }
 0D6F 50C2              mov A,>L470
 0D71 08                push A
 0D72 50C2              mov A,<L470
 0D74 5C                mov X,A
 0D75 18                pop A
 0D76 7C0000            xcall _LCD_PrCString
 0D79                   .dbline 839
 0D79           ; }
 0D79 5700              mov X,0
 0D7B 5001              mov A,1
 0D7D 7C0000            xcall _LCD_Position
 0D80                   .dbline 840
 0D80           ; }
 0D80 5016              mov A,>L136
 0D82 08                push A
 0D83 5016              mov A,<L136
 0D85 5C                mov X,A
 0D86 18                pop A
 0D87 7C0000            xcall _LCD_PrCString
 0D8A 20                pop X
 0D8B                   .dbline 841
 0D8B           ; }
 0D8B 7C0000            xcall _bucle_temp
 0D8E                   .dbline 842
 0D8E           ; }
 0D8E 7C00A6            xcall _Pulsador
 0D91 5400              mov [X+0],A
 0D93                   .dbline 843
 0D93           ; }
 0D93 62D000            mov REG[0xd0],>_Buzzer
 0D96 3C0001            cmp [_Buzzer],1
 0D99 B004              jnz L471
 0D9B                   .dbline 843
 0D9B 7C0034            xcall _Pitido
 0D9E           L471:
 0D9E                   .dbline 844
 0D9E           ; }
 0D9E 3D0001            cmp [X+0],1
 0DA1 B019              jnz L473
 0DA3                   .dbline 845
 0DA3           ; }
 0DA3                   .dbline 846
 0DA3           ; }
 0DA3 62D000            mov REG[0xd0],>__r0
 0DA6 5201              mov A,[X+1]
 0DA8 0101              add A,1
 0DAA 5300              mov [__r0],A
 0DAC 5064              mov A,100
 0DAE 3A00              cmp A,[__r0]
 0DB0 D006              jnc L475
 0DB2           X20:
 0DB2                   .dbline 846
 0DB2 560101            mov [X+1],1
 0DB5 8028              xjmp L474
 0DB7           L475:
 0DB7                   .dbline 847
 0DB7           ; }
 0DB7 7701              inc [X+1]
 0DB9                   .dbline 848
 0DB9           ; }
 0DB9 8024              xjmp L474
 0DBB           L473:
 0DBB                   .dbline 849
 0DBB           ; }
 0DBB 3D0003            cmp [X+0],3
 0DBE B008              jnz L477
 0DC0                   .dbline 850
 0DC0           ; }
 0DC0                   .dbline 851
 0DC0           ; }
 0DC0 5201              mov A,[X+1]
 0DC2 62D000            mov REG[0xd0],>__r0
 0DC5 801D              xjmp L466
 0DC7           L477:
 0DC7                   .dbline 853
 0DC7           ; }
 0DC7           ; }
 0DC7 3D0002            cmp [X+0],2
 0DCA B013              jnz L479
 0DCC                   .dbline 854
 0DCC           ; }
 0DCC                   .dbline 855
 0DCC           ; }
 0DCC 62D000            mov REG[0xd0],>__r0
 0DCF 5201              mov A,[X+1]
 0DD1 1101              sub A,1
 0DD3 3901              cmp A,1
 0DD5 D006              jnc L481
 0DD7           X21:
 0DD7                   .dbline 855
 0DD7 560164            mov [X+1],100
 0DDA 8003              xjmp L482
 0DDC           L481:
 0DDC                   .dbline 856
 0DDC           ; }
 0DDC 7B01              dec [X+1]
 0DDE           L482:
 0DDE                   .dbline 857
 0DDE           ; }
 0DDE           L479:
 0DDE           L474:
 0DDE                   .dbline 858
 0DDE           L468:
 0DDE                   .dbline 858
 0DDE           ; }
 0DDE 3D0004            cmp [X+0],4
 0DE1 BF87              jnz L467
 0DE3                   .dbline -2
 0DE3                   .dbline 859
 0DE3           ; }
 0DE3           L466:
 0DE3 38FC              add SP,-4
 0DE5 20                pop X
 0DE6                   .dbline 0 ; func end
 0DE6 7F                ret
 0DE7                   .dbsym l x 2 i
 0DE7                   .dbsym l menu 1 c
 0DE7                   .dbsym l pulsat 0 c
 0DE7                   .dbend
 0DE7                   .dbfunc e Tiempos _Tiempos fc
 0DE7           ;              x -> X+2
 0DE7           ;           menu -> X+1
 0DE7           ;         pulsat -> X+0
 0DE7           _Tiempos::
 0DE7                   .dbline -1
 0DE7 10                push X
 0DE8 4F                mov X,SP
 0DE9 3804              add SP,4
 0DEB                   .dbline 867
 0DEB           ; }
 0DEB           ; }
 0DEB           ; }
 0DEB           ; }
 0DEB           ; }
 0DEB           ; }
 0DEB           ; }
 0DEB           ; }
 0DEB                   .dbline 868
 0DEB           ; }
 0DEB 560100            mov [X+1],0
 0DEE           L484:
 0DEE                   .dbline 872
 0DEE           ; }
 0DEE           ; }
 0DEE           ; }
 0DEE           ; }
 0DEE                   .dbline 873
 0DEE           ; }
 0DEE 10                push X
 0DEF 5001              mov A,1
 0DF1 7C0000            xcall _LCD_Control
 0DF4                   .dbline 874
 0DF4           ; }
 0DF4 50B2              mov A,>L487
 0DF6 08                push A
 0DF7 50B2              mov A,<L487
 0DF9 5C                mov X,A
 0DFA 18                pop A
 0DFB 7C0000            xcall _LCD_PrCString
 0DFE                   .dbline 875
 0DFE           ; }
 0DFE 5700              mov X,0
 0E00 5001              mov A,1
 0E02 7C0000            xcall _LCD_Position
 0E05 20                pop X
 0E06                   .dbline 876
 0E06           ; }
 0E06 3D0101            cmp [X+1],1
 0E09 B00F              jnz L488
 0E0B                   .dbline 876
 0E0B 10                push X
 0E0C 50A5              mov A,>L490
 0E0E 08                push A
 0E0F 50A5              mov A,<L490
 0E11 5C                mov X,A
 0E12 18                pop A
 0E13 7C0000            xcall _LCD_PrCString
 0E16 20                pop X
 0E17 8025              xjmp L489
 0E19           L488:
 0E19                   .dbline 877
 0E19           ; }
 0E19 3D0102            cmp [X+1],2
 0E1C B00F              jnz L491
 0E1E                   .dbline 877
 0E1E 10                push X
 0E1F 509C              mov A,>L493
 0E21 08                push A
 0E22 509C              mov A,<L493
 0E24 5C                mov X,A
 0E25 18                pop A
 0E26 7C0000            xcall _LCD_PrCString
 0E29 20                pop X
 0E2A 8012              xjmp L492
 0E2C           L491:
 0E2C                   .dbline 878
 0E2C           ; }
 0E2C 3D0103            cmp [X+1],3
 0E2F B00D              jnz L494
 0E31                   .dbline 878
 0E31 10                push X
 0E32 5094              mov A,>L496
 0E34 08                push A
 0E35 5094              mov A,<L496
 0E37 5C                mov X,A
 0E38 18                pop A
 0E39 7C0000            xcall _LCD_PrCString
 0E3C 20                pop X
 0E3D           L494:
 0E3D           L492:
 0E3D           L489:
 0E3D                   .dbline 879
 0E3D           ; }
 0E3D 7C0000            xcall _bucle_temp
 0E40                   .dbline 880
 0E40           ; }
 0E40 7C00A6            xcall _Pulsador
 0E43 5400              mov [X+0],A
 0E45                   .dbline 881
 0E45           ; }
 0E45 62D000            mov REG[0xd0],>_Buzzer
 0E48 3C0001            cmp [_Buzzer],1
 0E4B B004              jnz L497
 0E4D                   .dbline 881
 0E4D 7C0034            xcall _Pitido
 0E50           L497:
 0E50                   .dbline 882
 0E50           ; }
 0E50 3D0001            cmp [X+0],1
 0E53 B019              jnz L499
 0E55                   .dbline 883
 0E55           ; }
 0E55                   .dbline 884
 0E55           ; }
 0E55 62D000            mov REG[0xd0],>__r0
 0E58 5201              mov A,[X+1]
 0E5A 0101              add A,1
 0E5C 5300              mov [__r0],A
 0E5E 5003              mov A,3
 0E60 3A00              cmp A,[__r0]
 0E62 D006              jnc L501
 0E64           X22:
 0E64                   .dbline 884
 0E64 560101            mov [X+1],1
 0E67 8028              xjmp L500
 0E69           L501:
 0E69                   .dbline 885
 0E69           ; }
 0E69 7701              inc [X+1]
 0E6B                   .dbline 886
 0E6B           ; }
 0E6B 8024              xjmp L500
 0E6D           L499:
 0E6D                   .dbline 887
 0E6D           ; }
 0E6D 3D0003            cmp [X+0],3
 0E70 B008              jnz L503
 0E72                   .dbline 888
 0E72           ; }
 0E72                   .dbline 889
 0E72           ; }
 0E72 5201              mov A,[X+1]
 0E74 62D000            mov REG[0xd0],>__r0
 0E77 801D              xjmp L483
 0E79           L503:
 0E79                   .dbline 891
 0E79           ; }
 0E79           ; }
 0E79 3D0002            cmp [X+0],2
 0E7C B013              jnz L505
 0E7E                   .dbline 892
 0E7E           ; }
 0E7E                   .dbline 893
 0E7E           ; }
 0E7E 62D000            mov REG[0xd0],>__r0
 0E81 5201              mov A,[X+1]
 0E83 1101              sub A,1
 0E85 3901              cmp A,1
 0E87 D006              jnc L507
 0E89           X23:
 0E89                   .dbline 893
 0E89 560103            mov [X+1],3
 0E8C 8003              xjmp L508
 0E8E           L507:
 0E8E                   .dbline 894
 0E8E           ; }
 0E8E 7B01              dec [X+1]
 0E90           L508:
 0E90                   .dbline 895
 0E90           ; }
 0E90           L505:
 0E90           L500:
 0E90                   .dbline 896
 0E90           L485:
 0E90                   .dbline 896
 0E90           ; }
 0E90 3D0004            cmp [X+0],4
 0E93 BF5A              jnz L484
 0E95                   .dbline -2
 0E95                   .dbline 897
 0E95           ; }
 0E95           L483:
 0E95 38FC              add SP,-4
 0E97 20                pop X
 0E98                   .dbline 0 ; func end
 0E98 7F                ret
 0E99                   .dbsym l x 2 i
 0E99                   .dbsym l menu 1 c
 0E99                   .dbsym l pulsat 0 c
 0E99                   .dbend
 0E99                   .dbfunc e Executar _Executar fV
 0E99           ;              x -> X+2
 0E99           ;           menu -> X+1
 0E99           ;         pulsat -> X+0
 0E99           _Executar::
 0E99                   .dbline -1
 0E99 10                push X
 0E9A 4F                mov X,SP
 0E9B 3804              add SP,4
 0E9D                   .dbline 907
 0E9D           ; }
 0E9D           ; }
 0E9D           ; }
 0E9D           ; }
 0E9D           ; }
 0E9D           ; }
 0E9D           ; }
 0E9D           ; }
 0E9D           ; }
 0E9D           ; }
 0E9D                   .dbline 908
 0E9D           ; }
 0E9D 560101            mov [X+1],1
 0EA0           L510:
 0EA0                   .dbline 912
 0EA0           ; }
 0EA0           ; }
 0EA0           ; }
 0EA0           ; }
 0EA0                   .dbline 913
 0EA0           ; }
 0EA0 10                push X
 0EA1 5001              mov A,1
 0EA3 7C0000            xcall _LCD_Control
 0EA6                   .dbline 914
 0EA6           ; }
 0EA6 508A              mov A,>L513
 0EA8 08                push A
 0EA9 508A              mov A,<L513
 0EAB 5C                mov X,A
 0EAC 18                pop A
 0EAD 7C0000            xcall _LCD_PrCString
 0EB0                   .dbline 915
 0EB0           ; }
 0EB0 5700              mov X,0
 0EB2 5001              mov A,1
 0EB4 7C0000            xcall _LCD_Position
 0EB7                   .dbline 916
 0EB7           ; }
 0EB7 5082              mov A,>L514
 0EB9 08                push A
 0EBA 5082              mov A,<L514
 0EBC 5C                mov X,A
 0EBD 18                pop A
 0EBE 7C0000            xcall _LCD_PrCString
 0EC1 20                pop X
 0EC2                   .dbline 917
 0EC2           ; }
 0EC2 7C0000            xcall _bucle_temp
 0EC5                   .dbline 918
 0EC5           ; }
 0EC5 7C00A6            xcall _Pulsador
 0EC8 5400              mov [X+0],A
 0ECA                   .dbline 919
 0ECA           ; }
 0ECA 62D000            mov REG[0xd0],>_Buzzer
 0ECD 3C0001            cmp [_Buzzer],1
 0ED0 B006              jnz L515
 0ED2                   .dbline 919
 0ED2 7C0034            xcall _Pitido
 0ED5 800D              xjmp L516
 0ED7           L515:
 0ED7                   .dbline 920
 0ED7           ; }
 0ED7 3D0003            cmp [X+0],3
 0EDA B008              jnz L517
 0EDC                   .dbline 921
 0EDC           ; }
 0EDC                   .dbline 922
 0EDC           ; }
 0EDC 3D0101            cmp [X+1],1
 0EDF B003              jnz L519
 0EE1                   .dbline 922
 0EE1 9009              xcall _Ara
 0EE3           L519:
 0EE3                   .dbline 923
 0EE3           ; }
 0EE3           L517:
 0EE3           L516:
 0EE3                   .dbline 924
 0EE3           L511:
 0EE3                   .dbline 924
 0EE3           ; }
 0EE3 3D0004            cmp [X+0],4
 0EE6 BFB9              jnz L510
 0EE8                   .dbline -2
 0EE8                   .dbline 925
 0EE8           ; }
 0EE8           L509:
 0EE8 38FC              add SP,-4
 0EEA 20                pop X
 0EEB                   .dbline 0 ; func end
 0EEB 7F                ret
 0EEC                   .dbsym l x 2 i
 0EEC                   .dbsym l menu 1 c
 0EEC                   .dbsym l pulsat 0 c
 0EEC                   .dbend
 0EEC                   .dbfunc e Ara _Ara fV
 0EEC           _Ara::
 0EEC                   .dbline -1
 0EEC                   .dbline 934
 0EEC           ; }
 0EEC           ; }
 0EEC           ; }
 0EEC           ; }
 0EEC           ; }
 0EEC           ; }
 0EEC           ; }
 0EEC           ; }
 0EEC           ; }
 0EEC                   .dbline 935
 0EEC           ; }
 0EEC 7C0060            xcall _Reset_PdT
 0EEF                   .dbline 936
 0EEF           ; }
 0EEF 5009              mov A,9
 0EF1 08                push A
 0EF2 906A              xcall _Envia
 0EF4 38FF              add SP,-1
 0EF6                   .dbline 937
 0EF6           ; }
 0EF6 62D000            mov REG[0xd0],>_Ent1
 0EF9 5100              mov A,[_Ent1]
 0EFB 08                push A
 0EFC 9060              xcall _Envia
 0EFE                   .dbline 938
 0EFE           ; }
 0EFE 62D000            mov REG[0xd0],>_Ent2
 0F01 5100              mov A,[_Ent2]
 0F03 08                push A
 0F04 9058              xcall _Envia
 0F06 38FE              add SP,-2
 0F08                   .dbline 939
 0F08           ; }
 0F08 62D000            mov REG[0xd0],>_Ent3
 0F0B 5100              mov A,[_Ent3]
 0F0D 08                push A
 0F0E 904E              xcall _Envia
 0F10                   .dbline 940
 0F10           ; }
 0F10 62D000            mov REG[0xd0],>_Ent4
 0F13 5100              mov A,[_Ent4]
 0F15 08                push A
 0F16 9046              xcall _Envia
 0F18 38FE              add SP,-2
 0F1A                   .dbline 941
 0F1A           ; }
 0F1A 62D000            mov REG[0xd0],>_Cam1
 0F1D 5100              mov A,[_Cam1]
 0F1F 08                push A
 0F20 903C              xcall _Envia
 0F22                   .dbline 942
 0F22           ; }
 0F22 62D000            mov REG[0xd0],>_Cam2
 0F25 5100              mov A,[_Cam2]
 0F27 08                push A
 0F28 9034              xcall _Envia
 0F2A 38FE              add SP,-2
 0F2C                   .dbline 943
 0F2C           ; }
 0F2C 62D000            mov REG[0xd0],>_Fla1
 0F2F 5100              mov A,[_Fla1]
 0F31 08                push A
 0F32 902A              xcall _Envia
 0F34                   .dbline 944
 0F34           ; }
 0F34 62D000            mov REG[0xd0],>_Fla2
 0F37 5100              mov A,[_Fla2]
 0F39 08                push A
 0F3A 9022              xcall _Envia
 0F3C 38FE              add SP,-2
 0F3E                   .dbline 945
 0F3E           ; }
 0F3E 62D000            mov REG[0xd0],>_Fla3
 0F41 5100              mov A,[_Fla3]
 0F43 08                push A
 0F44 9018              xcall _Envia
 0F46                   .dbline 946
 0F46           ; }
 0F46 62D000            mov REG[0xd0],>_Fla4
 0F49 5100              mov A,[_Fla4]
 0F4B 08                push A
 0F4C 9010              xcall _Envia
 0F4E 38FE              add SP,-2
 0F50                   .dbline 947
 0F50           ; }
 0F50 62D000            mov REG[0xd0],>_Buzzer
 0F53 3C0001            cmp [_Buzzer],1
 0F56 B004              jnz L522
 0F58                   .dbline 947
 0F58 7C0034            xcall _Pitido
 0F5B           L522:
 0F5B                   .dbline 948
 0F5B           ; }
 0F5B 9034              xcall _Trabajando
 0F5D                   .dbline -2
 0F5D                   .dbline 949
 0F5D           ; }
 0F5D           L521:
 0F5D                   .dbline 0 ; func end
 0F5D 7F                ret
 0F5E                   .dbend
 0F5E                   .dbfunc e Envia _Envia fV
 0F5E           ;   confirmacion -> X+0
 0F5E           ;          valor -> X-4
 0F5E           _Envia::
 0F5E                   .dbline -1
 0F5E 10                push X
 0F5F 4F                mov X,SP
 0F60 3801              add SP,1
 0F62                   .dbline 959
 0F62           ; }
 0F62           ; }
 0F62           ; }
 0F62           ; }
 0F62           ; }
 0F62           ; }
 0F62           ; }
 0F62           ; }
 0F62           ; }
 0F62           ; }
 0F62           L525:
 0F62                   .dbline 963
 0F62           ; }
 0F62           ; }
 0F62           ; }
 0F62           ; }
 0F62                   .dbline 964
 0F62           ; }
 0F62 10                push X
 0F63 52FC              mov A,[X-4]
 0F65 7C0000            xcall _UART_PutChar
 0F68                   .dbline 965
 0F68           ; }
 0F68 7C0000            xcall _UART_cGetChar
 0F6B 62D000            mov REG[0xd0],>__r0
 0F6E 20                pop X
 0F6F 5400              mov [X+0],A
 0F71                   .dbline 966
 0F71           ; }
 0F71 52FC              mov A,[X-4]
 0F73 3B00              cmp A,[X+0]
 0F75 B00A              jnz L528
 0F77                   .dbline 966
 0F77 10                push X
 0F78 5005              mov A,5
 0F7A 7C0000            xcall _UART_PutChar
 0F7D 20                pop X
 0F7E 8008              xjmp L529
 0F80           L528:
 0F80                   .dbline 967
 0F80           ; }
 0F80 10                push X
 0F81 5004              mov A,4
 0F83 7C0000            xcall _UART_PutChar
 0F86 20                pop X
 0F87           L529:
 0F87                   .dbline 968
 0F87           L526:
 0F87                   .dbline 968
 0F87           ; }
 0F87 52FC              mov A,[X-4]
 0F89 3B00              cmp A,[X+0]
 0F8B BFD6              jnz L525
 0F8D                   .dbline -2
 0F8D                   .dbline 969
 0F8D           ; }
 0F8D           L524:
 0F8D 38FF              add SP,-1
 0F8F 20                pop X
 0F90                   .dbline 0 ; func end
 0F90 7F                ret
 0F91                   .dbsym l confirmacion 0 c
 0F91                   .dbsym l valor -4 c
 0F91                   .dbend
 0F91                   .dbfunc e Trabajando _Trabajando fV
 0F91           ;              x -> X+1
 0F91           ;         pulsat -> X+0
 0F91           _Trabajando::
 0F91                   .dbline -1
 0F91 10                push X
 0F92 4F                mov X,SP
 0F93 3803              add SP,3
 0F95                   .dbline 978
 0F95           ; }
 0F95           ; }
 0F95           ; }
 0F95           ; }
 0F95           ; }
 0F95           ; }
 0F95           ; }
 0F95           ; }
 0F95           ; }
 0F95                   .dbline 982
 0F95           ; }
 0F95           ; }
 0F95           ; }
 0F95           ; }
 0F95 10                push X
 0F96 5001              mov A,1
 0F98 7C0000            xcall _LCD_Control
 0F9B                   .dbline 983
 0F9B           ; }
 0F9B 5072              mov A,>L531
 0F9D 08                push A
 0F9E 5072              mov A,<L531
 0FA0 5C                mov X,A
 0FA1 18                pop A
 0FA2 7C0000            xcall _LCD_PrCString
 0FA5 20                pop X
 0FA6                   .dbline 984
 0FA6 62D000            mov REG[0xd0],>_Interrupcion
 0FA9 3C0001            cmp [_Interrupcion],1
 0FAC B02D              jnz L532
 0FAE                   .dbline 984
 0FAE 560200            mov [X+2],0
 0FB1 560100            mov [X+1],0
 0FB4 8006              xjmp L537
 0FB6           L534:
 0FB6                   .dbline 984
 0FB6           L535:
 0FB6                   .dbline 984
 0FB6 7702              inc [X+2]
 0FB8 0F0100            adc [X+1],0
 0FBB           L537:
 0FBB                   .dbline 984
 0FBB           ; }
 0FBB 62D000            mov REG[0xd0],>__r0
 0FBE 5202              mov A,[X+2]
 0FC0 5300              mov [__r3],A
 0FC2 5201              mov A,[X+1]
 0FC4 5300              mov [__r2],A
 0FC6 5100              mov A,[__r3]
 0FC8 1160              sub A,96
 0FCA 5100              mov A,[__r2]
 0FCC 19EA              sbb A,-22
 0FCE 5000              mov A,0
 0FD0 1900              sbb A,0
 0FD2 5000              mov A,0
 0FD4 3180              xor A,-128
 0FD6 1980              sbb A,(0 ^ 0x80)
 0FD8 CFDD              jc L534
 0FDA           X25:
 0FDA           L532:
 0FDA                   .dbline 985
 0FDA           ; }
 0FDA 10                push X
 0FDB 7C0000            xcall _Timer1seg_Stop
 0FDE 20                pop X
 0FDF                   .dbline 986
 0FDF           ; }
 0FDF           L538:
 0FDF                   .dbline 987
 0FDF           ; }
 0FDF                   .dbline 988
 0FDF           ; }
 0FDF 62D000            mov REG[0xd0],>_Interrupcion
 0FE2 550001            mov [_Interrupcion],1
 0FE5                   .dbline 989
 0FE5           ; }
 0FE5 10                push X
 0FE6 5008              mov A,8
 0FE8 7C0000            xcall _LCD_Control
 0FEB 20                pop X
 0FEC                   .dbline 990
 0FEC           ; }
 0FEC 7C00A6            xcall _Pulsador
 0FEF 5400              mov [X+0],A
 0FF1                   .dbline 991
 0FF1           ; }
 0FF1 62D000            mov REG[0xd0],>_Buzzer
 0FF4 3C0001            cmp [_Buzzer],1
 0FF7 B004              jnz L542
 0FF9                   .dbline 991
 0FF9 7C0034            xcall _Pitido
 0FFC           L542:
 0FFC                   .dbline 992
 0FFC           ; }
 0FFC 3D0001            cmp [X+0],1
 0FFF A00B              jz L547
 1001 3D0002            cmp [X+0],2
 1004 A006              jz L547
 1006 3D0004            cmp [X+0],4
 1009 B034              jnz L544
 100B           L547:
 100B                   .dbline 993
 100B           ; }
 100B                   .dbline 994
 100B           ; }
 100B 10                push X
 100C 500E              mov A,14
 100E 7C0000            xcall _LCD_Control
 1011                   .dbline 995
 1011           ; }
 1011 5001              mov A,1
 1013 7C0000            xcall _LCD_Control
 1016                   .dbline 996
 1016           ; }
 1016 5072              mov A,>L531
 1018 08                push A
 1019 5072              mov A,<L531
 101B 5C                mov X,A
 101C 18                pop A
 101D 7C0000            xcall _LCD_PrCString
 1020                   .dbline 997
 1020           ; }
 1020 5700              mov X,0
 1022 5001              mov A,1
 1024 7C0000            xcall _LCD_Position
 1027                   .dbline 998
 1027           ; }
 1027 5062              mov A,>L548
 1029 08                push A
 102A 5062              mov A,<L548
 102C 5C                mov X,A
 102D 18                pop A
 102E 7C0000            xcall _LCD_PrCString
 1031                   .dbline 999
 1031           ; }
 1031 574E              mov X,78
 1033 5020              mov A,32
 1035 7C0000            xcall _Timer1seg_WritePeriod
 1038                   .dbline 1000
 1038           ; }
 1038 7C0000            xcall _Timer1seg_Start
 103B 20                pop X
 103C                   .dbline 1001
 103C           ; }
 103C 8FA2              xjmp L538
 103E           L544:
 103E                   .dbline 1002
 103E 3D0003            cmp [X+0],3
 1041 BF9D              jnz L538
 1043                   .dbline 1003
 1043                   .dbline 1004
 1043 9006              xcall _Resetear
 1045                   .dbline 1005
 1045                   .dbline 1006
 1045                   .dbline 986
 1045                   .dbline 986
 1045 8F99              xjmp L538
 1047           X24:
 1047                   .dbline -2
 1047           L530:
 1047 38FD              add SP,-3
 1049 20                pop X
 104A                   .dbline 0 ; func end
 104A 7F                ret
 104B                   .dbsym l x 1 i
 104B                   .dbsym l pulsat 0 c
 104B                   .dbend
 104B                   .dbfunc e Resetear _Resetear fV
 104B           _Resetear::
 104B                   .dbline -1
 104B                   .dbline 1016
 104B           ; }
 104B           ; }
 104B           ; }
 104B           ; }
 104B           ; }
 104B           ; }
 104B           ; }
 104B           ; }
 104B           ; }
 104B           ; }
 104B           ; }
 104B           ; }
 104B           ; }
 104B           ; }
 104B           ; }
 104B                   .dbline 1017
 104B           ; }
 104B 5063              mov A,99
 104D 08                push A
 104E 9F0E              xcall _Envia
 1050 38FF              add SP,-1
 1052                   .dbline 1018
 1052           ; }
 1052 7C013A            xcall _Principal
 1055                   .dbline -2
 1055                   .dbline 1019
 1055           ; }
 1055           L551:
 1055                   .dbline 0 ; func end
 1055 7F                ret
 1056                   .dbend
 1056                   .dbfunc e Sistema _Sistema fV
 1056           ;              x -> X+2
 1056           ;           menu -> X+1
 1056           ;         pulsat -> X+0
 1056           _Sistema::
 1056                   .dbline -1
 1056 10                push X
 1057 4F                mov X,SP
 1058 3804              add SP,4
 105A                   .dbline 1029
 105A           ; }
 105A           ; }
 105A           ; }
 105A           ; }
 105A           ; }
 105A           ; }
 105A           ; }
 105A           ; }
 105A           ; }
 105A           ; }
 105A                   .dbline 1030
 105A           ; }
 105A 560101            mov [X+1],1
 105D           L553:
 105D                   .dbline 1034
 105D           ; }
 105D           ; }
 105D           ; }
 105D           ; }
 105D                   .dbline 1035
 105D           ; }
 105D 10                push X
 105E 5001              mov A,1
 1060 7C0000            xcall _LCD_Control
 1063                   .dbline 1036
 1063           ; }
 1063 5053              mov A,>L556
 1065 08                push A
 1066 5053              mov A,<L556
 1068 5C                mov X,A
 1069 18                pop A
 106A 7C0000            xcall _LCD_PrCString
 106D                   .dbline 1037
 106D           ; }
 106D 5700              mov X,0
 106F 5001              mov A,1
 1071 7C0000            xcall _LCD_Position
 1074 20                pop X
 1075                   .dbline 1038
 1075           ; }
 1075 3D0101            cmp [X+1],1
 1078 B00F              jnz L557
 107A                   .dbline 1038
 107A 10                push X
 107B 5049              mov A,>L559
 107D 08                push A
 107E 5049              mov A,<L559
 1080 5C                mov X,A
 1081 18                pop A
 1082 7C0000            xcall _LCD_PrCString
 1085 20                pop X
 1086 8025              xjmp L558
 1088           L557:
 1088                   .dbline 1039
 1088           ; }
 1088 3D0102            cmp [X+1],2
 108B B00F              jnz L560
 108D                   .dbline 1039
 108D 10                push X
 108E 5038              mov A,>L562
 1090 08                push A
 1091 5038              mov A,<L562
 1093 5C                mov X,A
 1094 18                pop A
 1095 7C0000            xcall _LCD_PrCString
 1098 20                pop X
 1099 8012              xjmp L561
 109B           L560:
 109B                   .dbline 1040
 109B           ; }
 109B 3D0103            cmp [X+1],3
 109E B00D              jnz L563
 10A0                   .dbline 1040
 10A0 10                push X
 10A1 5028              mov A,>L565
 10A3 08                push A
 10A4 5028              mov A,<L565
 10A6 5C                mov X,A
 10A7 18                pop A
 10A8 7C0000            xcall _LCD_PrCString
 10AB 20                pop X
 10AC           L563:
 10AC           L561:
 10AC           L558:
 10AC                   .dbline 1041
 10AC           ; }
 10AC 7C0000            xcall _bucle_temp
 10AF                   .dbline 1042
 10AF           ; }
 10AF 7C00A6            xcall _Pulsador
 10B2 5400              mov [X+0],A
 10B4                   .dbline 1043
 10B4           ; }
 10B4 62D000            mov REG[0xd0],>_Buzzer
 10B7 3C0001            cmp [_Buzzer],1
 10BA B004              jnz L566
 10BC                   .dbline 1043
 10BC 7C0034            xcall _Pitido
 10BF           L566:
 10BF                   .dbline 1044
 10BF           ; }
 10BF 3D0001            cmp [X+0],1
 10C2 B019              jnz L568
 10C4                   .dbline 1045
 10C4           ; }
 10C4                   .dbline 1046
 10C4           ; }
 10C4 62D000            mov REG[0xd0],>__r0
 10C7 5201              mov A,[X+1]
 10C9 0101              add A,1
 10CB 5300              mov [__r0],A
 10CD 5003              mov A,3
 10CF 3A00              cmp A,[__r0]
 10D1 D006              jnc L570
 10D3           X26:
 10D3                   .dbline 1046
 10D3 560101            mov [X+1],1
 10D6 803C              xjmp L569
 10D8           L570:
 10D8                   .dbline 1047
 10D8           ; }
 10D8 7701              inc [X+1]
 10DA                   .dbline 1048
 10DA           ; }
 10DA 8038              xjmp L569
 10DC           L568:
 10DC                   .dbline 1049
 10DC           ; }
 10DC 3D0003            cmp [X+0],3
 10DF B01C              jnz L572
 10E1                   .dbline 1050
 10E1           ; }
 10E1                   .dbline 1051
 10E1           ; }
 10E1 3D0101            cmp [X+1],1
 10E4 B005              jnz L574
 10E6                   .dbline 1051
 10E6 9034              xcall _Reali_LCD
 10E8 802A              xjmp L573
 10EA           L574:
 10EA                   .dbline 1052
 10EA           ; }
 10EA 3D0102            cmp [X+1],2
 10ED B005              jnz L576
 10EF                   .dbline 1052
 10EF 90B6              xcall _Zumbador
 10F1 8021              xjmp L573
 10F3           L576:
 10F3                   .dbline 1053
 10F3           ; }
 10F3 3D0103            cmp [X+1],3
 10F6 B01C              jnz L573
 10F8                   .dbline 1053
 10F8 9132              xcall _Ali_Led
 10FA                   .dbline 1054
 10FA           ; }
 10FA 8018              xjmp L573
 10FC           L572:
 10FC                   .dbline 1055
 10FC           ; }
 10FC 3D0002            cmp [X+0],2
 10FF B013              jnz L580
 1101                   .dbline 1056
 1101           ; }
 1101                   .dbline 1057
 1101           ; }
 1101 62D000            mov REG[0xd0],>__r0
 1104 5201              mov A,[X+1]
 1106 1101              sub A,1
 1108 3901              cmp A,1
 110A D006              jnc L582
 110C           X27:
 110C                   .dbline 1057
 110C 560103            mov [X+1],3
 110F 8003              xjmp L583
 1111           L582:
 1111                   .dbline 1058
 1111           ; }
 1111 7B01              dec [X+1]
 1113           L583:
 1113                   .dbline 1059
 1113           ; }
 1113           L580:
 1113           L573:
 1113           L569:
 1113                   .dbline 1060
 1113           L554:
 1113                   .dbline 1060
 1113           ; }
 1113 3D0004            cmp [X+0],4
 1116 BF46              jnz L553
 1118                   .dbline -2
 1118                   .dbline 1061
 1118           ; }
 1118           L552:
 1118 38FC              add SP,-4
 111A 20                pop X
 111B                   .dbline 0 ; func end
 111B 7F                ret
 111C                   .dbsym l x 2 i
 111C                   .dbsym l menu 1 c
 111C                   .dbsym l pulsat 0 c
 111C                   .dbend
 111C                   .dbfunc e Reali_LCD _Reali_LCD fV
 111C           ;              x -> X+1
 111C           ;         pulsat -> X+0
 111C           _Reali_LCD::
 111C                   .dbline -1
 111C 10                push X
 111D 4F                mov X,SP
 111E 3803              add SP,3
 1120                   .dbline 1070
 1120           ; }
 1120           ; }
 1120           ; }
 1120           ; }
 1120           ; }
 1120           ; }
 1120           ; }
 1120           ; }
 1120           ; }
 1120           L585:
 1120                   .dbline 1075
 1120           ; }
 1120           ; }
 1120           ; }
 1120           ; }
 1120           ; }
 1120                   .dbline 1076
 1120           ; }
 1120 10                push X
 1121 5001              mov A,1
 1123 7C0000            xcall _LCD_Control
 1126                   .dbline 1077
 1126           ; }
 1126 501F              mov A,>L588
 1128 08                push A
 1129 501F              mov A,<L588
 112B 5C                mov X,A
 112C 18                pop A
 112D 7C0000            xcall _LCD_PrCString
 1130                   .dbline 1078
 1130           ; }
 1130 5700              mov X,0
 1132 5001              mov A,1
 1134 7C0000            xcall _LCD_Position
 1137 20                pop X
 1138                   .dbline 1079
 1138           ; }
 1138 62D000            mov REG[0xd0],>_Luz_LCD
 113B 3C0000            cmp [_Luz_LCD],0
 113E B00F              jnz L589
 1140                   .dbline 1079
 1140 10                push X
 1141 5016              mov A,>L136
 1143 08                push A
 1144 5016              mov A,<L136
 1146 5C                mov X,A
 1147 18                pop A
 1148 7C0000            xcall _LCD_PrCString
 114B 20                pop X
 114C 800D              xjmp L590
 114E           L589:
 114E                   .dbline 1080
 114E           ; }
 114E 10                push X
 114F 5013              mov A,>L137
 1151 08                push A
 1152 5013              mov A,<L137
 1154 5C                mov X,A
 1155 18                pop A
 1156 7C0000            xcall _LCD_PrCString
 1159 20                pop X
 115A           L590:
 115A                   .dbline 1081
 115A           ; }
 115A 7C0000            xcall _bucle_temp
 115D                   .dbline 1082
 115D           ; }
 115D 7C00A6            xcall _Pulsador
 1160 5400              mov [X+0],A
 1162                   .dbline 1083
 1162           ; }
 1162 62D000            mov REG[0xd0],>_Buzzer
 1165 3C0001            cmp [_Buzzer],1
 1168 B004              jnz L591
 116A                   .dbline 1083
 116A 7C0034            xcall _Pitido
 116D           L591:
 116D                   .dbline 1084
 116D           ; }
 116D 3D0001            cmp [X+0],1
 1170 A006              jz L595
 1172 3D0002            cmp [X+0],2
 1175 B00A              jnz L593
 1177           L595:
 1177                   .dbline 1085
 1177           ; }
 1177                   .dbline 1086
 1177           ; }
 1177 5D00              mov A,REG[ 0]
 1179 62D000            mov REG[0xd0],>__r0
 117C 6000              mov REG[ 0],A
 117E                   .dbline 1087
 117E           ; }
 117E 801F              xjmp L594
 1180           L593:
 1180                   .dbline 1088
 1180           ; }
 1180 3D0003            cmp [X+0],3
 1183 B01A              jnz L596
 1185                   .dbline 1089
 1185           ; }
 1185                   .dbline 1090
 1185           ; }
 1185 62D000            mov REG[0xd0],>_Luz_LCD
 1188 3C0000            cmp [_Luz_LCD],0
 118B B009              jnz L598
 118D                   .dbline 1091
 118D           ; }
 118D                   .dbline 1092
 118D           ; }
 118D 430002            or REG[ 0],2
 1190                   .dbline 1093
 1190           ; }
 1190 550001            mov [_Luz_LCD],1
 1193                   .dbline 1094
 1193           ; }
 1193 800A              xjmp L599
 1195           L598:
 1195                   .dbline 1096
 1195           ; }
 1195           ; }
 1195                   .dbline 1097
 1195           ; }
 1195 4100FD            and REG[ 0],-3
 1198                   .dbline 1098
 1198           ; }
 1198 62D000            mov REG[0xd0],>_Luz_LCD
 119B 550000            mov [_Luz_LCD],0
 119E                   .dbline 1099
 119E           ; }
 119E           L599:
 119E                   .dbline 1100
 119E           ; }
 119E           L596:
 119E           L594:
 119E                   .dbline 1101
 119E           L586:
 119E                   .dbline 1101
 119E           ; }
 119E 3D0004            cmp [X+0],4
 11A1 BF7E              jnz L585
 11A3                   .dbline -2
 11A3                   .dbline 1102
 11A3           ; }
 11A3           L584:
 11A3 38FD              add SP,-3
 11A5 20                pop X
 11A6                   .dbline 0 ; func end
 11A6 7F                ret
 11A7                   .dbsym l x 1 i
 11A7                   .dbsym l pulsat 0 c
 11A7                   .dbend
 11A7                   .dbfunc e Zumbador _Zumbador fV
 11A7           ;              x -> X+1
 11A7           ;         pulsat -> X+0
 11A7           _Zumbador::
 11A7                   .dbline -1
 11A7 10                push X
 11A8 4F                mov X,SP
 11A9 3803              add SP,3
 11AB                   .dbline 1111
 11AB           ; }
 11AB           ; }
 11AB           ; }
 11AB           ; }
 11AB           ; }
 11AB           ; }
 11AB           ; }
 11AB           ; }
 11AB           ; }
 11AB           L601:
 11AB                   .dbline 1116
 11AB           ; }
 11AB           ; }
 11AB           ; }
 11AB           ; }
 11AB           ; }
 11AB                   .dbline 1117
 11AB           ; }
 11AB 10                push X
 11AC 5001              mov A,1
 11AE 7C0000            xcall _LCD_Control
 11B1                   .dbline 1118
 11B1           ; }
 11B1 500F              mov A,>L604
 11B3 08                push A
 11B4 500F              mov A,<L604
 11B6 5C                mov X,A
 11B7 18                pop A
 11B8 7C0000            xcall _LCD_PrCString
 11BB                   .dbline 1119
 11BB           ; }
 11BB 5700              mov X,0
 11BD 5001              mov A,1
 11BF 7C0000            xcall _LCD_Position
 11C2 20                pop X
 11C3                   .dbline 1120
 11C3           ; }
 11C3 62D000            mov REG[0xd0],>_Buzzer
 11C6 3C0000            cmp [_Buzzer],0
 11C9 B00F              jnz L605
 11CB                   .dbline 1120
 11CB 10                push X
 11CC 5016              mov A,>L136
 11CE 08                push A
 11CF 5016              mov A,<L136
 11D1 5C                mov X,A
 11D2 18                pop A
 11D3 7C0000            xcall _LCD_PrCString
 11D6 20                pop X
 11D7 800D              xjmp L606
 11D9           L605:
 11D9                   .dbline 1121
 11D9           ; }
 11D9 10                push X
 11DA 5013              mov A,>L137
 11DC 08                push A
 11DD 5013              mov A,<L137
 11DF 5C                mov X,A
 11E0 18                pop A
 11E1 7C0000            xcall _LCD_PrCString
 11E4 20                pop X
 11E5           L606:
 11E5                   .dbline 1122
 11E5           ; }
 11E5 7C0000            xcall _bucle_temp
 11E8                   .dbline 1123
 11E8           ; }
 11E8 7C00A6            xcall _Pulsador
 11EB 5400              mov [X+0],A
 11ED                   .dbline 1124
 11ED           ; }
 11ED 62D000            mov REG[0xd0],>_Buzzer
 11F0 3C0001            cmp [_Buzzer],1
 11F3 B004              jnz L607
 11F5                   .dbline 1124
 11F5 7C0034            xcall _Pitido
 11F8           L607:
 11F8                   .dbline 1125
 11F8           ; }
 11F8 3D0001            cmp [X+0],1
 11FB A006              jz L611
 11FD 3D0002            cmp [X+0],2
 1200 B00A              jnz L609
 1202           L611:
 1202                   .dbline 1126
 1202           ; }
 1202                   .dbline 1127
 1202           ; }
 1202 5D00              mov A,REG[ 0]
 1204 62D000            mov REG[0xd0],>__r0
 1207 6000              mov REG[ 0],A
 1209                   .dbline 1128
 1209           ; }
 1209 8019              xjmp L610
 120B           L609:
 120B                   .dbline 1129
 120B           ; }
 120B 3D0003            cmp [X+0],3
 120E B014              jnz L612
 1210                   .dbline 1130
 1210           ; }
 1210                   .dbline 1131
 1210           ; }
 1210 62D000            mov REG[0xd0],>_Buzzer
 1213 3C0000            cmp [_Buzzer],0
 1216 B006              jnz L614
 1218                   .dbline 1131
 1218 550001            mov [_Buzzer],1
 121B 8007              xjmp L615
 121D           L614:
 121D                   .dbline 1132
 121D           ; }
 121D 62D000            mov REG[0xd0],>_Buzzer
 1220 550000            mov [_Buzzer],0
 1223           L615:
 1223                   .dbline 1133
 1223           ; }
 1223           L612:
 1223           L610:
 1223                   .dbline 1134
 1223           L602:
 1223                   .dbline 1134
 1223           ; }
 1223 3D0004            cmp [X+0],4
 1226 BF84              jnz L601
 1228                   .dbline -2
 1228                   .dbline 1135
 1228           ; }
 1228           L600:
 1228 38FD              add SP,-3
 122A 20                pop X
 122B                   .dbline 0 ; func end
 122B 7F                ret
 122C                   .dbsym l x 1 i
 122C                   .dbsym l pulsat 0 c
 122C                   .dbend
 122C                   .dbfunc e Ali_Led _Ali_Led fV
 122C           ;              x -> X+1
 122C           ;         pulsat -> X+0
 122C           _Ali_Led::
 122C                   .dbline -1
 122C 10                push X
 122D 4F                mov X,SP
 122E 3803              add SP,3
 1230                   .dbline 1144
 1230           ; }
 1230           ; }
 1230           ; }
 1230           ; }
 1230           ; }
 1230           ; }
 1230           ; }
 1230           ; }
 1230           ; }
 1230           L617:
 1230                   .dbline 1149
 1230           ; }
 1230           ; }
 1230           ; }
 1230           ; }
 1230           ; }
 1230                   .dbline 1150
 1230           ; }
 1230 10                push X
 1231 5001              mov A,1
 1233 7C0000            xcall _LCD_Control
 1236                   .dbline 1151
 1236           ; }
 1236 5000              mov A,>L620
 1238 08                push A
 1239 5000              mov A,<L620
 123B 5C                mov X,A
 123C 18                pop A
 123D 7C0000            xcall _LCD_PrCString
 1240                   .dbline 1152
 1240           ; }
 1240 5700              mov X,0
 1242 5001              mov A,1
 1244 7C0000            xcall _LCD_Position
 1247 20                pop X
 1248                   .dbline 1153
 1248           ; }
 1248 62D000            mov REG[0xd0],>_Alimentacion
 124B 3C0000            cmp [_Alimentacion],0
 124E B00F              jnz L621
 1250                   .dbline 1153
 1250 10                push X
 1251 5016              mov A,>L136
 1253 08                push A
 1254 5016              mov A,<L136
 1256 5C                mov X,A
 1257 18                pop A
 1258 7C0000            xcall _LCD_PrCString
 125B 20                pop X
 125C 800D              xjmp L622
 125E           L621:
 125E                   .dbline 1154
 125E           ; }
 125E 10                push X
 125F 5013              mov A,>L137
 1261 08                push A
 1262 5013              mov A,<L137
 1264 5C                mov X,A
 1265 18                pop A
 1266 7C0000            xcall _LCD_PrCString
 1269 20                pop X
 126A           L622:
 126A                   .dbline 1155
 126A           ; }
 126A 7C0000            xcall _bucle_temp
 126D                   .dbline 1156
 126D           ; }
 126D 7C00A6            xcall _Pulsador
 1270 5400              mov [X+0],A
 1272                   .dbline 1157
 1272           ; }
 1272 62D000            mov REG[0xd0],>_Buzzer
 1275 3C0001            cmp [_Buzzer],1
 1278 B004              jnz L623
 127A                   .dbline 1157
 127A 7C0034            xcall _Pitido
 127D           L623:
 127D                   .dbline 1158
 127D           ; }
 127D 3D0001            cmp [X+0],1
 1280 A006              jz L627
 1282 3D0002            cmp [X+0],2
 1285 B00A              jnz L625
 1287           L627:
 1287                   .dbline 1159
 1287           ; }
 1287                   .dbline 1160
 1287           ; }
 1287 5D00              mov A,REG[ 0]
 1289 62D000            mov REG[0xd0],>__r0
 128C 6000              mov REG[ 0],A
 128E                   .dbline 1161
 128E           ; }
 128E 801F              xjmp L626
 1290           L625:
 1290                   .dbline 1162
 1290           ; }
 1290 3D0003            cmp [X+0],3
 1293 B01A              jnz L628
 1295                   .dbline 1163
 1295           ; }
 1295                   .dbline 1164
 1295           ; }
 1295 62D000            mov REG[0xd0],>_Alimentacion
 1298 3C0000            cmp [_Alimentacion],0
 129B B009              jnz L630
 129D                   .dbline 1165
 129D           ; }
 129D                   .dbline 1166
 129D           ; }
 129D 430010            or REG[ 0],16
 12A0                   .dbline 1167
 12A0           ; }
 12A0 550001            mov [_Alimentacion],1
 12A3                   .dbline 1168
 12A3           ; }
 12A3 800A              xjmp L631
 12A5           L630:
 12A5                   .dbline 1170
 12A5           ; }
 12A5           ; }
 12A5                   .dbline 1171
 12A5           ; }
 12A5 4100EF            and REG[ 0],-17
 12A8                   .dbline 1172
 12A8           ; }
 12A8 62D000            mov REG[0xd0],>_Alimentacion
 12AB 550000            mov [_Alimentacion],0
 12AE                   .dbline 1173
 12AE           ; }
 12AE           L631:
 12AE                   .dbline 1174
 12AE           ; }
 12AE           L628:
 12AE           L626:
 12AE                   .dbline 1175
 12AE           L618:
 12AE                   .dbline 1175
 12AE           ; }
 12AE 3D0004            cmp [X+0],4
 12B1 BF7E              jnz L617
 12B3                   .dbline -2
 12B3                   .dbline 1176
 12B3           ; }
 12B3           L616:
 12B3 38FD              add SP,-3
 12B5 20                pop X
 12B6                   .dbline 0 ; func end
 12B6 7F                ret
 12B7                   .dbsym l x 1 i
 12B7                   .dbsym l pulsat 0 c
 12B7                   .dbend
 12B7                   .dbfile ./main.c
 12B7                   .dbfunc e main _main fV
 12B7           ;             xx -> X+1
 12B7           ;              x -> X+0
 12B7           _main::
 12B7                   .dbline -1
 12B7 10                push X
 12B8 4F                mov X,SP
 12B9 3803              add SP,3
 12BB                   .dbline 14
 12BB                   .dbline 18
 12BB 10                push X
 12BC 509C              mov A,-100
 12BE 7C0000            xcall _Timer8_WritePeriod
 12C1                   .dbline 19
 12C1 504E              mov A,78
 12C3 7C0000            xcall _Timer8_WriteCompareValue
 12C6                   .dbline 20
 12C6 7C0000            xcall _Timer8_Start
 12C9 20                pop X
 12CA                   .dbline 22
 12CA 7101                      or  F, 01h
 12CC           
 12CC                   .dbline 23
 12CC 10                push X
 12CD 7C0000            xcall _Timer1seg_EnableInt
 12D0                   .dbline 25
 12D0 7C0000            xcall _LCD_Start
 12D3                   .dbline 26
 12D3 7C0000            xcall _LCD_Init
 12D6                   .dbline 28
 12D6 5000              mov A,0
 12D8 7C0000            xcall _UART_Start
 12DB 20                pop X
 12DC                   .dbline 29
 12DC 6200A0            mov REG[ 0],-96
 12DF                   .dbline 32
 12DF 4100E1            and REG[ 0],-31
 12E2                   .dbline 36
 12E2           L633:
 12E2                   .dbline 36
 12E2 7C013A            xcall _Principal
 12E5                   .dbline 36
 12E5                   .dbline 36
 12E5 8FFC              xjmp L633
 12E7           X28:
 12E7                   .dbline -2
 12E7           L632:
 12E7 38FD              add SP,-3
 12E9 20                pop X
 12EA                   .dbline 0 ; func end
 12EA 8FFF              jmp .
 12EC                   .dbsym l xx 1 I
 12EC                   .dbsym l x 0 c
 12EC                   .dbend
                        .area lit(rom, con, rel)
 0000           L620:
 0000 3E4C6564206465206D617263686100    .byte 62,'L,'e,'d,32,'d,'e,32,'m,'a,'r,'c,'h,'a,0
 000F           L604:
 000F 3E50697469646F20696E7465726E6F00  .byte 62,'P,'i,'t,'i,'d,'o,32,'i,'n,'t,'e,'r,'n,'o,0
 001F           L588:
 001F 3E4C757A204C434400        .byte 62,'L,'u,'z,32,'L,'C,'D,0
 0028           L565:
 0028 332D4C6564206465206D617263686100  .byte 51,45,'L,'e,'d,32,'d,'e,32,'m,'a,'r,'c,'h,'a,0
 0038           L562:
 0038 322D50697469646F20696E7465726E6F  .byte 50,45,'P,'i,'t,'i,'d,'o,32,'i,'n,'t,'e,'r,'n,'o
 0048 00                .byte 0
 0049           L559:
 0049 312D4C757A204C434400      .byte 49,45,'L,'u,'z,32,'L,'C,'D,0
 0053           L556:
 0053 3E436F6E662E2053697374656D6100    .byte 62,'C,'o,'n,'f,46,32,'S,'i,'s,'t,'e,'m,'a,0
 0062           L548:
 0062 5175696572652070617261726C6F3F00  .byte 'Q,'u,'i,'e,'r,'e,32,'p,'a,'r,'a,'r,'l,'o,63,0
 0072           L531:
 0072 50686F746F534F432061637469766F00  .byte 'P,'h,'o,'t,'o,'S,'O,'C,32,'a,'c,'t,'i,'v,'o,0
 0082           L514:
 0082 312D41686F726100  .byte 49,45,'A,'h,'o,'r,'a,0
 008A           L513:
 008A 3E456A65637574617200      .byte 62,'E,'j,'e,'c,'u,'t,'a,'r,0
 0094           L496:
 0094 4D696E75746F7300  .byte 'M,'i,'n,'u,'t,'o,'s,0
 009C           L493:
 009C 536567756E646F7300        .byte 'S,'e,'g,'u,'n,'d,'o,'s,0
 00A5           L490:
 00A5 4D696C69736567756E646F7300        .byte 'M,'i,'l,'i,'s,'e,'g,'u,'n,'d,'o,'s,0
 00B2           L487:
 00B2 3E556E692E206465207469656D706F00  .byte 62,'U,'n,'i,46,32,'d,'e,32,'t,'i,'e,'m,'p,'o,0
 00C2           L470:
 00C2 3E4E756D2E206465207469656D706F00  .byte 62,'N,'u,'m,46,32,'d,'e,32,'t,'i,'e,'m,'p,'o,0
 00D2           L425:
 00D2 4E756D65726F20646520666F746F7300  .byte 'N,'u,'m,'e,'r,'o,32,'d,'e,32,'f,'o,'t,'o,'s,0
 00E2           L422:
 00E2 5420656E74726520666F746F00        .byte 'T,32,'e,'n,'t,'r,'e,32,'f,'o,'t,'o,0
 00EF           L419:
 00EF 3E496E74657276616C6F6D6574726F00  .byte 62,'I,'n,'t,'e,'r,'v,'a,'l,'o,'m,'e,'t,'r,'o,0
 00FF           L386:
 00FF 3E5469706F20646520646973702E00    .byte 62,'T,'i,'p,'o,32,'d,'e,32,'d,'i,'s,'p,46,0
 010E           L362:
 010E 3E43616D617261203200      .byte 62,'C,'a,'m,'a,'r,'a,32,50,0
 0118           L350:
 0118 54696D65204C6170736500    .byte 'T,'i,'m,'e,32,'L,'a,'p,'s,'e,0
 0123           L347:
 0123 496E74657276616C6F6D6574726F00    .byte 'I,'n,'t,'e,'r,'v,'a,'l,'o,'m,'e,'t,'r,'o,0
 0132           L344:
 0132 446973702E20556E69636F00  .byte 'D,'i,'s,'p,46,32,'U,'n,'i,'c,'o,0
 013E           L341:
 013E 4E6F206469737061726100    .byte 'N,'o,32,'d,'i,'s,'p,'a,'r,'a,0
 0149           L338:
 0149 3E43616D617261203100      .byte 62,'C,'a,'m,'a,'r,'a,32,49,0
 0153           L317:
 0153 322D43616D617261203200    .byte 50,45,'C,'a,'m,'a,'r,'a,32,50,0
 015E           L314:
 015E 312D43616D617261203100    .byte 49,45,'C,'a,'m,'a,'r,'a,32,49,0
 0169           L311:
 0169 3E436F6E662E204469737061726F00    .byte 62,'C,'o,'n,'f,46,32,'D,'i,'s,'p,'a,'r,'o,0
 0178           L295:
 0178 3E466C617368203400        .byte 62,'F,'l,'a,'s,'h,32,52,0
 0181           L279:
 0181 3E466C617368203300        .byte 62,'F,'l,'a,'s,'h,32,51,0
 018A           L263:
 018A 3E466C617368203200        .byte 62,'F,'l,'a,'s,'h,32,50,0
 0193           L247:
 0193 3E466C617368203100        .byte 62,'F,'l,'a,'s,'h,32,49,0
 019C           L222:
 019C 2020284F66662900  .byte 32,32,40,'O,'f,'f,41,0
 01A4           L219:
 01A4 342D466C617368203400      .byte 52,45,'F,'l,'a,'s,'h,32,52,0
 01AE           L214:
 01AE 332D466C617368203300      .byte 51,45,'F,'l,'a,'s,'h,32,51,0
 01B8           L209:
 01B8 322D466C617368203200      .byte 50,45,'F,'l,'a,'s,'h,32,50,0
 01C2           L206:
 01C2 20284F6E2900      .byte 32,40,'O,'n,41,0
 01C8           L205:
 01C8 20284F66662900    .byte 32,40,'O,'f,'f,41,0
 01CF           L202:
 01CF 312D466C617368203100      .byte 49,45,'F,'l,'a,'s,'h,32,49,0
 01D9           L199:
 01D9 3E436F6E662E20466C617368657300    .byte 62,'C,'o,'n,'f,46,32,'F,'l,'a,'s,'h,'e,'s,0
 01E8           L183:
 01E8 3E4469676974616C203220355600      .byte 62,'D,'i,'g,'i,'t,'a,'l,32,50,32,53,'V,0
 01F6           L167:
 01F6 3E4469676974616C203120355600      .byte 62,'D,'i,'g,'i,'t,'a,'l,32,49,32,53,'V,0
 0204           L151:
 0204 3E4261727265726120322031325600    .byte 62,'B,'a,'r,'r,'e,'r,'a,32,50,32,49,50,'V,0
 0213           L137:
 0213 4F4E00            .byte 'O,'N,0
 0216           L136:
 0216 4F464600          .byte 'O,'F,'F,0
 021A           L133:
 021A 3E4261727265726120312031325600    .byte 62,'B,'a,'r,'r,'e,'r,'a,32,49,32,49,50,'V,0
 0229           L108:
 0229 342D4469676974616C203220355600    .byte 52,45,'D,'i,'g,'i,'t,'a,'l,32,50,32,53,'V,0
 0238           L105:
 0238 332D4469676974616C203120355600    .byte 51,45,'D,'i,'g,'i,'t,'a,'l,32,49,32,53,'V,0
 0247           L102:
 0247 322D4261727265726120322031325600  .byte 50,45,'B,'a,'r,'r,'e,'r,'a,32,50,32,49,50,'V,0
 0257           L99:
 0257 312D4261727265726120312031325600  .byte 49,45,'B,'a,'r,'r,'e,'r,'a,32,49,32,49,50,'V,0
 0267           L96:
 0267 3E436F6E662E2053656E736F72657300  .byte 62,'C,'o,'n,'f,46,32,'S,'e,'n,'s,'o,'r,'e,'s,0
 0277           L69:
 0277 352D436F6E662E2053697374656D6100  .byte 53,45,'C,'o,'n,'f,46,32,'S,'i,'s,'t,'e,'m,'a,0
 0287           L66:
 0287 342D456A65637574617200    .byte 52,45,'E,'j,'e,'c,'u,'t,'a,'r,0
 0292           L63:
 0292 332D436F6E662E204469737061726F00  .byte 51,45,'C,'o,'n,'f,46,32,'D,'i,'s,'p,'a,'r,'o,0
 02A2           L60:
 02A2 322D436F6E662E20466C617368657300  .byte 50,45,'C,'o,'n,'f,46,32,'F,'l,'a,'s,'h,'e,'s,0
 02B2           L57:
 02B2 312D436F6E662E2053656E736F726573  .byte 49,45,'C,'o,'n,'f,46,32,'S,'e,'n,'s,'o,'r,'e,'s
 02C2 00                .byte 0
 02C3           L54:
 02C3 3E4D656E75205072696E636970616C00  .byte 62,'M,'e,'n,'u,32,'P,'r,'i,'n,'c,'i,'p,'a,'l,0
 02D3           L45:
 02D3 61202050686F746F536F4300  .byte 'a,32,32,'P,'h,'o,'t,'o,'S,'o,'C,0
 02DF           L44:
 02DF 4269656E76656E69646F7300  .byte 'B,'i,'e,'n,'v,'e,'n,'i,'d,'o,'s,0
