 0000                   cpu LMM
                        .module main.c
                        .area text(rom, con, rel)
 0000                   .dbfile ./comunicaciones.h
 0000                   .dbfunc e envia _envia fV
 0000           ;   envia_recibe -> X+2
 0000           ; envia_contador -> X+1
 0000           ; envia_confirmacion -> X+0
 0000           ;     envia_dato -> X-4
 0000           _envia::
 0000                   .dbline -1
 0000 10                push X
 0001 4F                mov X,SP
 0002 3803              add SP,3
 0004                   .dbline 19
 0004           ; //----------------------------------------------------------------//
 0004           ; //     Proyecto de GS Desarrollo Productos Electronicos EPSS    //
 0004           ; //                   By Albert Sagol & Xavi Vicient                         //
 0004           ; //                 PhotoSoC - Controlador fotográfico                   //
 0004           ; //----------------------------------------------------------------//
 0004           ; //              Programa principal del PSoC terminal                    //
 0004           ; //----------------------------------------------------------------//
 0004           ; 
 0004           ; #include <m8c.h>                      // part specific constants and macros
 0004           ; #include "PSoCAPI.h"                  // PSoC API definitions for all User Modules
 0004           ; #include "stdlib.h"
 0004           ; #include "terminal.h"                 // Libreria creada por Albert y Xavi para el proyecto
 0004           ; 
 0004           ; void main()
 0004           ; {     
 0004           ;       Inicializacion();                       //Rutina de inicialización de los perifericos
 0004           ;       Bienvenida();                           //Rutina que muestra el mensaje de bienvenida
 0004           ;       for (;;) Principal();           //Programa principal del PSoC terminal del PhotoSOC
 0004           ; }
 0004                   .dbline 22
 0004           ; }
 0004           ; }
 0004           ; }
 0004 560000            mov [X+0],0
 0007                   .dbline 23
 0007           ; }
 0007 560100            mov [X+1],0
 000A 8037              xjmp L3
 000C           L2:
 000C                   .dbline 26
 000C           ; }
 000C           ; }
 000C           ; }
 000C                   .dbline 27
 000C           ; }
 000C 10                push X
 000D 52FC              mov A,[X-4]
 000F 7C0000            xcall _UART_PutChar
 0012                   .dbline 28
 0012           ; }
 0012 7C0000            xcall _UART_cGetChar
 0015 62D000            mov REG[0xd0],>__r0
 0018 20                pop X
 0019 5402              mov [X+2],A
 001B                   .dbline 30
 001B           ; }
 001B           ; }
 001B 5202              mov A,[X+2]
 001D 3BFC              cmp A,[X-4]
 001F B004              jnz L5
 0021                   .dbline 30
 0021 56004F            mov [X+0],79
 0024           L5:
 0024                   .dbline 31
 0024           ; }
 0024 10                push X
 0025 5200              mov A,[X+0]
 0027 7C0000            xcall _UART_PutChar
 002A 20                pop X
 002B                   .dbline 32
 002B           ; }
 002B 5201              mov A,[X+1]
 002D 62D000            mov REG[0xd0],>__r0
 0030 5300              mov [__r0],A
 0032 0101              add A,1
 0034 5401              mov [X+1],A
 0036 5100              mov A,[__r0]
 0038 5401              mov [X+1],A
 003A                   .dbline 33
 003A           ; }
 003A 3D010A            cmp [X+1],10
 003D B004              jnz L7
 003F                   .dbline 33
 003F 560001            mov [X+0],1
 0042           L7:
 0042                   .dbline 34
 0042           L3:
 0042                   .dbline 25
 0042 3D0000            cmp [X+0],0
 0045 AFC6              jz L2
 0047                   .dbline -2
 0047                   .dbline 35
 0047           ; }
 0047           ; }
 0047           L1:
 0047 38FD              add SP,-3
 0049 20                pop X
 004A                   .dbline 0 ; func end
 004A 7F                ret
 004B                   .dbsym l envia_recibe 2 c
 004B                   .dbsym l envia_contador 1 c
 004B                   .dbsym l envia_confirmacion 0 c
 004B                   .dbsym l envia_dato -4 c
 004B                   .dbend
 004B                   .dbfunc e recibe _recibe fc
 004B           ;    recibe_dato -> X+2
 004B           ; recibe_contador -> X+1
 004B           ; recibe_confirmacion -> X+0
 004B           _recibe::
 004B                   .dbline -1
 004B 10                push X
 004C 4F                mov X,SP
 004D 3803              add SP,3
 004F                   .dbline 50
 004F           ; }
 004F           ; }
 004F           ; }
 004F           ; }
 004F           ; }
 004F           ; }
 004F           ; }
 004F           ; }
 004F           ; }
 004F           ; }
 004F           ; }
 004F           ; }
 004F           ; }
 004F           ; }
 004F           ; }
 004F                   .dbline 53
 004F           ; }
 004F           ; }
 004F           ; }
 004F 560000            mov [X+0],0
 0052                   .dbline 54
 0052           ; }
 0052 560100            mov [X+1],0
 0055 803A              xjmp L11
 0057           L10:
 0057                   .dbline 57
 0057           ; }
 0057           ; }
 0057           ; }
 0057                   .dbline 58
 0057           ; }
 0057 10                push X
 0058 7C0000            xcall _UART_cGetChar
 005B 62D000            mov REG[0xd0],>__r0
 005E 20                pop X
 005F 5402              mov [X+2],A
 0061                   .dbline 59
 0061           ; }
 0061 10                push X
 0062 5202              mov A,[X+2]
 0064 7C0000            xcall _UART_PutChar
 0067                   .dbline 61
 0067           ; }
 0067           ; }
 0067 7C0000            xcall _UART_cGetChar
 006A 62D000            mov REG[0xd0],>__r0
 006D 20                pop X
 006E 5400              mov [X+0],A
 0070                   .dbline 62
 0070           ; }
 0070 3D004F            cmp [X+0],79
 0073 B005              jnz L13
 0075                   .dbline 63
 0075           ; }
 0075 5202              mov A,[X+2]
 0077 8022              xjmp L9
 0079           L13:
 0079                   .dbline 64
 0079           ; }
 0079 5201              mov A,[X+1]
 007B 62D000            mov REG[0xd0],>__r0
 007E 5300              mov [__r0],A
 0080 0101              add A,1
 0082 5401              mov [X+1],A
 0084 5100              mov A,[__r0]
 0086 5401              mov [X+1],A
 0088                   .dbline 65
 0088           ; }
 0088 3D010A            cmp [X+1],10
 008B B004              jnz L15
 008D                   .dbline 65
 008D 560001            mov [X+0],1
 0090           L15:
 0090                   .dbline 66
 0090           L11:
 0090                   .dbline 56
 0090 3D0000            cmp [X+0],0
 0093 AFC3              jz L10
 0095                   .dbline 67
 0095           ; }
 0095           ; }
 0095 62D000            mov REG[0xd0],>__r0
 0098 50FF              mov A,-1
 009A                   .dbline -2
 009A           L9:
 009A 38FD              add SP,-3
 009C 20                pop X
 009D                   .dbline 0 ; func end
 009D 7F                ret
 009E                   .dbsym l recibe_dato 2 c
 009E                   .dbsym l recibe_contador 1 c
 009E                   .dbsym l recibe_confirmacion 0 c
 009E                   .dbend
                        .area data(ram, con, rel)
 0000                   .dbfile ./comunicaciones.h
 0000           _Cam1::
 0000 00                .byte 0
 0001                   .dbfile ./terminal.h
 0001                   .dbsym e Cam1 _Cam1 c
                        .area data(ram, con, rel)
 0000                   .dbfile ./terminal.h
                        .area data(ram, con, rel)
 0000                   .dbfile ./terminal.h
 0000           _Cam2::
 0000 00                .byte 0
 0001                   .dbsym e Cam2 _Cam2 c
                        .area data(ram, con, rel)
 0000                   .dbfile ./terminal.h
                        .area data(ram, con, rel)
 0000                   .dbfile ./terminal.h
 0000           _Ent1::
 0000 00                .byte 0
 0001                   .dbsym e Ent1 _Ent1 c
                        .area data(ram, con, rel)
 0000                   .dbfile ./terminal.h
                        .area data(ram, con, rel)
 0000                   .dbfile ./terminal.h
 0000           _Ent2::
 0000 00                .byte 0
 0001                   .dbsym e Ent2 _Ent2 c
                        .area data(ram, con, rel)
 0000                   .dbfile ./terminal.h
                        .area data(ram, con, rel)
 0000                   .dbfile ./terminal.h
 0000           _Ent3::
 0000 00                .byte 0
 0001                   .dbsym e Ent3 _Ent3 c
                        .area data(ram, con, rel)
 0000                   .dbfile ./terminal.h
                        .area data(ram, con, rel)
 0000                   .dbfile ./terminal.h
 0000           _Ent4::
 0000 00                .byte 0
 0001                   .dbsym e Ent4 _Ent4 c
                        .area data(ram, con, rel)
 0000                   .dbfile ./terminal.h
                        .area data(ram, con, rel)
 0000                   .dbfile ./terminal.h
 0000           _Fla1::
 0000 00                .byte 0
 0001                   .dbsym e Fla1 _Fla1 c
                        .area data(ram, con, rel)
 0000                   .dbfile ./terminal.h
                        .area data(ram, con, rel)
 0000                   .dbfile ./terminal.h
 0000           _Fla2::
 0000 00                .byte 0
 0001                   .dbsym e Fla2 _Fla2 c
                        .area data(ram, con, rel)
 0000                   .dbfile ./terminal.h
                        .area data(ram, con, rel)
 0000                   .dbfile ./terminal.h
 0000           _Fla3::
 0000 00                .byte 0
 0001                   .dbsym e Fla3 _Fla3 c
                        .area data(ram, con, rel)
 0000                   .dbfile ./terminal.h
                        .area data(ram, con, rel)
 0000                   .dbfile ./terminal.h
 0000           _Fla4::
 0000 00                .byte 0
 0001                   .dbsym e Fla4 _Fla4 c
                        .area data(ram, con, rel)
 0000                   .dbfile ./terminal.h
                        .area data(ram, con, rel)
 0000                   .dbfile ./terminal.h
 0000           _Int1_Tdisp::
 0000 00                .byte 0
 0001                   .dbsym e Int1_Tdisp _Int1_Tdisp c
                        .area data(ram, con, rel)
 0000                   .dbfile ./terminal.h
                        .area data(ram, con, rel)
 0000                   .dbfile ./terminal.h
 0000           _Int1_Tdisp_Uni::
 0000 00                .byte 0
 0001                   .dbsym e Int1_Tdisp_Uni _Int1_Tdisp_Uni c
                        .area data(ram, con, rel)
 0000                   .dbfile ./terminal.h
                        .area data(ram, con, rel)
 0000                   .dbfile ./terminal.h
 0000           _Int1_Ndisp::
 0000 00                .byte 0
 0001                   .dbsym e Int1_Ndisp _Int1_Ndisp c
                        .area data(ram, con, rel)
 0000                   .dbfile ./terminal.h
                        .area data(ram, con, rel)
 0000                   .dbfile ./terminal.h
 0000           _Int2_Tdisp::
 0000 00                .byte 0
 0001                   .dbsym e Int2_Tdisp _Int2_Tdisp c
                        .area data(ram, con, rel)
 0000                   .dbfile ./terminal.h
                        .area data(ram, con, rel)
 0000                   .dbfile ./terminal.h
 0000           _Int2_Tdisp_Uni::
 0000 00                .byte 0
 0001                   .dbsym e Int2_Tdisp_Uni _Int2_Tdisp_Uni c
                        .area data(ram, con, rel)
 0000                   .dbfile ./terminal.h
                        .area data(ram, con, rel)
 0000                   .dbfile ./terminal.h
 0000           _Int2_Ndisp::
 0000 00                .byte 0
 0001                   .dbsym e Int2_Ndisp _Int2_Ndisp c
                        .area data(ram, con, rel)
 0000                   .dbfile ./terminal.h
                        .area data(ram, con, rel)
 0000                   .dbfile ./terminal.h
 0000           _TL1_Treal::
 0000 00                .byte 0
 0001                   .dbsym e TL1_Treal _TL1_Treal c
                        .area data(ram, con, rel)
 0000                   .dbfile ./terminal.h
                        .area data(ram, con, rel)
 0000                   .dbfile ./terminal.h
 0000           _TL1_Treal_Uni::
 0000 00                .byte 0
 0001                   .dbsym e TL1_Treal_Uni _TL1_Treal_Uni c
                        .area data(ram, con, rel)
 0000                   .dbfile ./terminal.h
                        .area data(ram, con, rel)
 0000                   .dbfile ./terminal.h
 0000           _TL1_Tfilm::
 0000 00                .byte 0
 0001                   .dbsym e TL1_Tfilm _TL1_Tfilm c
                        .area data(ram, con, rel)
 0000                   .dbfile ./terminal.h
                        .area data(ram, con, rel)
 0000                   .dbfile ./terminal.h
 0000           _TL1_Tfilm_Uni::
 0000 00                .byte 0
 0001                   .dbsym e TL1_Tfilm_Uni _TL1_Tfilm_Uni c
                        .area data(ram, con, rel)
 0000                   .dbfile ./terminal.h
                        .area data(ram, con, rel)
 0000                   .dbfile ./terminal.h
 0000           _TL2_Treal::
 0000 00                .byte 0
 0001                   .dbsym e TL2_Treal _TL2_Treal c
                        .area data(ram, con, rel)
 0000                   .dbfile ./terminal.h
                        .area data(ram, con, rel)
 0000                   .dbfile ./terminal.h
 0000           _TL2_Treal_Uni::
 0000 00                .byte 0
 0001                   .dbsym e TL2_Treal_Uni _TL2_Treal_Uni c
                        .area data(ram, con, rel)
 0000                   .dbfile ./terminal.h
                        .area data(ram, con, rel)
 0000                   .dbfile ./terminal.h
 0000           _TL2_Tfilm::
 0000 00                .byte 0
 0001                   .dbsym e TL2_Tfilm _TL2_Tfilm c
                        .area data(ram, con, rel)
 0000                   .dbfile ./terminal.h
                        .area data(ram, con, rel)
 0000                   .dbfile ./terminal.h
 0000           _TL2_Tfilm_Uni::
 0000 00                .byte 0
 0001                   .dbsym e TL2_Tfilm_Uni _TL2_Tfilm_Uni c
                        .area data(ram, con, rel)
 0000                   .dbfile ./terminal.h
                        .area data(ram, con, rel)
 0000                   .dbfile ./terminal.h
 0000           _Luz_LCD::
 0000 00                .byte 0
 0001                   .dbsym e Luz_LCD _Luz_LCD c
                        .area data(ram, con, rel)
 0000                   .dbfile ./terminal.h
                        .area data(ram, con, rel)
 0000                   .dbfile ./terminal.h
 0000           _Buzzer::
 0000 00                .byte 0
 0001                   .dbsym e Buzzer _Buzzer c
                        .area data(ram, con, rel)
 0000                   .dbfile ./terminal.h
                        .area data(ram, con, rel)
 0000                   .dbfile ./terminal.h
 0000           _Alimentacion::
 0000 00                .byte 0
 0001                   .dbsym e Alimentacion _Alimentacion c
                        .area data(ram, con, rel)
 0000                   .dbfile ./terminal.h
                        .area text(rom, con, rel)
 009E                   .dbfile ./terminal.h
 009E                   .dbfunc e Inicializacion _Inicializacion fV
 009E           _Inicializacion::
 009E                   .dbline -1
 009E                   .dbline 80
 009E           ; }
 009E           ; }
 009E           ; }
 009E           ; }
 009E           ; }
 009E           ; }
 009E           ; }
 009E           ; }
 009E           ; }
 009E           ; }
 009E           ; }
 009E           ; }
 009E           ; }
 009E                   .dbline 82
 009E           ; }
 009E           ; }
 009E 10                push X
 009F 509C              mov A,-100
 00A1 7C0000            xcall _Timer8_WritePeriod
 00A4                   .dbline 83
 00A4           ; }
 00A4 504E              mov A,78
 00A6 7C0000            xcall _Timer8_WriteCompareValue
 00A9                   .dbline 84
 00A9           ; }
 00A9 7C0000            xcall _Timer8_Start
 00AC                   .dbline 87
 00AC           ; }
 00AC           ; }
 00AC           ; }
 00AC 5000              mov A,0
 00AE 7C0000            xcall _UART_Start
 00B1                   .dbline 90
 00B1           ; }
 00B1           ; }
 00B1           ; }
 00B1 7C0000            xcall _LCD_Start
 00B4                   .dbline 91
 00B4           ; }
 00B4 7C0000            xcall _LCD_Init
 00B7 20                pop X
 00B8                   .dbline 94
 00B8           ; }
 00B8           ; }
 00B8           ; }
 00B8 6200A0            mov REG[ 0],-96
 00BB                   .dbline -2
 00BB                   .dbline 95
 00BB           ; }
 00BB           L17:
 00BB                   .dbline 0 ; func end
 00BB 7F                ret
 00BC                   .dbend
 00BC                   .dbfunc e Bienvenida _Bienvenida fV
 00BC           _Bienvenida::
 00BC                   .dbline -1
 00BC                   .dbline 113
 00BC           ; }
 00BC           ; }
 00BC           ; }
 00BC           ; }
 00BC           ; }
 00BC           ; }
 00BC           ; }
 00BC           ; }
 00BC           ; }
 00BC           ; }
 00BC           ; }
 00BC           ; }
 00BC           ; }
 00BC           ; }
 00BC           ; }
 00BC           ; }
 00BC           ; }
 00BC           ; }
 00BC                   .dbline 114
 00BC           ; }
 00BC 10                push X
 00BD 5001              mov A,1
 00BF 7C0000            xcall _LCD_Control
 00C2                   .dbline 115
 00C2           ; }
 00C2 5701              mov X,1
 00C4 5000              mov A,0
 00C6 7C0000            xcall _LCD_Position
 00C9                   .dbline 116
 00C9           ; }
 00C9 5090              mov A,>L19
 00CB 08                push A
 00CC 5090              mov A,<L19
 00CE 5C                mov X,A
 00CF 18                pop A
 00D0 7C0000            xcall _LCD_PrCString
 00D3                   .dbline 117
 00D3           ; }
 00D3 5703              mov X,3
 00D5 5001              mov A,1
 00D7 7C0000            xcall _LCD_Position
 00DA                   .dbline 118
 00DA           ; }
 00DA 5084              mov A,>L20
 00DC 08                push A
 00DD 5084              mov A,<L20
 00DF 5C                mov X,A
 00E0 18                pop A
 00E1 7C0000            xcall _LCD_PrCString
 00E4 20                pop X
 00E5                   .dbline 119
 00E5           ; }
 00E5 9001              xcall _bucle_temp
 00E7                   .dbline -2
 00E7                   .dbline 120
 00E7           ; }
 00E7           L18:
 00E7                   .dbline 0 ; func end
 00E7 7F                ret
 00E8                   .dbend
 00E8                   .dbfunc e bucle_temp _bucle_temp fV
 00E8           ;              x -> X+0
 00E8           _bucle_temp::
 00E8                   .dbline -1
 00E8 10                push X
 00E9 4F                mov X,SP
 00EA 3802              add SP,2
 00EC                   .dbline 129
 00EC           ; }
 00EC           ; }
 00EC           ; }
 00EC           ; }
 00EC           ; }
 00EC           ; }
 00EC           ; }
 00EC           ; }
 00EC           ; }
 00EC                   .dbline 132
 00EC 560100            mov [X+1],0
 00EF 560000            mov [X+0],0
 00F2 8006              xjmp L25
 00F4           L22:
 00F4                   .dbline 132
 00F4           L23:
 00F4                   .dbline 132
 00F4 7701              inc [X+1]
 00F6 0F0000            adc [X+0],0
 00F9           L25:
 00F9                   .dbline 132
 00F9           ; }
 00F9           ; }
 00F9           ; }
 00F9 62D000            mov REG[0xd0],>__r0
 00FC 5201              mov A,[X+1]
 00FE 5300              mov [__r3],A
 0100 5200              mov A,[X+0]
 0102 5300              mov [__r2],A
 0104 5100              mov A,[__r3]
 0106 11B8              sub A,-72
 0108 5100              mov A,[__r2]
 010A 1988              sbb A,-120
 010C 5000              mov A,0
 010E 1900              sbb A,0
 0110 5000              mov A,0
 0112 3180              xor A,-128
 0114 1980              sbb A,(0 ^ 0x80)
 0116 CFDD              jc L22
 0118           X0:
 0118                   .dbline -2
 0118                   .dbline 133
 0118           ; }
 0118           L21:
 0118 38FE              add SP,-2
 011A 20                pop X
 011B                   .dbline 0 ; func end
 011B 7F                ret
 011C                   .dbsym l x 0 i
 011C                   .dbend
 011C                   .dbfunc e Principal _Principal fV
 011C           ;              x -> X+1
 011C           ;          boton -> X+0
 011C           _Principal::
 011C                   .dbline -1
 011C 10                push X
 011D 4F                mov X,SP
 011E 3803              add SP,3
 0120                   .dbline 145
 0120           ; }
 0120           ; }
 0120           ; }
 0120           ; }
 0120           ; }
 0120           ; }
 0120           ; }
 0120           ; }
 0120           ; }
 0120           ; }
 0120           ; }
 0120           ; }
 0120                   .dbline 149
 0120           ; }
 0120           ; }
 0120           ; }
 0120           ; }
 0120 9068              xcall _Pulsador
 0122 5400              mov [X+0],A
 0124                   .dbline 150
 0124           ; }
 0124 62D000            mov REG[0xd0],>_Buzzer
 0127 3C0001            cmp [_Buzzer],1
 012A B003              jnz L27
 012C                   .dbline 150
 012C 900B              xcall _Pitido
 012E           L27:
 012E                   .dbline 151
 012E 3D0000            cmp [X+0],0
 0131 A003              jz L29
 0133                   .dbline 152
 0133                   .dbline 153
 0133 90F7              xcall _Menu
 0135                   .dbline 154
 0135           L29:
 0135                   .dbline -2
 0135                   .dbline 155
 0135           ; }
 0135           ; }
 0135           ; }
 0135           ; }
 0135           ; }
 0135           L26:
 0135 38FD              add SP,-3
 0137 20                pop X
 0138                   .dbline 0 ; func end
 0138 7F                ret
 0139                   .dbsym l x 1 i
 0139                   .dbsym l boton 0 c
 0139                   .dbend
 0139                   .dbfunc e Pitido _Pitido fV
 0139           ;             xx -> X+0
 0139           _Pitido::
 0139                   .dbline -1
 0139 10                push X
 013A 4F                mov X,SP
 013B 3802              add SP,2
 013D                   .dbline 166
 013D           ; }
 013D           ; }
 013D           ; }
 013D           ; }
 013D           ; }
 013D           ; }
 013D           ; }
 013D           ; }
 013D           ; }
 013D           ; }
 013D           ; }
 013D                   .dbline 169
 013D           ; }
 013D           ; }
 013D           ; }
 013D 430008            or REG[ 0],8
 0140                   .dbline 170
 0140 560100            mov [X+1],0
 0143 560000            mov [X+0],0
 0146           L32:
 0146                   .dbline 170
 0146 5D00              mov A,REG[ 0]
 0148 62D000            mov REG[0xd0],>__r0
 014B 6000              mov REG[ 0],A
 014D           L33:
 014D                   .dbline 170
 014D           ; }
 014D 7701              inc [X+1]
 014F 0F0000            adc [X+0],0
 0152                   .dbline 170
 0152 5201              mov A,[X+1]
 0154 11A0              sub A,-96
 0156 5200              mov A,[X+0]
 0158 3180              xor A,-128
 015A 198F              sbb A,(15 ^ 0x80)
 015C CFE9              jc L32
 015E           X1:
 015E                   .dbline 171
 015E           ; }
 015E 4100F7            and REG[ 0],-9
 0161                   .dbline -2
 0161                   .dbline 172
 0161           ; }
 0161           L31:
 0161 38FE              add SP,-2
 0163 20                pop X
 0164                   .dbline 0 ; func end
 0164 7F                ret
 0165                   .dbsym l xx 0 I
 0165                   .dbend
 0165                   .dbfunc e Reset_PdT _Reset_PdT fV
 0165           ;              x -> X+0
 0165           _Reset_PdT::
 0165                   .dbline -1
 0165 10                push X
 0166 4F                mov X,SP
 0167 3802              add SP,2
 0169                   .dbline 188
 0169           ; }
 0169           ; }
 0169           ; }
 0169           ; }
 0169           ; }
 0169           ; }
 0169           ; }
 0169           ; }
 0169           ; }
 0169           ; }
 0169           ; }
 0169           ; }
 0169           ; }
 0169           ; }
 0169           ; }
 0169           ; }
 0169                   .dbline 191
 0169           ; }
 0169           ; }
 0169           ; }
 0169 430004            or REG[ 0],4
 016C                   .dbline 192
 016C 560100            mov [X+1],0
 016F 560000            mov [X+0],0
 0172           L37:
 0172                   .dbline 192
 0172           L38:
 0172                   .dbline 192
 0172           ; }
 0172 7701              inc [X+1]
 0174 0F0000            adc [X+0],0
 0177                   .dbline 192
 0177 5201              mov A,[X+1]
 0179 11EE              sub A,-18
 017B 5200              mov A,[X+0]
 017D 3180              xor A,-128
 017F 1982              sbb A,(2 ^ 0x80)
 0181 CFF0              jc L37
 0183           X2:
 0183                   .dbline 193
 0183           ; }
 0183 4100FB            and REG[ 0],-5
 0186                   .dbline -2
 0186                   .dbline 194
 0186           ; }
 0186           L36:
 0186 38FE              add SP,-2
 0188 20                pop X
 0189                   .dbline 0 ; func end
 0189 7F                ret
 018A                   .dbsym l x 0 I
 018A                   .dbend
 018A                   .dbfunc e Pulsador _Pulsador fc
 018A           ;          aviso -> X+3
 018A           ;        pulsado -> X+2
 018A           ;              x -> X+0
 018A           _Pulsador::
 018A                   .dbline -1
 018A 10                push X
 018B 4F                mov X,SP
 018C 3804              add SP,4
 018E                   .dbline 208
 018E           ; }
 018E           ; }
 018E           ; }
 018E           ; }
 018E           ; }
 018E           ; }
 018E           ; }
 018E           ; }
 018E           ; }
 018E           ; }
 018E           ; }
 018E           ; }
 018E           ; }
 018E           ; }
 018E                   .dbline 212
 018E           ; }
 018E           ; }
 018E           ; }
 018E           ; }
 018E 560200            mov [X+2],0
 0191           L42:
 0191                   .dbline 216
 0191           ; }
 0191           ; }
 0191           ; }
 0191           ; }
 0191                   .dbline 217
 0191           ; }
 0191 10                push X
 0192 7C0000            xcall _UART_cReadChar
 0195 62D000            mov REG[0xd0],>__r0
 0198 20                pop X
 0199 5403              mov [X+3],A
 019B                   .dbline 218
 019B           ; }
 019B 3D03FF            cmp [X+3],-1
 019E B001              jnz L45
 01A0                   .dbline 218
 01A0           L45:
 01A0                   .dbline 219
 01A0           ; }
 01A0 5D00              mov A,REG[ 0]
 01A2 62D000            mov REG[0xd0],>__r0
 01A5 5300              mov [__r0],A
 01A7 2600A0            and [__r0],-96
 01AA 3C0020            cmp [__r0],32
 01AD B004              jnz L47
 01AF                   .dbline 219
 01AF 560201            mov [X+2],1
 01B2           L47:
 01B2                   .dbline 220
 01B2           ; }
 01B2 5D00              mov A,REG[ 0]
 01B4 62D000            mov REG[0xd0],>__r0
 01B7 5300              mov [__r0],A
 01B9 2600A0            and [__r0],-96
 01BC 3C0080            cmp [__r0],-128
 01BF B004              jnz L49
 01C1                   .dbline 220
 01C1 560202            mov [X+2],2
 01C4           L49:
 01C4                   .dbline 221
 01C4           ; }
 01C4 3D0200            cmp [X+2],0
 01C7 A048              jz L51
 01C9                   .dbline 222
 01C9           ; }
 01C9                   .dbline 223
 01C9 560100            mov [X+1],0
 01CC 560000            mov [X+0],0
 01CF 8006              xjmp L56
 01D1           L53:
 01D1                   .dbline 223
 01D1           L54:
 01D1                   .dbline 223
 01D1 7701              inc [X+1]
 01D3 0F0000            adc [X+0],0
 01D6           L56:
 01D6                   .dbline 223
 01D6           ; }
 01D6 5201              mov A,[X+1]
 01D8 1164              sub A,100
 01DA 5200              mov A,[X+0]
 01DC 1900              sbb A,0
 01DE CFF2              jc L53
 01E0           X3:
 01E0                   .dbline 224
 01E0           ; }
 01E0 560100            mov [X+1],0
 01E3 560000            mov [X+0],0
 01E6 801C              xjmp L60
 01E8           L57:
 01E8                   .dbline 225
 01E8           ; }
 01E8                   .dbline 226
 01E8           ; }
 01E8 5D00              mov A,REG[ 0]
 01EA 62D000            mov REG[0xd0],>__r0
 01ED 5300              mov [__r0],A
 01EF 2600A0            and [__r0],-96
 01F2 3C00A0            cmp [__r0],-96
 01F5 B005              jnz L61
 01F7                   .dbline 226
 01F7 5202              mov A,[X+2]
 01F9 802E              xjmp L41
 01FB           L61:
 01FB                   .dbline 227
 01FB 4300A0            or REG[ 0],-96
 01FE                   .dbline 228
 01FE           L58:
 01FE                   .dbline 224
 01FE 7701              inc [X+1]
 0200 0F0000            adc [X+0],0
 0203           L60:
 0203                   .dbline 224
 0203 5201              mov A,[X+1]
 0205 1130              sub A,48
 0207 5200              mov A,[X+0]
 0209 1975              sbb A,117
 020B CFDC              jc L57
 020D           X4:
 020D                   .dbline 229
 020D           ; }
 020D           ; }
 020D           ; }
 020D 070202            add [X+2],2
 0210                   .dbline 230
 0210           ; }
 0210           L51:
 0210                   .dbline 231
 0210           ; }
 0210 10                push X
 0211 7C0000            xcall _UART_cReadChar
 0214 62D000            mov REG[0xd0],>__r0
 0217 20                pop X
 0218 39FB              cmp A,-5
 021A B003              jnz L63
 021C                   .dbline 231
 021C 9EFE              xcall _Principal
 021E           L63:
 021E                   .dbline 232
 021E           L43:
 021E                   .dbline 232
 021E           ; }
 021E 3D0200            cmp [X+2],0
 0221 AF6F              jz L42
 0223                   .dbline 233
 0223           ; }
 0223 5202              mov A,[X+2]
 0225 62D000            mov REG[0xd0],>__r0
 0228                   .dbline -2
 0228           L41:
 0228 38FC              add SP,-4
 022A 20                pop X
 022B                   .dbline 0 ; func end
 022B 7F                ret
 022C                   .dbsym l aviso 3 c
 022C                   .dbsym l pulsado 2 c
 022C                   .dbsym l x 0 i
 022C                   .dbend
 022C                   .dbfunc e Menu _Menu fV
 022C           ;              x -> X+2
 022C           ;         pulsat -> X+1
 022C           ;          index -> X+0
 022C           _Menu::
 022C                   .dbline -1
 022C 10                push X
 022D 4F                mov X,SP
 022E 3804              add SP,4
 0230                   .dbline 244
 0230           ; }
 0230           ; }
 0230           ; }
 0230           ; }
 0230           ; }
 0230           ; }
 0230           ; }
 0230           ; }
 0230           ; }
 0230           ; }
 0230           ; }
 0230                   .dbline 245
 0230           ; }
 0230 560001            mov [X+0],1
 0233           L66:
 0233                   .dbline 249
 0233           ; }
 0233           ; }
 0233           ; }
 0233           ; }
 0233                   .dbline 250
 0233           ; }
 0233 10                push X
 0234 5001              mov A,1
 0236 7C0000            xcall _LCD_Control
 0239                   .dbline 251
 0239           ; }
 0239 5074              mov A,>L69
 023B 08                push A
 023C 5074              mov A,<L69
 023E 5C                mov X,A
 023F 18                pop A
 0240 7C0000            xcall _LCD_PrCString
 0243                   .dbline 252
 0243           ; }
 0243 5700              mov X,0
 0245 5001              mov A,1
 0247 7C0000            xcall _LCD_Position
 024A 20                pop X
 024B                   .dbline 253
 024B           ; }
 024B 3D0001            cmp [X+0],1
 024E B00F              jnz L70
 0250                   .dbline 253
 0250 10                push X
 0251 5063              mov A,>L72
 0253 08                push A
 0254 5063              mov A,<L72
 0256 5C                mov X,A
 0257 18                pop A
 0258 7C0000            xcall _LCD_PrCString
 025B 20                pop X
 025C 804B              xjmp L71
 025E           L70:
 025E                   .dbline 254
 025E           ; }
 025E 3D0002            cmp [X+0],2
 0261 B00F              jnz L73
 0263                   .dbline 254
 0263 10                push X
 0264 5053              mov A,>L75
 0266 08                push A
 0267 5053              mov A,<L75
 0269 5C                mov X,A
 026A 18                pop A
 026B 7C0000            xcall _LCD_PrCString
 026E 20                pop X
 026F 8038              xjmp L74
 0271           L73:
 0271                   .dbline 255
 0271           ; }
 0271 3D0003            cmp [X+0],3
 0274 B00F              jnz L76
 0276                   .dbline 255
 0276 10                push X
 0277 5043              mov A,>L78
 0279 08                push A
 027A 5043              mov A,<L78
 027C 5C                mov X,A
 027D 18                pop A
 027E 7C0000            xcall _LCD_PrCString
 0281 20                pop X
 0282 8025              xjmp L77
 0284           L76:
 0284                   .dbline 256
 0284           ; }
 0284 3D0004            cmp [X+0],4
 0287 B00F              jnz L79
 0289                   .dbline 256
 0289 10                push X
 028A 5038              mov A,>L81
 028C 08                push A
 028D 5038              mov A,<L81
 028F 5C                mov X,A
 0290 18                pop A
 0291 7C0000            xcall _LCD_PrCString
 0294 20                pop X
 0295 8012              xjmp L80
 0297           L79:
 0297                   .dbline 257
 0297           ; }
 0297 3D0005            cmp [X+0],5
 029A B00D              jnz L82
 029C                   .dbline 257
 029C 10                push X
 029D 5028              mov A,>L84
 029F 08                push A
 02A0 5028              mov A,<L84
 02A2 5C                mov X,A
 02A3 18                pop A
 02A4 7C0000            xcall _LCD_PrCString
 02A7 20                pop X
 02A8           L82:
 02A8           L80:
 02A8           L77:
 02A8           L74:
 02A8           L71:
 02A8                   .dbline 258
 02A8           ; }
 02A8 9E3E              xcall _bucle_temp
 02AA                   .dbline 259
 02AA           ; }
 02AA 9EDE              xcall _Pulsador
 02AC 5401              mov [X+1],A
 02AE                   .dbline 260
 02AE           ; }
 02AE 62D000            mov REG[0xd0],>_Buzzer
 02B1 3C0001            cmp [_Buzzer],1
 02B4 B003              jnz L85
 02B6                   .dbline 260
 02B6 9E81              xcall _Pitido
 02B8           L85:
 02B8                   .dbline 261
 02B8           ; }
 02B8 3D0101            cmp [X+1],1
 02BB B019              jnz L87
 02BD                   .dbline 262
 02BD           ; }
 02BD                   .dbline 263
 02BD           ; }
 02BD 62D000            mov REG[0xd0],>__r0
 02C0 5200              mov A,[X+0]
 02C2 0101              add A,1
 02C4 5300              mov [__r0],A
 02C6 5005              mov A,5
 02C8 3A00              cmp A,[__r0]
 02CA D006              jnc L89
 02CC           X5:
 02CC                   .dbline 263
 02CC 560001            mov [X+0],1
 02CF 8051              xjmp L88
 02D1           L89:
 02D1                   .dbline 264
 02D1           ; }
 02D1 7700              inc [X+0]
 02D3                   .dbline 265
 02D3           ; }
 02D3 804D              xjmp L88
 02D5           L87:
 02D5                   .dbline 266
 02D5           ; }
 02D5 3D0103            cmp [X+1],3
 02D8 B031              jnz L91
 02DA                   .dbline 267
 02DA           ; }
 02DA                   .dbline 268
 02DA           ; }
 02DA 3D0001            cmp [X+0],1
 02DD B005              jnz L93
 02DF                   .dbline 268
 02DF 9049              xcall _Sensors
 02E1 803F              xjmp L92
 02E3           L93:
 02E3                   .dbline 269
 02E3           ; }
 02E3 3D0002            cmp [X+0],2
 02E6 B005              jnz L95
 02E8                   .dbline 269
 02E8 9327              xcall _Flashes
 02EA 8036              xjmp L92
 02EC           L95:
 02EC                   .dbline 270
 02EC           ; }
 02EC 3D0003            cmp [X+0],3
 02EF B006              jnz L97
 02F1                   .dbline 270
 02F1 7C0B61            xcall _Dispar
 02F4 802C              xjmp L92
 02F6           L97:
 02F6                   .dbline 271
 02F6           ; }
 02F6 3D0004            cmp [X+0],4
 02F9 B006              jnz L99
 02FB                   .dbline 271
 02FB 7C1216            xcall _Executar
 02FE 8022              xjmp L92
 0300           L99:
 0300                   .dbline 272
 0300           ; }
 0300 3D0005            cmp [X+0],5
 0303 B01D              jnz L92
 0305                   .dbline 272
 0305 7C1513            xcall _Sistema
 0308                   .dbline 273
 0308           ; }
 0308 8018              xjmp L92
 030A           L91:
 030A                   .dbline 274
 030A           ; }
 030A 3D0102            cmp [X+1],2
 030D B013              jnz L103
 030F                   .dbline 275
 030F           ; }
 030F                   .dbline 276
 030F           ; }
 030F 62D000            mov REG[0xd0],>__r0
 0312 5200              mov A,[X+0]
 0314 1101              sub A,1
 0316 3901              cmp A,1
 0318 D006              jnc L105
 031A           X6:
 031A                   .dbline 276
 031A 560005            mov [X+0],5
 031D 8003              xjmp L106
 031F           L105:
 031F                   .dbline 277
 031F           ; }
 031F 7B00              dec [X+0]
 0321           L106:
 0321                   .dbline 278
 0321           ; }
 0321           L103:
 0321           L92:
 0321           L88:
 0321                   .dbline 279
 0321           L67:
 0321                   .dbline 279
 0321           ; }
 0321 3D0104            cmp [X+1],4
 0324 BF0E              jnz L66
 0326                   .dbline -2
 0326                   .dbline 280
 0326           ; }
 0326           L65:
 0326 38FC              add SP,-4
 0328 20                pop X
 0329                   .dbline 0 ; func end
 0329 7F                ret
 032A                   .dbsym l x 2 i
 032A                   .dbsym l pulsat 1 c
 032A                   .dbsym l index 0 c
 032A                   .dbend
 032A                   .dbfunc e Sensors _Sensors fV
 032A           ;              x -> X+2
 032A           ;           menu -> X+1
 032A           ;         pulsat -> X+0
 032A           _Sensors::
 032A                   .dbline -1
 032A 10                push X
 032B 4F                mov X,SP
 032C 3804              add SP,4
 032E                   .dbline 290
 032E           ; }
 032E           ; }
 032E           ; }
 032E           ; }
 032E           ; }
 032E           ; }
 032E           ; }
 032E           ; }
 032E           ; }
 032E           ; }
 032E                   .dbline 291
 032E           ; }
 032E 560101            mov [X+1],1
 0331           L108:
 0331                   .dbline 295
 0331           ; }
 0331           ; }
 0331           ; }
 0331           ; }
 0331                   .dbline 296
 0331           ; }
 0331 10                push X
 0332 5001              mov A,1
 0334 7C0000            xcall _LCD_Control
 0337                   .dbline 297
 0337           ; }
 0337 5018              mov A,>L111
 0339 08                push A
 033A 5018              mov A,<L111
 033C 5C                mov X,A
 033D 18                pop A
 033E 7C0000            xcall _LCD_PrCString
 0341                   .dbline 298
 0341           ; }
 0341 5700              mov X,0
 0343 5001              mov A,1
 0345 7C0000            xcall _LCD_Position
 0348 20                pop X
 0349                   .dbline 299
 0349           ; }
 0349 3D0101            cmp [X+1],1
 034C B00F              jnz L112
 034E                   .dbline 299
 034E 10                push X
 034F 5008              mov A,>L114
 0351 08                push A
 0352 5008              mov A,<L114
 0354 5C                mov X,A
 0355 18                pop A
 0356 7C0000            xcall _LCD_PrCString
 0359 20                pop X
 035A 8038              xjmp L113
 035C           L112:
 035C                   .dbline 300
 035C           ; }
 035C 3D0102            cmp [X+1],2
 035F B00F              jnz L115
 0361                   .dbline 300
 0361 10                push X
 0362 50F8              mov A,>L117
 0364 08                push A
 0365 50F8              mov A,<L117
 0367 5C                mov X,A
 0368 18                pop A
 0369 7C0000            xcall _LCD_PrCString
 036C 20                pop X
 036D 8025              xjmp L116
 036F           L115:
 036F                   .dbline 301
 036F           ; }
 036F 3D0103            cmp [X+1],3
 0372 B00F              jnz L118
 0374                   .dbline 301
 0374 10                push X
 0375 50E9              mov A,>L120
 0377 08                push A
 0378 50E9              mov A,<L120
 037A 5C                mov X,A
 037B 18                pop A
 037C 7C0000            xcall _LCD_PrCString
 037F 20                pop X
 0380 8012              xjmp L119
 0382           L118:
 0382                   .dbline 302
 0382           ; }
 0382 3D0104            cmp [X+1],4
 0385 B00D              jnz L121
 0387                   .dbline 302
 0387 10                push X
 0388 50DA              mov A,>L123
 038A 08                push A
 038B 50DA              mov A,<L123
 038D 5C                mov X,A
 038E 18                pop A
 038F 7C0000            xcall _LCD_PrCString
 0392 20                pop X
 0393           L121:
 0393           L119:
 0393           L116:
 0393           L113:
 0393                   .dbline 303
 0393           ; }
 0393 9D53              xcall _bucle_temp
 0395                   .dbline 304
 0395           ; }
 0395 9DF3              xcall _Pulsador
 0397 5400              mov [X+0],A
 0399                   .dbline 305
 0399           ; }
 0399 62D000            mov REG[0xd0],>_Buzzer
 039C 3C0001            cmp [_Buzzer],1
 039F B003              jnz L124
 03A1                   .dbline 305
 03A1 9D96              xcall _Pitido
 03A3           L124:
 03A3                   .dbline 306
 03A3           ; }
 03A3 3D0001            cmp [X+0],1
 03A6 B019              jnz L126
 03A8                   .dbline 307
 03A8           ; }
 03A8                   .dbline 308
 03A8           ; }
 03A8 62D000            mov REG[0xd0],>__r0
 03AB 5201              mov A,[X+1]
 03AD 0101              add A,1
 03AF 5300              mov [__r0],A
 03B1 5004              mov A,4
 03B3 3A00              cmp A,[__r0]
 03B5 D006              jnc L128
 03B7           X7:
 03B7                   .dbline 308
 03B7 560101            mov [X+1],1
 03BA 8045              xjmp L127
 03BC           L128:
 03BC                   .dbline 309
 03BC           ; }
 03BC 7701              inc [X+1]
 03BE                   .dbline 310
 03BE           ; }
 03BE 8041              xjmp L127
 03C0           L126:
 03C0                   .dbline 311
 03C0           ; }
 03C0 3D0003            cmp [X+0],3
 03C3 B025              jnz L130
 03C5                   .dbline 312
 03C5           ; }
 03C5                   .dbline 313
 03C5           ; }
 03C5 3D0101            cmp [X+1],1
 03C8 B005              jnz L132
 03CA                   .dbline 313
 03CA 903D              xcall _Entrada1
 03CC 8033              xjmp L131
 03CE           L132:
 03CE                   .dbline 314
 03CE           ; }
 03CE 3D0102            cmp [X+1],2
 03D1 B005              jnz L134
 03D3                   .dbline 314
 03D3 90B6              xcall _Entrada2
 03D5 802A              xjmp L131
 03D7           L134:
 03D7                   .dbline 315
 03D7           ; }
 03D7 3D0103            cmp [X+1],3
 03DA B005              jnz L136
 03DC                   .dbline 315
 03DC 912F              xcall _Entrada3
 03DE 8021              xjmp L131
 03E0           L136:
 03E0                   .dbline 316
 03E0           ; }
 03E0 3D0104            cmp [X+1],4
 03E3 B01C              jnz L131
 03E5                   .dbline 316
 03E5 91A8              xcall _Entrada4
 03E7                   .dbline 317
 03E7           ; }
 03E7 8018              xjmp L131
 03E9           L130:
 03E9                   .dbline 318
 03E9           ; }
 03E9 3D0002            cmp [X+0],2
 03EC B013              jnz L140
 03EE                   .dbline 319
 03EE           ; }
 03EE                   .dbline 320
 03EE           ; }
 03EE 62D000            mov REG[0xd0],>__r0
 03F1 5201              mov A,[X+1]
 03F3 1101              sub A,1
 03F5 3901              cmp A,1
 03F7 D006              jnc L142
 03F9           X8:
 03F9                   .dbline 320
 03F9 560104            mov [X+1],4
 03FC 8003              xjmp L143
 03FE           L142:
 03FE                   .dbline 321
 03FE           ; }
 03FE 7B01              dec [X+1]
 0400           L143:
 0400                   .dbline 322
 0400           ; }
 0400           L140:
 0400           L131:
 0400           L127:
 0400                   .dbline 323
 0400           L109:
 0400                   .dbline 323
 0400           ; }
 0400 3D0004            cmp [X+0],4
 0403 BF2D              jnz L108
 0405                   .dbline -2
 0405                   .dbline 324
 0405           ; }
 0405           L107:
 0405 38FC              add SP,-4
 0407 20                pop X
 0408                   .dbline 0 ; func end
 0408 7F                ret
 0409                   .dbsym l x 2 i
 0409                   .dbsym l menu 1 c
 0409                   .dbsym l pulsat 0 c
 0409                   .dbend
 0409                   .dbfunc e Entrada1 _Entrada1 fV
 0409           ;              x -> X+1
 0409           ;         pulsat -> X+0
 0409           _Entrada1::
 0409                   .dbline -1
 0409 10                push X
 040A 4F                mov X,SP
 040B 3803              add SP,3
 040D                   .dbline 334
 040D           ; }
 040D           ; }
 040D           ; }
 040D           ; }
 040D           ; }
 040D           ; }
 040D           ; }
 040D           ; }
 040D           ; }
 040D           ; }
 040D           L145:
 040D                   .dbline 339
 040D           ; }
 040D           ; }
 040D           ; }
 040D           ; }
 040D           ; }
 040D                   .dbline 340
 040D           ; }
 040D 10                push X
 040E 5001              mov A,1
 0410 7C0000            xcall _LCD_Control
 0413                   .dbline 341
 0413           ; }
 0413 50CB              mov A,>L148
 0415 08                push A
 0416 50CB              mov A,<L148
 0418 5C                mov X,A
 0419 18                pop A
 041A 7C0000            xcall _LCD_PrCString
 041D                   .dbline 342
 041D           ; }
 041D 5700              mov X,0
 041F 5001              mov A,1
 0421 7C0000            xcall _LCD_Position
 0424 20                pop X
 0425                   .dbline 343
 0425           ; }
 0425 62D000            mov REG[0xd0],>_Ent1
 0428 3C0000            cmp [_Ent1],0
 042B B00F              jnz L149
 042D                   .dbline 343
 042D 10                push X
 042E 50C7              mov A,>L151
 0430 08                push A
 0431 50C7              mov A,<L151
 0433 5C                mov X,A
 0434 18                pop A
 0435 7C0000            xcall _LCD_PrCString
 0438 20                pop X
 0439 800D              xjmp L150
 043B           L149:
 043B                   .dbline 344
 043B           ; }
 043B 10                push X
 043C 50C4              mov A,>L152
 043E 08                push A
 043F 50C4              mov A,<L152
 0441 5C                mov X,A
 0442 18                pop A
 0443 7C0000            xcall _LCD_PrCString
 0446 20                pop X
 0447           L150:
 0447                   .dbline 345
 0447           ; }
 0447 9C9F              xcall _bucle_temp
 0449                   .dbline 346
 0449           ; }
 0449 9D3F              xcall _Pulsador
 044B 5400              mov [X+0],A
 044D                   .dbline 347
 044D           ; }
 044D 62D000            mov REG[0xd0],>_Buzzer
 0450 3C0001            cmp [_Buzzer],1
 0453 B003              jnz L153
 0455                   .dbline 347
 0455 9CE2              xcall _Pitido
 0457           L153:
 0457                   .dbline 348
 0457           ; }
 0457 3D0001            cmp [X+0],1
 045A A006              jz L157
 045C 3D0002            cmp [X+0],2
 045F B00A              jnz L155
 0461           L157:
 0461                   .dbline 349
 0461           ; }
 0461                   .dbline 350
 0461           ; }
 0461 5D00              mov A,REG[ 0]
 0463 62D000            mov REG[0xd0],>__r0
 0466 6000              mov REG[ 0],A
 0468                   .dbline 351
 0468           ; }
 0468 8019              xjmp L156
 046A           L155:
 046A                   .dbline 352
 046A           ; }
 046A 3D0003            cmp [X+0],3
 046D B014              jnz L158
 046F                   .dbline 353
 046F           ; }
 046F                   .dbline 354
 046F           ; }
 046F 62D000            mov REG[0xd0],>_Ent1
 0472 3C0000            cmp [_Ent1],0
 0475 B006              jnz L160
 0477                   .dbline 354
 0477 550001            mov [_Ent1],1
 047A 8007              xjmp L161
 047C           L160:
 047C                   .dbline 355
 047C           ; }
 047C 62D000            mov REG[0xd0],>_Ent1
 047F 550000            mov [_Ent1],0
 0482           L161:
 0482                   .dbline 356
 0482           ; }
 0482           L158:
 0482           L156:
 0482                   .dbline 357
 0482           L146:
 0482                   .dbline 357
 0482           ; }
 0482 3D0004            cmp [X+0],4
 0485 BF87              jnz L145
 0487                   .dbline -2
 0487                   .dbline 358
 0487           ; }
 0487           L144:
 0487 38FD              add SP,-3
 0489 20                pop X
 048A                   .dbline 0 ; func end
 048A 7F                ret
 048B                   .dbsym l x 1 i
 048B                   .dbsym l pulsat 0 c
 048B                   .dbend
 048B                   .dbfunc e Entrada2 _Entrada2 fV
 048B           ;              x -> X+1
 048B           ;         pulsat -> X+0
 048B           _Entrada2::
 048B                   .dbline -1
 048B 10                push X
 048C 4F                mov X,SP
 048D 3803              add SP,3
 048F                   .dbline 368
 048F           ; }
 048F           ; }
 048F           ; }
 048F           ; }
 048F           ; }
 048F           ; }
 048F           ; }
 048F           ; }
 048F           ; }
 048F           ; }
 048F           L163:
 048F                   .dbline 373
 048F           ; }
 048F           ; }
 048F           ; }
 048F           ; }
 048F           ; }
 048F                   .dbline 374
 048F           ; }
 048F 10                push X
 0490 5001              mov A,1
 0492 7C0000            xcall _LCD_Control
 0495                   .dbline 375
 0495           ; }
 0495 50B5              mov A,>L166
 0497 08                push A
 0498 50B5              mov A,<L166
 049A 5C                mov X,A
 049B 18                pop A
 049C 7C0000            xcall _LCD_PrCString
 049F                   .dbline 376
 049F           ; }
 049F 5700              mov X,0
 04A1 5001              mov A,1
 04A3 7C0000            xcall _LCD_Position
 04A6 20                pop X
 04A7                   .dbline 377
 04A7           ; }
 04A7 62D000            mov REG[0xd0],>_Ent2
 04AA 3C0000            cmp [_Ent2],0
 04AD B00F              jnz L167
 04AF                   .dbline 377
 04AF 10                push X
 04B0 50C7              mov A,>L151
 04B2 08                push A
 04B3 50C7              mov A,<L151
 04B5 5C                mov X,A
 04B6 18                pop A
 04B7 7C0000            xcall _LCD_PrCString
 04BA 20                pop X
 04BB 800D              xjmp L168
 04BD           L167:
 04BD                   .dbline 378
 04BD           ; }
 04BD 10                push X
 04BE 50C4              mov A,>L152
 04C0 08                push A
 04C1 50C4              mov A,<L152
 04C3 5C                mov X,A
 04C4 18                pop A
 04C5 7C0000            xcall _LCD_PrCString
 04C8 20                pop X
 04C9           L168:
 04C9                   .dbline 379
 04C9           ; }
 04C9 9C1D              xcall _bucle_temp
 04CB                   .dbline 380
 04CB           ; }
 04CB 9CBD              xcall _Pulsador
 04CD 5400              mov [X+0],A
 04CF                   .dbline 381
 04CF           ; }
 04CF 62D000            mov REG[0xd0],>_Buzzer
 04D2 3C0001            cmp [_Buzzer],1
 04D5 B003              jnz L169
 04D7                   .dbline 381
 04D7 9C60              xcall _Pitido
 04D9           L169:
 04D9                   .dbline 382
 04D9           ; }
 04D9 3D0001            cmp [X+0],1
 04DC A006              jz L173
 04DE 3D0002            cmp [X+0],2
 04E1 B00A              jnz L171
 04E3           L173:
 04E3                   .dbline 383
 04E3           ; }
 04E3                   .dbline 384
 04E3           ; }
 04E3 5D00              mov A,REG[ 0]
 04E5 62D000            mov REG[0xd0],>__r0
 04E8 6000              mov REG[ 0],A
 04EA                   .dbline 385
 04EA           ; }
 04EA 8019              xjmp L172
 04EC           L171:
 04EC                   .dbline 386
 04EC           ; }
 04EC 3D0003            cmp [X+0],3
 04EF B014              jnz L174
 04F1                   .dbline 387
 04F1           ; }
 04F1                   .dbline 388
 04F1           ; }
 04F1 62D000            mov REG[0xd0],>_Ent2
 04F4 3C0000            cmp [_Ent2],0
 04F7 B006              jnz L176
 04F9                   .dbline 388
 04F9 550001            mov [_Ent2],1
 04FC 8007              xjmp L177
 04FE           L176:
 04FE                   .dbline 389
 04FE           ; }
 04FE 62D000            mov REG[0xd0],>_Ent2
 0501 550000            mov [_Ent2],0
 0504           L177:
 0504                   .dbline 390
 0504           ; }
 0504           L174:
 0504           L172:
 0504                   .dbline 391
 0504           L164:
 0504                   .dbline 391
 0504           ; }
 0504 3D0004            cmp [X+0],4
 0507 BF87              jnz L163
 0509                   .dbline -2
 0509                   .dbline 392
 0509           ; }
 0509           L162:
 0509 38FD              add SP,-3
 050B 20                pop X
 050C                   .dbline 0 ; func end
 050C 7F                ret
 050D                   .dbsym l x 1 i
 050D                   .dbsym l pulsat 0 c
 050D                   .dbend
 050D                   .dbfunc e Entrada3 _Entrada3 fV
 050D           ;              x -> X+1
 050D           ;         pulsat -> X+0
 050D           _Entrada3::
 050D                   .dbline -1
 050D 10                push X
 050E 4F                mov X,SP
 050F 3803              add SP,3
 0511                   .dbline 402
 0511           ; }
 0511           ; }
 0511           ; }
 0511           ; }
 0511           ; }
 0511           ; }
 0511           ; }
 0511           ; }
 0511           ; }
 0511           ; }
 0511           L179:
 0511                   .dbline 407
 0511           ; }
 0511           ; }
 0511           ; }
 0511           ; }
 0511           ; }
 0511                   .dbline 408
 0511           ; }
 0511 10                push X
 0512 5001              mov A,1
 0514 7C0000            xcall _LCD_Control
 0517                   .dbline 409
 0517           ; }
 0517 50A7              mov A,>L182
 0519 08                push A
 051A 50A7              mov A,<L182
 051C 5C                mov X,A
 051D 18                pop A
 051E 7C0000            xcall _LCD_PrCString
 0521                   .dbline 410
 0521           ; }
 0521 5700              mov X,0
 0523 5001              mov A,1
 0525 7C0000            xcall _LCD_Position
 0528 20                pop X
 0529                   .dbline 411
 0529           ; }
 0529 62D000            mov REG[0xd0],>_Ent3
 052C 3C0000            cmp [_Ent3],0
 052F B00F              jnz L183
 0531                   .dbline 411
 0531 10                push X
 0532 50C7              mov A,>L151
 0534 08                push A
 0535 50C7              mov A,<L151
 0537 5C                mov X,A
 0538 18                pop A
 0539 7C0000            xcall _LCD_PrCString
 053C 20                pop X
 053D 800D              xjmp L184
 053F           L183:
 053F                   .dbline 412
 053F           ; }
 053F 10                push X
 0540 50C4              mov A,>L152
 0542 08                push A
 0543 50C4              mov A,<L152
 0545 5C                mov X,A
 0546 18                pop A
 0547 7C0000            xcall _LCD_PrCString
 054A 20                pop X
 054B           L184:
 054B                   .dbline 413
 054B           ; }
 054B 9B9B              xcall _bucle_temp
 054D                   .dbline 414
 054D           ; }
 054D 9C3B              xcall _Pulsador
 054F 5400              mov [X+0],A
 0551                   .dbline 415
 0551           ; }
 0551 62D000            mov REG[0xd0],>_Buzzer
 0554 3C0001            cmp [_Buzzer],1
 0557 B003              jnz L185
 0559                   .dbline 415
 0559 9BDE              xcall _Pitido
 055B           L185:
 055B                   .dbline 416
 055B           ; }
 055B 3D0001            cmp [X+0],1
 055E A006              jz L189
 0560 3D0002            cmp [X+0],2
 0563 B00A              jnz L187
 0565           L189:
 0565                   .dbline 417
 0565           ; }
 0565                   .dbline 418
 0565           ; }
 0565 5D00              mov A,REG[ 0]
 0567 62D000            mov REG[0xd0],>__r0
 056A 6000              mov REG[ 0],A
 056C                   .dbline 419
 056C           ; }
 056C 8019              xjmp L188
 056E           L187:
 056E                   .dbline 420
 056E           ; }
 056E 3D0003            cmp [X+0],3
 0571 B014              jnz L190
 0573                   .dbline 421
 0573           ; }
 0573                   .dbline 422
 0573           ; }
 0573 62D000            mov REG[0xd0],>_Ent3
 0576 3C0000            cmp [_Ent3],0
 0579 B006              jnz L192
 057B                   .dbline 422
 057B 550001            mov [_Ent3],1
 057E 8007              xjmp L193
 0580           L192:
 0580                   .dbline 423
 0580           ; }
 0580 62D000            mov REG[0xd0],>_Ent3
 0583 550000            mov [_Ent3],0
 0586           L193:
 0586                   .dbline 424
 0586           ; }
 0586           L190:
 0586           L188:
 0586                   .dbline 425
 0586           L180:
 0586                   .dbline 425
 0586           ; }
 0586 3D0004            cmp [X+0],4
 0589 BF87              jnz L179
 058B                   .dbline -2
 058B                   .dbline 426
 058B           ; }
 058B           L178:
 058B 38FD              add SP,-3
 058D 20                pop X
 058E                   .dbline 0 ; func end
 058E 7F                ret
 058F                   .dbsym l x 1 i
 058F                   .dbsym l pulsat 0 c
 058F                   .dbend
 058F                   .dbfunc e Entrada4 _Entrada4 fV
 058F           ;              x -> X+1
 058F           ;         pulsat -> X+0
 058F           _Entrada4::
 058F                   .dbline -1
 058F 10                push X
 0590 4F                mov X,SP
 0591 3803              add SP,3
 0593                   .dbline 436
 0593           ; }
 0593           ; }
 0593           ; }
 0593           ; }
 0593           ; }
 0593           ; }
 0593           ; }
 0593           ; }
 0593           ; }
 0593           ; }
 0593           L195:
 0593                   .dbline 441
 0593           ; }
 0593           ; }
 0593           ; }
 0593           ; }
 0593           ; }
 0593                   .dbline 442
 0593           ; }
 0593 10                push X
 0594 5001              mov A,1
 0596 7C0000            xcall _LCD_Control
 0599                   .dbline 443
 0599           ; }
 0599 5099              mov A,>L198
 059B 08                push A
 059C 5099              mov A,<L198
 059E 5C                mov X,A
 059F 18                pop A
 05A0 7C0000            xcall _LCD_PrCString
 05A3                   .dbline 444
 05A3           ; }
 05A3 5700              mov X,0
 05A5 5001              mov A,1
 05A7 7C0000            xcall _LCD_Position
 05AA 20                pop X
 05AB                   .dbline 445
 05AB           ; }
 05AB 62D000            mov REG[0xd0],>_Ent4
 05AE 3C0000            cmp [_Ent4],0
 05B1 B00F              jnz L199
 05B3                   .dbline 445
 05B3 10                push X
 05B4 50C7              mov A,>L151
 05B6 08                push A
 05B7 50C7              mov A,<L151
 05B9 5C                mov X,A
 05BA 18                pop A
 05BB 7C0000            xcall _LCD_PrCString
 05BE 20                pop X
 05BF 800D              xjmp L200
 05C1           L199:
 05C1                   .dbline 446
 05C1           ; }
 05C1 10                push X
 05C2 50C4              mov A,>L152
 05C4 08                push A
 05C5 50C4              mov A,<L152
 05C7 5C                mov X,A
 05C8 18                pop A
 05C9 7C0000            xcall _LCD_PrCString
 05CC 20                pop X
 05CD           L200:
 05CD                   .dbline 447
 05CD           ; }
 05CD 9B19              xcall _bucle_temp
 05CF                   .dbline 448
 05CF           ; }
 05CF 9BB9              xcall _Pulsador
 05D1 5400              mov [X+0],A
 05D3                   .dbline 449
 05D3           ; }
 05D3 62D000            mov REG[0xd0],>_Buzzer
 05D6 3C0001            cmp [_Buzzer],1
 05D9 B003              jnz L201
 05DB                   .dbline 449
 05DB 9B5C              xcall _Pitido
 05DD           L201:
 05DD                   .dbline 450
 05DD           ; }
 05DD 3D0001            cmp [X+0],1
 05E0 A006              jz L205
 05E2 3D0002            cmp [X+0],2
 05E5 B00A              jnz L203
 05E7           L205:
 05E7                   .dbline 451
 05E7           ; }
 05E7                   .dbline 452
 05E7           ; }
 05E7 5D00              mov A,REG[ 0]
 05E9 62D000            mov REG[0xd0],>__r0
 05EC 6000              mov REG[ 0],A
 05EE                   .dbline 453
 05EE           ; }
 05EE 8019              xjmp L204
 05F0           L203:
 05F0                   .dbline 454
 05F0           ; }
 05F0 3D0003            cmp [X+0],3
 05F3 B014              jnz L206
 05F5                   .dbline 455
 05F5           ; }
 05F5                   .dbline 456
 05F5           ; }
 05F5 62D000            mov REG[0xd0],>_Ent4
 05F8 3C0000            cmp [_Ent4],0
 05FB B006              jnz L208
 05FD                   .dbline 456
 05FD 550001            mov [_Ent4],1
 0600 8007              xjmp L209
 0602           L208:
 0602                   .dbline 457
 0602           ; }
 0602 62D000            mov REG[0xd0],>_Ent4
 0605 550000            mov [_Ent4],0
 0608           L209:
 0608                   .dbline 458
 0608           ; }
 0608           L206:
 0608           L204:
 0608                   .dbline 459
 0608           L196:
 0608                   .dbline 459
 0608           ; }
 0608 3D0004            cmp [X+0],4
 060B BF87              jnz L195
 060D                   .dbline -2
 060D                   .dbline 460
 060D           ; }
 060D           L194:
 060D 38FD              add SP,-3
 060F 20                pop X
 0610                   .dbline 0 ; func end
 0610 7F                ret
 0611                   .dbsym l x 1 i
 0611                   .dbsym l pulsat 0 c
 0611                   .dbend
 0611                   .dbfunc e Flashes _Flashes fV
 0611           ;              x -> X+2
 0611           ;           menu -> X+1
 0611           ;         pulsat -> X+0
 0611           _Flashes::
 0611                   .dbline -1
 0611 10                push X
 0612 4F                mov X,SP
 0613 3804              add SP,4
 0615                   .dbline 470
 0615           ; }
 0615           ; }
 0615           ; }
 0615           ; }
 0615           ; }
 0615           ; }
 0615           ; }
 0615           ; }
 0615           ; }
 0615           ; }
 0615                   .dbline 471
 0615           ; }
 0615 560101            mov [X+1],1
 0618           L211:
 0618                   .dbline 475
 0618           ; }
 0618           ; }
 0618           ; }
 0618           ; }
 0618                   .dbline 476
 0618           ; }
 0618 10                push X
 0619 5001              mov A,1
 061B 7C0000            xcall _LCD_Control
 061E                   .dbline 477
 061E           ; }
 061E 508A              mov A,>L214
 0620 08                push A
 0621 508A              mov A,<L214
 0623 5C                mov X,A
 0624 18                pop A
 0625 7C0000            xcall _LCD_PrCString
 0628                   .dbline 478
 0628           ; }
 0628 5700              mov X,0
 062A 5001              mov A,1
 062C 7C0000            xcall _LCD_Position
 062F 20                pop X
 0630                   .dbline 479
 0630           ; }
 0630 3D0101            cmp [X+1],1
 0633 B031              jnz L215
 0635                   .dbline 480
 0635           ; }
 0635                   .dbline 481
 0635           ; }
 0635 10                push X
 0636 5080              mov A,>L217
 0638 08                push A
 0639 5080              mov A,<L217
 063B 5C                mov X,A
 063C 18                pop A
 063D 7C0000            xcall _LCD_PrCString
 0640 20                pop X
 0641                   .dbline 482
 0641           ; }
 0641 62D000            mov REG[0xd0],>_Fla1
 0644 3C0000            cmp [_Fla1],0
 0647 B00F              jnz L218
 0649                   .dbline 482
 0649 10                push X
 064A 5079              mov A,>L220
 064C 08                push A
 064D 5079              mov A,<L220
 064F 5C                mov X,A
 0650 18                pop A
 0651 7C0000            xcall _LCD_PrCString
 0654 20                pop X
 0655 80AC              xjmp L216
 0657           L218:
 0657                   .dbline 483
 0657           ; }
 0657 10                push X
 0658 5073              mov A,>L221
 065A 08                push A
 065B 5073              mov A,<L221
 065D 5C                mov X,A
 065E 18                pop A
 065F 7C0000            xcall _LCD_PrCString
 0662 20                pop X
 0663                   .dbline 484
 0663           ; }
 0663 809E              xjmp L216
 0665           L215:
 0665                   .dbline 485
 0665           ; }
 0665 3D0102            cmp [X+1],2
 0668 B031              jnz L222
 066A                   .dbline 486
 066A           ; }
 066A                   .dbline 487
 066A           ; }
 066A 10                push X
 066B 5069              mov A,>L224
 066D 08                push A
 066E 5069              mov A,<L224
 0670 5C                mov X,A
 0671 18                pop A
 0672 7C0000            xcall _LCD_PrCString
 0675 20                pop X
 0676                   .dbline 488
 0676           ; }
 0676 62D000            mov REG[0xd0],>_Fla2
 0679 3C0000            cmp [_Fla2],0
 067C B00F              jnz L225
 067E                   .dbline 488
 067E 10                push X
 067F 5079              mov A,>L220
 0681 08                push A
 0682 5079              mov A,<L220
 0684 5C                mov X,A
 0685 18                pop A
 0686 7C0000            xcall _LCD_PrCString
 0689 20                pop X
 068A 8077              xjmp L223
 068C           L225:
 068C                   .dbline 489
 068C           ; }
 068C 10                push X
 068D 5073              mov A,>L221
 068F 08                push A
 0690 5073              mov A,<L221
 0692 5C                mov X,A
 0693 18                pop A
 0694 7C0000            xcall _LCD_PrCString
 0697 20                pop X
 0698                   .dbline 490
 0698           ; }
 0698 8069              xjmp L223
 069A           L222:
 069A                   .dbline 491
 069A           ; }
 069A 3D0103            cmp [X+1],3
 069D B031              jnz L227
 069F                   .dbline 492
 069F           ; }
 069F                   .dbline 494
 069F           ; }
 069F           ; }
 069F 10                push X
 06A0 505F              mov A,>L229
 06A2 08                push A
 06A3 505F              mov A,<L229
 06A5 5C                mov X,A
 06A6 18                pop A
 06A7 7C0000            xcall _LCD_PrCString
 06AA 20                pop X
 06AB                   .dbline 495
 06AB           ; }
 06AB 62D000            mov REG[0xd0],>_Fla3
 06AE 3C0000            cmp [_Fla3],0
 06B1 B00F              jnz L230
 06B3                   .dbline 495
 06B3 10                push X
 06B4 5079              mov A,>L220
 06B6 08                push A
 06B7 5079              mov A,<L220
 06B9 5C                mov X,A
 06BA 18                pop A
 06BB 7C0000            xcall _LCD_PrCString
 06BE 20                pop X
 06BF 8042              xjmp L228
 06C1           L230:
 06C1                   .dbline 496
 06C1           ; }
 06C1 10                push X
 06C2 5073              mov A,>L221
 06C4 08                push A
 06C5 5073              mov A,<L221
 06C7 5C                mov X,A
 06C8 18                pop A
 06C9 7C0000            xcall _LCD_PrCString
 06CC 20                pop X
 06CD                   .dbline 497
 06CD           ; }
 06CD 8034              xjmp L228
 06CF           L227:
 06CF                   .dbline 498
 06CF           ; }
 06CF 3D0104            cmp [X+1],4
 06D2 B02F              jnz L232
 06D4                   .dbline 499
 06D4           ; }
 06D4                   .dbline 500
 06D4           ; }
 06D4 10                push X
 06D5 5055              mov A,>L234
 06D7 08                push A
 06D8 5055              mov A,<L234
 06DA 5C                mov X,A
 06DB 18                pop A
 06DC 7C0000            xcall _LCD_PrCString
 06DF 20                pop X
 06E0                   .dbline 501
 06E0           ; }
 06E0 62D000            mov REG[0xd0],>_Fla4
 06E3 3C0000            cmp [_Fla4],0
 06E6 B00F              jnz L235
 06E8                   .dbline 501
 06E8 10                push X
 06E9 504D              mov A,>L237
 06EB 08                push A
 06EC 504D              mov A,<L237
 06EE 5C                mov X,A
 06EF 18                pop A
 06F0 7C0000            xcall _LCD_PrCString
 06F3 20                pop X
 06F4 800D              xjmp L236
 06F6           L235:
 06F6                   .dbline 502
 06F6           ; }
 06F6 10                push X
 06F7 5073              mov A,>L221
 06F9 08                push A
 06FA 5073              mov A,<L221
 06FC 5C                mov X,A
 06FD 18                pop A
 06FE 7C0000            xcall _LCD_PrCString
 0701 20                pop X
 0702           L236:
 0702                   .dbline 503
 0702           ; }
 0702           L232:
 0702           L228:
 0702           L223:
 0702           L216:
 0702                   .dbline 504
 0702           ; }
 0702 99E4              xcall _bucle_temp
 0704                   .dbline 505
 0704           ; }
 0704 9A84              xcall _Pulsador
 0706 5400              mov [X+0],A
 0708                   .dbline 506
 0708           ; }
 0708 62D000            mov REG[0xd0],>_Buzzer
 070B 3C0001            cmp [_Buzzer],1
 070E B003              jnz L238
 0710                   .dbline 506
 0710 9A27              xcall _Pitido
 0712           L238:
 0712                   .dbline 507
 0712           ; }
 0712 3D0001            cmp [X+0],1
 0715 B019              jnz L240
 0717                   .dbline 508
 0717           ; }
 0717                   .dbline 509
 0717           ; }
 0717 62D000            mov REG[0xd0],>__r0
 071A 5201              mov A,[X+1]
 071C 0101              add A,1
 071E 5300              mov [__r0],A
 0720 5004              mov A,4
 0722 3A00              cmp A,[__r0]
 0724 D006              jnc L242
 0726           X9:
 0726                   .dbline 509
 0726 560101            mov [X+1],1
 0729 8045              xjmp L241
 072B           L242:
 072B                   .dbline 510
 072B           ; }
 072B 7701              inc [X+1]
 072D                   .dbline 511
 072D           ; }
 072D 8041              xjmp L241
 072F           L240:
 072F                   .dbline 512
 072F           ; }
 072F 3D0003            cmp [X+0],3
 0732 B025              jnz L244
 0734                   .dbline 513
 0734           ; }
 0734                   .dbline 514
 0734           ; }
 0734 3D0101            cmp [X+1],1
 0737 B005              jnz L246
 0739                   .dbline 514
 0739 903D              xcall _Flash1
 073B 8033              xjmp L245
 073D           L246:
 073D                   .dbline 515
 073D           ; }
 073D 3D0102            cmp [X+1],2
 0740 B005              jnz L248
 0742                   .dbline 515
 0742 90DE              xcall _Flash2
 0744 802A              xjmp L245
 0746           L248:
 0746                   .dbline 516
 0746           ; }
 0746 3D0103            cmp [X+1],3
 0749 B005              jnz L250
 074B                   .dbline 516
 074B 917F              xcall _Flash3
 074D 8021              xjmp L245
 074F           L250:
 074F                   .dbline 517
 074F           ; }
 074F 3D0104            cmp [X+1],4
 0752 B01C              jnz L245
 0754                   .dbline 517
 0754 9222              xcall _Flash4
 0756                   .dbline 518
 0756           ; }
 0756 8018              xjmp L245
 0758           L244:
 0758                   .dbline 519
 0758           ; }
 0758 3D0002            cmp [X+0],2
 075B B013              jnz L254
 075D                   .dbline 520
 075D           ; }
 075D                   .dbline 521
 075D           ; }
 075D 62D000            mov REG[0xd0],>__r0
 0760 5201              mov A,[X+1]
 0762 1101              sub A,1
 0764 3901              cmp A,1
 0766 D006              jnc L256
 0768           X10:
 0768                   .dbline 521
 0768 560104            mov [X+1],4
 076B 8003              xjmp L257
 076D           L256:
 076D                   .dbline 522
 076D           ; }
 076D 7B01              dec [X+1]
 076F           L257:
 076F                   .dbline 523
 076F           ; }
 076F           L254:
 076F           L245:
 076F           L241:
 076F                   .dbline 524
 076F           L212:
 076F                   .dbline 524
 076F           ; }
 076F 3D0004            cmp [X+0],4
 0772 BEA5              jnz L211
 0774                   .dbline -2
 0774                   .dbline 525
 0774           ; }
 0774           L210:
 0774 38FC              add SP,-4
 0776 20                pop X
 0777                   .dbline 0 ; func end
 0777 7F                ret
 0778                   .dbsym l x 2 i
 0778                   .dbsym l menu 1 c
 0778                   .dbsym l pulsat 0 c
 0778                   .dbend
 0778                   .dbfunc e Flash1 _Flash1 fV
 0778           ;              x -> X+1
 0778           ;         pulsat -> X+0
 0778           _Flash1::
 0778                   .dbline -1
 0778 10                push X
 0779 4F                mov X,SP
 077A 3803              add SP,3
 077C                   .dbline 533
 077C           ; }
 077C           ; }
 077C           ; }
 077C           ; }
 077C           ; }
 077C           ; }
 077C           ; }
 077C           ; }
 077C           L259:
 077C                   .dbline 538
 077C           ; }
 077C           ; }
 077C           ; }
 077C           ; }
 077C           ; }
 077C                   .dbline 539
 077C           ; }
 077C 10                push X
 077D 5001              mov A,1
 077F 7C0000            xcall _LCD_Control
 0782                   .dbline 540
 0782           ; }
 0782 5044              mov A,>L262
 0784 08                push A
 0785 5044              mov A,<L262
 0787 5C                mov X,A
 0788 18                pop A
 0789 7C0000            xcall _LCD_PrCString
 078C                   .dbline 541
 078C           ; }
 078C 5700              mov X,0
 078E 5001              mov A,1
 0790 7C0000            xcall _LCD_Position
 0793 20                pop X
 0794                   .dbline 542
 0794           ; }
 0794 62D000            mov REG[0xd0],>_Fla1
 0797 3C0000            cmp [_Fla1],0
 079A B00F              jnz L263
 079C                   .dbline 542
 079C 10                push X
 079D 503C              mov A,>L265
 079F 08                push A
 07A0 503C              mov A,<L265
 07A2 5C                mov X,A
 07A3 18                pop A
 07A4 7C0000            xcall _LCD_PrCString
 07A7 20                pop X
 07A8 8041              xjmp L264
 07AA           L263:
 07AA                   .dbline 543
 07AA           ; }
 07AA 62D000            mov REG[0xd0],>_Fla1
 07AD 3C0001            cmp [_Fla1],1
 07B0 B00F              jnz L266
 07B2                   .dbline 543
 07B2 10                push X
 07B3 5033              mov A,>L268
 07B5 08                push A
 07B6 5033              mov A,<L268
 07B8 5C                mov X,A
 07B9 18                pop A
 07BA 7C0000            xcall _LCD_PrCString
 07BD 20                pop X
 07BE 802B              xjmp L267
 07C0           L266:
 07C0                   .dbline 544
 07C0           ; }
 07C0 62D000            mov REG[0xd0],>_Fla1
 07C3 3C0002            cmp [_Fla1],2
 07C6 B00F              jnz L269
 07C8                   .dbline 544
 07C8 10                push X
 07C9 502A              mov A,>L271
 07CB 08                push A
 07CC 502A              mov A,<L271
 07CE 5C                mov X,A
 07CF 18                pop A
 07D0 7C0000            xcall _LCD_PrCString
 07D3 20                pop X
 07D4 8015              xjmp L270
 07D6           L269:
 07D6                   .dbline 545
 07D6           ; }
 07D6 62D000            mov REG[0xd0],>_Fla1
 07D9 3C0003            cmp [_Fla1],3
 07DC B00D              jnz L272
 07DE                   .dbline 545
 07DE 10                push X
 07DF 5024              mov A,>L274
 07E1 08                push A
 07E2 5024              mov A,<L274
 07E4 5C                mov X,A
 07E5 18                pop A
 07E6 7C0000            xcall _LCD_PrCString
 07E9 20                pop X
 07EA           L272:
 07EA           L270:
 07EA           L267:
 07EA           L264:
 07EA                   .dbline 546
 07EA           ; }
 07EA 98FC              xcall _bucle_temp
 07EC                   .dbline 547
 07EC           ; }
 07EC 999C              xcall _Pulsador
 07EE 5400              mov [X+0],A
 07F0                   .dbline 548
 07F0           ; }
 07F0 62D000            mov REG[0xd0],>_Buzzer
 07F3 3C0001            cmp [_Buzzer],1
 07F6 B003              jnz L275
 07F8                   .dbline 548
 07F8 993F              xcall _Pitido
 07FA           L275:
 07FA                   .dbline 549
 07FA           ; }
 07FA 3D0001            cmp [X+0],1
 07FD A006              jz L279
 07FF 3D0002            cmp [X+0],2
 0802 B00A              jnz L277
 0804           L279:
 0804                   .dbline 550
 0804           ; }
 0804                   .dbline 551
 0804           ; }
 0804 5D00              mov A,REG[ 0]
 0806 62D000            mov REG[0xd0],>__r0
 0809 6000              mov REG[ 0],A
 080B                   .dbline 552
 080B           ; }
 080B 800D              xjmp L278
 080D           L277:
 080D                   .dbline 553
 080D           ; }
 080D 3D0003            cmp [X+0],3
 0810 B008              jnz L280
 0812                   .dbline 554
 0812           ; }
 0812                   .dbline 555
 0812           ; }
 0812 5001              mov A,1
 0814 08                push A
 0815 920E              xcall _Tipo_fla
 0817 38FF              add SP,-1
 0819                   .dbline 556
 0819           ; }
 0819           L280:
 0819           L278:
 0819                   .dbline 557
 0819           L260:
 0819                   .dbline 557
 0819           ; }
 0819 3D0004            cmp [X+0],4
 081C BF5F              jnz L259
 081E                   .dbline -2
 081E                   .dbline 558
 081E           ; }
 081E           L258:
 081E 38FD              add SP,-3
 0820 20                pop X
 0821                   .dbline 0 ; func end
 0821 7F                ret
 0822                   .dbsym l x 1 i
 0822                   .dbsym l pulsat 0 c
 0822                   .dbend
 0822                   .dbfunc e Flash2 _Flash2 fV
 0822           ;              x -> X+1
 0822           ;         pulsat -> X+0
 0822           _Flash2::
 0822                   .dbline -1
 0822 10                push X
 0823 4F                mov X,SP
 0824 3803              add SP,3
 0826                   .dbline 568
 0826           ; }
 0826           ; }
 0826           ; }
 0826           ; }
 0826           ; }
 0826           ; }
 0826           ; }
 0826           ; }
 0826           ; }
 0826           ; }
 0826           L283:
 0826                   .dbline 573
 0826           ; }
 0826           ; }
 0826           ; }
 0826           ; }
 0826           ; }
 0826                   .dbline 574
 0826           ; }
 0826 10                push X
 0827 5001              mov A,1
 0829 7C0000            xcall _LCD_Control
 082C                   .dbline 575
 082C           ; }
 082C 501B              mov A,>L286
 082E 08                push A
 082F 501B              mov A,<L286
 0831 5C                mov X,A
 0832 18                pop A
 0833 7C0000            xcall _LCD_PrCString
 0836                   .dbline 576
 0836           ; }
 0836 5700              mov X,0
 0838 5001              mov A,1
 083A 7C0000            xcall _LCD_Position
 083D 20                pop X
 083E                   .dbline 577
 083E           ; }
 083E 62D000            mov REG[0xd0],>_Fla1
 0841 3C0000            cmp [_Fla1],0
 0844 B00F              jnz L287
 0846                   .dbline 577
 0846 10                push X
 0847 503C              mov A,>L265
 0849 08                push A
 084A 503C              mov A,<L265
 084C 5C                mov X,A
 084D 18                pop A
 084E 7C0000            xcall _LCD_PrCString
 0851 20                pop X
 0852 8041              xjmp L288
 0854           L287:
 0854                   .dbline 578
 0854           ; }
 0854 62D000            mov REG[0xd0],>_Fla1
 0857 3C0001            cmp [_Fla1],1
 085A B00F              jnz L289
 085C                   .dbline 578
 085C 10                push X
 085D 5033              mov A,>L268
 085F 08                push A
 0860 5033              mov A,<L268
 0862 5C                mov X,A
 0863 18                pop A
 0864 7C0000            xcall _LCD_PrCString
 0867 20                pop X
 0868 802B              xjmp L290
 086A           L289:
 086A                   .dbline 579
 086A           ; }
 086A 62D000            mov REG[0xd0],>_Fla1
 086D 3C0002            cmp [_Fla1],2
 0870 B00F              jnz L291
 0872                   .dbline 579
 0872 10                push X
 0873 502A              mov A,>L271
 0875 08                push A
 0876 502A              mov A,<L271
 0878 5C                mov X,A
 0879 18                pop A
 087A 7C0000            xcall _LCD_PrCString
 087D 20                pop X
 087E 8015              xjmp L292
 0880           L291:
 0880                   .dbline 580
 0880           ; }
 0880 62D000            mov REG[0xd0],>_Fla1
 0883 3C0003            cmp [_Fla1],3
 0886 B00D              jnz L293
 0888                   .dbline 580
 0888 10                push X
 0889 5024              mov A,>L274
 088B 08                push A
 088C 5024              mov A,<L274
 088E 5C                mov X,A
 088F 18                pop A
 0890 7C0000            xcall _LCD_PrCString
 0893 20                pop X
 0894           L293:
 0894           L292:
 0894           L290:
 0894           L288:
 0894                   .dbline 581
 0894           ; }
 0894 9852              xcall _bucle_temp
 0896                   .dbline 582
 0896           ; }
 0896 98F2              xcall _Pulsador
 0898 5400              mov [X+0],A
 089A                   .dbline 583
 089A           ; }
 089A 62D000            mov REG[0xd0],>_Buzzer
 089D 3C0001            cmp [_Buzzer],1
 08A0 B003              jnz L295
 08A2                   .dbline 583
 08A2 9895              xcall _Pitido
 08A4           L295:
 08A4                   .dbline 584
 08A4           ; }
 08A4 3D0001            cmp [X+0],1
 08A7 A006              jz L299
 08A9 3D0002            cmp [X+0],2
 08AC B00A              jnz L297
 08AE           L299:
 08AE                   .dbline 585
 08AE           ; }
 08AE                   .dbline 586
 08AE           ; }
 08AE 5D00              mov A,REG[ 0]
 08B0 62D000            mov REG[0xd0],>__r0
 08B3 6000              mov REG[ 0],A
 08B5                   .dbline 587
 08B5           ; }
 08B5 800D              xjmp L298
 08B7           L297:
 08B7                   .dbline 588
 08B7           ; }
 08B7 3D0003            cmp [X+0],3
 08BA B008              jnz L300
 08BC                   .dbline 589
 08BC           ; }
 08BC                   .dbline 590
 08BC           ; }
 08BC 5002              mov A,2
 08BE 08                push A
 08BF 9164              xcall _Tipo_fla
 08C1 38FF              add SP,-1
 08C3                   .dbline 591
 08C3           ; }
 08C3           L300:
 08C3           L298:
 08C3                   .dbline 592
 08C3           L284:
 08C3                   .dbline 592
 08C3           ; }
 08C3 3D0004            cmp [X+0],4
 08C6 BF5F              jnz L283
 08C8                   .dbline -2
 08C8                   .dbline 593
 08C8           ; }
 08C8           L282:
 08C8 38FD              add SP,-3
 08CA 20                pop X
 08CB                   .dbline 0 ; func end
 08CB 7F                ret
 08CC                   .dbsym l x 1 i
 08CC                   .dbsym l pulsat 0 c
 08CC                   .dbend
 08CC                   .dbfunc e Flash3 _Flash3 fV
 08CC           ;              x -> X+1
 08CC           ;         pulsat -> X+0
 08CC           _Flash3::
 08CC                   .dbline -1
 08CC 10                push X
 08CD 4F                mov X,SP
 08CE 3803              add SP,3
 08D0                   .dbline 602
 08D0           ; }
 08D0           ; }
 08D0           ; }
 08D0           ; }
 08D0           ; }
 08D0           ; }
 08D0           ; }
 08D0           ; }
 08D0           ; }
 08D0           L303:
 08D0                   .dbline 607
 08D0           ; }
 08D0           ; }
 08D0           ; }
 08D0           ; }
 08D0           ; }
 08D0                   .dbline 608
 08D0           ; }
 08D0 10                push X
 08D1 5001              mov A,1
 08D3 7C0000            xcall _LCD_Control
 08D6                   .dbline 609
 08D6           ; }
 08D6 5012              mov A,>L306
 08D8 08                push A
 08D9 5012              mov A,<L306
 08DB 5C                mov X,A
 08DC 18                pop A
 08DD 7C0000            xcall _LCD_PrCString
 08E0                   .dbline 610
 08E0           ; }
 08E0 5700              mov X,0
 08E2 5001              mov A,1
 08E4 7C0000            xcall _LCD_Position
 08E7 20                pop X
 08E8                   .dbline 611
 08E8           ; }
 08E8 62D000            mov REG[0xd0],>_Fla1
 08EB 3C0000            cmp [_Fla1],0
 08EE B00F              jnz L307
 08F0                   .dbline 611
 08F0 10                push X
 08F1 503C              mov A,>L265
 08F3 08                push A
 08F4 503C              mov A,<L265
 08F6 5C                mov X,A
 08F7 18                pop A
 08F8 7C0000            xcall _LCD_PrCString
 08FB 20                pop X
 08FC 8041              xjmp L308
 08FE           L307:
 08FE                   .dbline 612
 08FE           ; }
 08FE 62D000            mov REG[0xd0],>_Fla1
 0901 3C0001            cmp [_Fla1],1
 0904 B00F              jnz L309
 0906                   .dbline 612
 0906 10                push X
 0907 5033              mov A,>L268
 0909 08                push A
 090A 5033              mov A,<L268
 090C 5C                mov X,A
 090D 18                pop A
 090E 7C0000            xcall _LCD_PrCString
 0911 20                pop X
 0912 802B              xjmp L310
 0914           L309:
 0914                   .dbline 613
 0914           ; }
 0914 62D000            mov REG[0xd0],>_Fla1
 0917 3C0002            cmp [_Fla1],2
 091A B00F              jnz L311
 091C                   .dbline 613
 091C 10                push X
 091D 502A              mov A,>L271
 091F 08                push A
 0920 502A              mov A,<L271
 0922 5C                mov X,A
 0923 18                pop A
 0924 7C0000            xcall _LCD_PrCString
 0927 20                pop X
 0928 8015              xjmp L312
 092A           L311:
 092A                   .dbline 614
 092A           ; }
 092A 62D000            mov REG[0xd0],>_Fla1
 092D 3C0003            cmp [_Fla1],3
 0930 B00D              jnz L313
 0932                   .dbline 614
 0932 10                push X
 0933 5024              mov A,>L274
 0935 08                push A
 0936 5024              mov A,<L274
 0938 5C                mov X,A
 0939 18                pop A
 093A 7C0000            xcall _LCD_PrCString
 093D 20                pop X
 093E           L313:
 093E           L312:
 093E           L310:
 093E           L308:
 093E                   .dbline 615
 093E           ; }
 093E 7C00E8            xcall _bucle_temp
 0941                   .dbline 616
 0941           ; }
 0941 9847              xcall _Pulsador
 0943 5400              mov [X+0],A
 0945                   .dbline 617
 0945           ; }
 0945 62D000            mov REG[0xd0],>_Buzzer
 0948 3C0001            cmp [_Buzzer],1
 094B B004              jnz L315
 094D                   .dbline 617
 094D 7C0139            xcall _Pitido
 0950           L315:
 0950                   .dbline 618
 0950           ; }
 0950 3D0001            cmp [X+0],1
 0953 A006              jz L319
 0955 3D0002            cmp [X+0],2
 0958 B00A              jnz L317
 095A           L319:
 095A                   .dbline 619
 095A           ; }
 095A                   .dbline 620
 095A           ; }
 095A 5D00              mov A,REG[ 0]
 095C 62D000            mov REG[0xd0],>__r0
 095F 6000              mov REG[ 0],A
 0961                   .dbline 621
 0961           ; }
 0961 800D              xjmp L318
 0963           L317:
 0963                   .dbline 622
 0963           ; }
 0963 3D0003            cmp [X+0],3
 0966 B008              jnz L320
 0968                   .dbline 623
 0968           ; }
 0968                   .dbline 624
 0968           ; }
 0968 5003              mov A,3
 096A 08                push A
 096B 90B8              xcall _Tipo_fla
 096D 38FF              add SP,-1
 096F                   .dbline 625
 096F           ; }
 096F           L320:
 096F           L318:
 096F                   .dbline 626
 096F           L304:
 096F                   .dbline 626
 096F           ; }
 096F 3D0004            cmp [X+0],4
 0972 BF5D              jnz L303
 0974                   .dbline -2
 0974                   .dbline 627
 0974           ; }
 0974           L302:
 0974 38FD              add SP,-3
 0976 20                pop X
 0977                   .dbline 0 ; func end
 0977 7F                ret
 0978                   .dbsym l x 1 i
 0978                   .dbsym l pulsat 0 c
 0978                   .dbend
 0978                   .dbfunc e Flash4 _Flash4 fV
 0978           ;              x -> X+1
 0978           ;         pulsat -> X+0
 0978           _Flash4::
 0978                   .dbline -1
 0978 10                push X
 0979 4F                mov X,SP
 097A 3803              add SP,3
 097C                   .dbline 635
 097C           ; }
 097C           ; }
 097C           ; }
 097C           ; }
 097C           ; }
 097C           ; }
 097C           ; }
 097C           ; }
 097C           L323:
 097C                   .dbline 640
 097C           ; }
 097C           ; }
 097C           ; }
 097C           ; }
 097C           ; }
 097C                   .dbline 641
 097C           ; }
 097C 10                push X
 097D 5001              mov A,1
 097F 7C0000            xcall _LCD_Control
 0982                   .dbline 642
 0982           ; }
 0982 5009              mov A,>L326
 0984 08                push A
 0985 5009              mov A,<L326
 0987 5C                mov X,A
 0988 18                pop A
 0989 7C0000            xcall _LCD_PrCString
 098C                   .dbline 643
 098C           ; }
 098C 5700              mov X,0
 098E 5001              mov A,1
 0990 7C0000            xcall _LCD_Position
 0993 20                pop X
 0994                   .dbline 644
 0994           ; }
 0994 62D000            mov REG[0xd0],>_Fla1
 0997 3C0000            cmp [_Fla1],0
 099A B00F              jnz L327
 099C                   .dbline 644
 099C 10                push X
 099D 503C              mov A,>L265
 099F 08                push A
 09A0 503C              mov A,<L265
 09A2 5C                mov X,A
 09A3 18                pop A
 09A4 7C0000            xcall _LCD_PrCString
 09A7 20                pop X
 09A8 8041              xjmp L328
 09AA           L327:
 09AA                   .dbline 645
 09AA           ; }
 09AA 62D000            mov REG[0xd0],>_Fla1
 09AD 3C0001            cmp [_Fla1],1
 09B0 B00F              jnz L329
 09B2                   .dbline 645
 09B2 10                push X
 09B3 5033              mov A,>L268
 09B5 08                push A
 09B6 5033              mov A,<L268
 09B8 5C                mov X,A
 09B9 18                pop A
 09BA 7C0000            xcall _LCD_PrCString
 09BD 20                pop X
 09BE 802B              xjmp L330
 09C0           L329:
 09C0                   .dbline 646
 09C0           ; }
 09C0 62D000            mov REG[0xd0],>_Fla1
 09C3 3C0002            cmp [_Fla1],2
 09C6 B00F              jnz L331
 09C8                   .dbline 646
 09C8 10                push X
 09C9 502A              mov A,>L271
 09CB 08                push A
 09CC 502A              mov A,<L271
 09CE 5C                mov X,A
 09CF 18                pop A
 09D0 7C0000            xcall _LCD_PrCString
 09D3 20                pop X
 09D4 8015              xjmp L332
 09D6           L331:
 09D6                   .dbline 647
 09D6           ; }
 09D6 62D000            mov REG[0xd0],>_Fla1
 09D9 3C0003            cmp [_Fla1],3
 09DC B00D              jnz L333
 09DE                   .dbline 647
 09DE 10                push X
 09DF 5024              mov A,>L274
 09E1 08                push A
 09E2 5024              mov A,<L274
 09E4 5C                mov X,A
 09E5 18                pop A
 09E6 7C0000            xcall _LCD_PrCString
 09E9 20                pop X
 09EA           L333:
 09EA           L332:
 09EA           L330:
 09EA           L328:
 09EA                   .dbline 648
 09EA           ; }
 09EA 7C00E8            xcall _bucle_temp
 09ED                   .dbline 649
 09ED           ; }
 09ED 7C018A            xcall _Pulsador
 09F0 5400              mov [X+0],A
 09F2                   .dbline 650
 09F2           ; }
 09F2 62D000            mov REG[0xd0],>_Buzzer
 09F5 3C0001            cmp [_Buzzer],1
 09F8 B004              jnz L335
 09FA                   .dbline 650
 09FA 7C0139            xcall _Pitido
 09FD           L335:
 09FD                   .dbline 651
 09FD           ; }
 09FD 3D0001            cmp [X+0],1
 0A00 A006              jz L339
 0A02 3D0002            cmp [X+0],2
 0A05 B00A              jnz L337
 0A07           L339:
 0A07                   .dbline 652
 0A07           ; }
 0A07                   .dbline 653
 0A07           ; }
 0A07 5D00              mov A,REG[ 0]
 0A09 62D000            mov REG[0xd0],>__r0
 0A0C 6000              mov REG[ 0],A
 0A0E                   .dbline 654
 0A0E           ; }
 0A0E 800D              xjmp L338
 0A10           L337:
 0A10                   .dbline 655
 0A10           ; }
 0A10 3D0003            cmp [X+0],3
 0A13 B008              jnz L340
 0A15                   .dbline 656
 0A15           ; }
 0A15                   .dbline 657
 0A15           ; }
 0A15 5004              mov A,4
 0A17 08                push A
 0A18 900B              xcall _Tipo_fla
 0A1A 38FF              add SP,-1
 0A1C                   .dbline 658
 0A1C           ; }
 0A1C           L340:
 0A1C           L338:
 0A1C                   .dbline 659
 0A1C           L324:
 0A1C                   .dbline 659
 0A1C           ; }
 0A1C 3D0004            cmp [X+0],4
 0A1F BF5C              jnz L323
 0A21                   .dbline -2
 0A21                   .dbline 660
 0A21           ; }
 0A21           L322:
 0A21 38FD              add SP,-3
 0A23 20                pop X
 0A24                   .dbline 0 ; func end
 0A24 7F                ret
 0A25                   .dbsym l x 1 i
 0A25                   .dbsym l pulsat 0 c
 0A25                   .dbend
 0A25                   .dbfunc e Tipo_fla _Tipo_fla fV
 0A25           ;              x -> X+2
 0A25           ;           menu -> X+1
 0A25           ;         pulsat -> X+0
 0A25           ;          flash -> X-4
 0A25           _Tipo_fla::
 0A25                   .dbline -1
 0A25 10                push X
 0A26 4F                mov X,SP
 0A27 3804              add SP,4
 0A29                   .dbline 669
 0A29           ; }
 0A29           ; }
 0A29           ; }
 0A29           ; }
 0A29           ; }
 0A29           ; }
 0A29           ; }
 0A29           ; }
 0A29           ; }
 0A29                   .dbline 673
 0A29           ; }
 0A29           ; }
 0A29           ; }
 0A29           ; }
 0A29 3DFC01            cmp [X-4],1
 0A2C B00C              jnz L343
 0A2E                   .dbline 673
 0A2E 62D000            mov REG[0xd0],>_Fla1
 0A31 5100              mov A,[_Fla1]
 0A33 0101              add A,1
 0A35 5401              mov [X+1],A
 0A37 802F              xjmp L344
 0A39           L343:
 0A39                   .dbline 674
 0A39           ; }
 0A39 3DFC02            cmp [X-4],2
 0A3C B00C              jnz L345
 0A3E                   .dbline 674
 0A3E 62D000            mov REG[0xd0],>_Fla2
 0A41 5100              mov A,[_Fla2]
 0A43 0101              add A,1
 0A45 5401              mov [X+1],A
 0A47 801F              xjmp L346
 0A49           L345:
 0A49                   .dbline 675
 0A49           ; }
 0A49 3DFC03            cmp [X-4],3
 0A4C B00C              jnz L347
 0A4E                   .dbline 675
 0A4E 62D000            mov REG[0xd0],>_Fla3
 0A51 5100              mov A,[_Fla3]
 0A53 0101              add A,1
 0A55 5401              mov [X+1],A
 0A57 800F              xjmp L348
 0A59           L347:
 0A59                   .dbline 676
 0A59           ; }
 0A59 3DFC04            cmp [X-4],4
 0A5C B00A              jnz L349
 0A5E                   .dbline 676
 0A5E 62D000            mov REG[0xd0],>_Fla4
 0A61 5100              mov A,[_Fla4]
 0A63 0101              add A,1
 0A65 5401              mov [X+1],A
 0A67           L349:
 0A67           L348:
 0A67           L346:
 0A67           L344:
 0A67           L351:
 0A67                   .dbline 679
 0A67           ; }
 0A67           ; }
 0A67           ; }
 0A67                   .dbline 680
 0A67           ; }
 0A67 10                push X
 0A68 5001              mov A,1
 0A6A 7C0000            xcall _LCD_Control
 0A6D                   .dbline 681
 0A6D           ; }
 0A6D 50FD              mov A,>L354
 0A6F 08                push A
 0A70 50FD              mov A,<L354
 0A72 5C                mov X,A
 0A73 18                pop A
 0A74 7C0000            xcall _LCD_PrCString
 0A77                   .dbline 682
 0A77           ; }
 0A77 5700              mov X,0
 0A79 5001              mov A,1
 0A7B 7C0000            xcall _LCD_Position
 0A7E 20                pop X
 0A7F                   .dbline 683
 0A7F           ; }
 0A7F 3D0101            cmp [X+1],1
 0A82 B00F              jnz L355
 0A84                   .dbline 683
 0A84 10                push X
 0A85 503C              mov A,>L265
 0A87 08                push A
 0A88 503C              mov A,<L265
 0A8A 5C                mov X,A
 0A8B 18                pop A
 0A8C 7C0000            xcall _LCD_PrCString
 0A8F 20                pop X
 0A90 8038              xjmp L356
 0A92           L355:
 0A92                   .dbline 684
 0A92           ; }
 0A92 3D0102            cmp [X+1],2
 0A95 B00F              jnz L357
 0A97                   .dbline 684
 0A97 10                push X
 0A98 5033              mov A,>L268
 0A9A 08                push A
 0A9B 5033              mov A,<L268
 0A9D 5C                mov X,A
 0A9E 18                pop A
 0A9F 7C0000            xcall _LCD_PrCString
 0AA2 20                pop X
 0AA3 8025              xjmp L358
 0AA5           L357:
 0AA5                   .dbline 685
 0AA5           ; }
 0AA5 3D0103            cmp [X+1],3
 0AA8 B00F              jnz L359
 0AAA                   .dbline 685
 0AAA 10                push X
 0AAB 502A              mov A,>L271
 0AAD 08                push A
 0AAE 502A              mov A,<L271
 0AB0 5C                mov X,A
 0AB1 18                pop A
 0AB2 7C0000            xcall _LCD_PrCString
 0AB5 20                pop X
 0AB6 8012              xjmp L360
 0AB8           L359:
 0AB8                   .dbline 686
 0AB8           ; }
 0AB8 3D0104            cmp [X+1],4
 0ABB B00D              jnz L361
 0ABD                   .dbline 686
 0ABD 10                push X
 0ABE 5024              mov A,>L274
 0AC0 08                push A
 0AC1 5024              mov A,<L274
 0AC3 5C                mov X,A
 0AC4 18                pop A
 0AC5 7C0000            xcall _LCD_PrCString
 0AC8 20                pop X
 0AC9           L361:
 0AC9           L360:
 0AC9           L358:
 0AC9           L356:
 0AC9                   .dbline 687
 0AC9           ; }
 0AC9 7C00E8            xcall _bucle_temp
 0ACC                   .dbline 688
 0ACC           ; }
 0ACC 7C018A            xcall _Pulsador
 0ACF 5400              mov [X+0],A
 0AD1                   .dbline 689
 0AD1           ; }
 0AD1 62D000            mov REG[0xd0],>_Buzzer
 0AD4 3C0001            cmp [_Buzzer],1
 0AD7 B004              jnz L363
 0AD9                   .dbline 689
 0AD9 7C0139            xcall _Pitido
 0ADC           L363:
 0ADC                   .dbline 690
 0ADC           ; }
 0ADC 3D0001            cmp [X+0],1
 0ADF B019              jnz L365
 0AE1                   .dbline 691
 0AE1           ; }
 0AE1                   .dbline 692
 0AE1           ; }
 0AE1 62D000            mov REG[0xd0],>__r0
 0AE4 5201              mov A,[X+1]
 0AE6 0101              add A,1
 0AE8 5300              mov [__r0],A
 0AEA 5004              mov A,4
 0AEC 3A00              cmp A,[__r0]
 0AEE D006              jnc L367
 0AF0           X11:
 0AF0                   .dbline 692
 0AF0 560101            mov [X+1],1
 0AF3 8064              xjmp L366
 0AF5           L367:
 0AF5                   .dbline 693
 0AF5           ; }
 0AF5 7701              inc [X+1]
 0AF7                   .dbline 694
 0AF7           ; }
 0AF7 8060              xjmp L366
 0AF9           L365:
 0AF9                   .dbline 695
 0AF9           ; }
 0AF9 3D0003            cmp [X+0],3
 0AFC B044              jnz L369
 0AFE                   .dbline 696
 0AFE           ; }
 0AFE                   .dbline 697
 0AFE           ; }
 0AFE 3DFC01            cmp [X-4],1
 0B01 B00C              jnz L371
 0B03                   .dbline 697
 0B03 5201              mov A,[X+1]
 0B05 1101              sub A,1
 0B07 62D000            mov REG[0xd0],>_Fla1
 0B0A 5300              mov [_Fla1],A
 0B0C 802F              xjmp L372
 0B0E           L371:
 0B0E                   .dbline 698
 0B0E           ; }
 0B0E 3DFC02            cmp [X-4],2
 0B11 B00C              jnz L373
 0B13                   .dbline 698
 0B13 5201              mov A,[X+1]
 0B15 1101              sub A,1
 0B17 62D000            mov REG[0xd0],>_Fla2
 0B1A 5300              mov [_Fla2],A
 0B1C 801F              xjmp L374
 0B1E           L373:
 0B1E                   .dbline 699
 0B1E           ; }
 0B1E 3DFC03            cmp [X-4],3
 0B21 B00C              jnz L375
 0B23                   .dbline 699
 0B23 5201              mov A,[X+1]
 0B25 1101              sub A,1
 0B27 62D000            mov REG[0xd0],>_Fla3
 0B2A 5300              mov [_Fla3],A
 0B2C 800F              xjmp L376
 0B2E           L375:
 0B2E                   .dbline 700
 0B2E           ; }
 0B2E 3DFC04            cmp [X-4],4
 0B31 B00A              jnz L377
 0B33                   .dbline 700
 0B33 5201              mov A,[X+1]
 0B35 1101              sub A,1
 0B37 62D000            mov REG[0xd0],>_Fla4
 0B3A 5300              mov [_Fla4],A
 0B3C           L377:
 0B3C           L376:
 0B3C           L374:
 0B3C           L372:
 0B3C                   .dbline 701
 0B3C           ; }
 0B3C 560004            mov [X+0],4
 0B3F                   .dbline 702
 0B3F           ; }
 0B3F 8018              xjmp L370
 0B41           L369:
 0B41                   .dbline 703
 0B41           ; }
 0B41 3D0002            cmp [X+0],2
 0B44 B013              jnz L379
 0B46                   .dbline 704
 0B46           ; }
 0B46                   .dbline 705
 0B46           ; }
 0B46 62D000            mov REG[0xd0],>__r0
 0B49 5201              mov A,[X+1]
 0B4B 1101              sub A,1
 0B4D 3901              cmp A,1
 0B4F D006              jnc L381
 0B51           X12:
 0B51                   .dbline 705
 0B51 560104            mov [X+1],4
 0B54 8003              xjmp L382
 0B56           L381:
 0B56                   .dbline 706
 0B56           ; }
 0B56 7B01              dec [X+1]
 0B58           L382:
 0B58                   .dbline 707
 0B58           ; }
 0B58           L379:
 0B58           L370:
 0B58           L366:
 0B58                   .dbline 708
 0B58           L352:
 0B58                   .dbline 708
 0B58           ; }
 0B58 3D0004            cmp [X+0],4
 0B5B BF0B              jnz L351
 0B5D                   .dbline -2
 0B5D                   .dbline 709
 0B5D           ; }
 0B5D           L342:
 0B5D 38FC              add SP,-4
 0B5F 20                pop X
 0B60                   .dbline 0 ; func end
 0B60 7F                ret
 0B61                   .dbsym l x 2 i
 0B61                   .dbsym l menu 1 c
 0B61                   .dbsym l pulsat 0 c
 0B61                   .dbsym l flash -4 c
 0B61                   .dbend
 0B61                   .dbfunc e Dispar _Dispar fV
 0B61           ;              x -> X+2
 0B61           ;           menu -> X+1
 0B61           ;         pulsat -> X+0
 0B61           _Dispar::
 0B61                   .dbline -1
 0B61 10                push X
 0B62 4F                mov X,SP
 0B63 3804              add SP,4
 0B65                   .dbline 719
 0B65           ; }
 0B65           ; }
 0B65           ; }
 0B65           ; }
 0B65           ; }
 0B65           ; }
 0B65           ; }
 0B65           ; }
 0B65           ; }
 0B65           ; }
 0B65                   .dbline 721
 0B65           ; }
 0B65           ; }
 0B65 560101            mov [X+1],1
 0B68           L384:
 0B68                   .dbline 725
 0B68           ; }
 0B68           ; }
 0B68           ; }
 0B68           ; }
 0B68                   .dbline 726
 0B68           ; }
 0B68 10                push X
 0B69 5001              mov A,1
 0B6B 7C0000            xcall _LCD_Control
 0B6E                   .dbline 727
 0B6E           ; }
 0B6E 50EE              mov A,>L387
 0B70 08                push A
 0B71 50EE              mov A,<L387
 0B73 5C                mov X,A
 0B74 18                pop A
 0B75 7C0000            xcall _LCD_PrCString
 0B78                   .dbline 728
 0B78           ; }
 0B78 5700              mov X,0
 0B7A 5001              mov A,1
 0B7C 7C0000            xcall _LCD_Position
 0B7F 20                pop X
 0B80                   .dbline 729
 0B80           ; }
 0B80 3D0101            cmp [X+1],1
 0B83 B00F              jnz L388
 0B85                   .dbline 729
 0B85 10                push X
 0B86 50E3              mov A,>L390
 0B88 08                push A
 0B89 50E3              mov A,<L390
 0B8B 5C                mov X,A
 0B8C 18                pop A
 0B8D 7C0000            xcall _LCD_PrCString
 0B90 20                pop X
 0B91 8012              xjmp L389
 0B93           L388:
 0B93                   .dbline 730
 0B93           ; }
 0B93 3D0102            cmp [X+1],2
 0B96 B00D              jnz L391
 0B98                   .dbline 730
 0B98 10                push X
 0B99 50D8              mov A,>L393
 0B9B 08                push A
 0B9C 50D8              mov A,<L393
 0B9E 5C                mov X,A
 0B9F 18                pop A
 0BA0 7C0000            xcall _LCD_PrCString
 0BA3 20                pop X
 0BA4           L391:
 0BA4           L389:
 0BA4                   .dbline 731
 0BA4           ; }
 0BA4 7C00E8            xcall _bucle_temp
 0BA7                   .dbline 732
 0BA7           ; }
 0BA7 7C018A            xcall _Pulsador
 0BAA 5400              mov [X+0],A
 0BAC                   .dbline 733
 0BAC           ; }
 0BAC 62D000            mov REG[0xd0],>_Buzzer
 0BAF 3C0001            cmp [_Buzzer],1
 0BB2 B004              jnz L394
 0BB4                   .dbline 733
 0BB4 7C0139            xcall _Pitido
 0BB7           L394:
 0BB7                   .dbline 734
 0BB7           ; }
 0BB7 3D0001            cmp [X+0],1
 0BBA B019              jnz L396
 0BBC                   .dbline 735
 0BBC           ; }
 0BBC                   .dbline 736
 0BBC           ; }
 0BBC 62D000            mov REG[0xd0],>__r0
 0BBF 5201              mov A,[X+1]
 0BC1 0101              add A,1
 0BC3 5300              mov [__r0],A
 0BC5 5002              mov A,2
 0BC7 3A00              cmp A,[__r0]
 0BC9 D006              jnc L398
 0BCB           X13:
 0BCB                   .dbline 736
 0BCB 560101            mov [X+1],1
 0BCE 8033              xjmp L397
 0BD0           L398:
 0BD0                   .dbline 737
 0BD0           ; }
 0BD0 7701              inc [X+1]
 0BD2                   .dbline 738
 0BD2           ; }
 0BD2 802F              xjmp L397
 0BD4           L396:
 0BD4                   .dbline 739
 0BD4           ; }
 0BD4 3D0003            cmp [X+0],3
 0BD7 B013              jnz L400
 0BD9                   .dbline 740
 0BD9           ; }
 0BD9                   .dbline 741
 0BD9           ; }
 0BD9 3D0101            cmp [X+1],1
 0BDC B005              jnz L402
 0BDE                   .dbline 741
 0BDE 902B              xcall _Camara1
 0BE0 8021              xjmp L401
 0BE2           L402:
 0BE2                   .dbline 742
 0BE2           ; }
 0BE2 3D0102            cmp [X+1],2
 0BE5 B01C              jnz L401
 0BE7                   .dbline 742
 0BE7 90CF              xcall _Camara2
 0BE9                   .dbline 743
 0BE9           ; }
 0BE9 8018              xjmp L401
 0BEB           L400:
 0BEB                   .dbline 744
 0BEB           ; }
 0BEB 3D0002            cmp [X+0],2
 0BEE B013              jnz L406
 0BF0                   .dbline 745
 0BF0           ; }
 0BF0                   .dbline 746
 0BF0           ; }
 0BF0 62D000            mov REG[0xd0],>__r0
 0BF3 5201              mov A,[X+1]
 0BF5 1101              sub A,1
 0BF7 3901              cmp A,1
 0BF9 D006              jnc L408
 0BFB           X14:
 0BFB                   .dbline 746
 0BFB 560102            mov [X+1],2
 0BFE 8003              xjmp L409
 0C00           L408:
 0C00                   .dbline 747
 0C00           ; }
 0C00 7B01              dec [X+1]
 0C02           L409:
 0C02                   .dbline 748
 0C02           ; }
 0C02           L406:
 0C02           L401:
 0C02           L397:
 0C02                   .dbline 749
 0C02           L385:
 0C02                   .dbline 749
 0C02           ; }
 0C02 3D0004            cmp [X+0],4
 0C05 BF62              jnz L384
 0C07                   .dbline -2
 0C07                   .dbline 750
 0C07           ; }
 0C07           L383:
 0C07 38FC              add SP,-4
 0C09 20                pop X
 0C0A                   .dbline 0 ; func end
 0C0A 7F                ret
 0C0B                   .dbsym l x 2 i
 0C0B                   .dbsym l menu 1 c
 0C0B                   .dbsym l pulsat 0 c
 0C0B                   .dbend
 0C0B                   .dbfunc e Camara1 _Camara1 fV
 0C0B           ;              x -> X+1
 0C0B           ;         pulsat -> X+0
 0C0B           _Camara1::
 0C0B                   .dbline -1
 0C0B 10                push X
 0C0C 4F                mov X,SP
 0C0D 3803              add SP,3
 0C0F                   .dbline 759
 0C0F           ; }
 0C0F           ; }
 0C0F           ; }
 0C0F           ; }
 0C0F           ; }
 0C0F           ; }
 0C0F           ; }
 0C0F           ; }
 0C0F           ; }
 0C0F           L411:
 0C0F                   .dbline 764
 0C0F           ; }
 0C0F           ; }
 0C0F           ; }
 0C0F           ; }
 0C0F           ; }
 0C0F                   .dbline 765
 0C0F           ; }
 0C0F 10                push X
 0C10 5001              mov A,1
 0C12 7C0000            xcall _LCD_Control
 0C15                   .dbline 766
 0C15           ; }
 0C15 50CE              mov A,>L414
 0C17 08                push A
 0C18 50CE              mov A,<L414
 0C1A 5C                mov X,A
 0C1B 18                pop A
 0C1C 7C0000            xcall _LCD_PrCString
 0C1F                   .dbline 767
 0C1F           ; }
 0C1F 5700              mov X,0
 0C21 5001              mov A,1
 0C23 7C0000            xcall _LCD_Position
 0C26 20                pop X
 0C27                   .dbline 768
 0C27           ; }
 0C27 62D000            mov REG[0xd0],>_Cam1
 0C2A 3C0000            cmp [_Cam1],0
 0C2D B00F              jnz L415
 0C2F                   .dbline 768
 0C2F 10                push X
 0C30 50C3              mov A,>L417
 0C32 08                push A
 0C33 50C3              mov A,<L417
 0C35 5C                mov X,A
 0C36 18                pop A
 0C37 7C0000            xcall _LCD_PrCString
 0C3A 20                pop X
 0C3B 8041              xjmp L416
 0C3D           L415:
 0C3D                   .dbline 769
 0C3D           ; }
 0C3D 62D000            mov REG[0xd0],>_Cam1
 0C40 3C0001            cmp [_Cam1],1
 0C43 B00F              jnz L418
 0C45                   .dbline 769
 0C45 10                push X
 0C46 50B7              mov A,>L420
 0C48 08                push A
 0C49 50B7              mov A,<L420
 0C4B 5C                mov X,A
 0C4C 18                pop A
 0C4D 7C0000            xcall _LCD_PrCString
 0C50 20                pop X
 0C51 802B              xjmp L419
 0C53           L418:
 0C53                   .dbline 770
 0C53           ; }
 0C53 62D000            mov REG[0xd0],>_Cam1
 0C56 3C0002            cmp [_Cam1],2
 0C59 B00F              jnz L421
 0C5B                   .dbline 770
 0C5B 10                push X
 0C5C 50A8              mov A,>L423
 0C5E 08                push A
 0C5F 50A8              mov A,<L423
 0C61 5C                mov X,A
 0C62 18                pop A
 0C63 7C0000            xcall _LCD_PrCString
 0C66 20                pop X
 0C67 8015              xjmp L422
 0C69           L421:
 0C69                   .dbline 771
 0C69           ; }
 0C69 62D000            mov REG[0xd0],>_Cam1
 0C6C 3C0003            cmp [_Cam1],3
 0C6F B00D              jnz L424
 0C71                   .dbline 771
 0C71 10                push X
 0C72 509D              mov A,>L426
 0C74 08                push A
 0C75 509D              mov A,<L426
 0C77 5C                mov X,A
 0C78 18                pop A
 0C79 7C0000            xcall _LCD_PrCString
 0C7C 20                pop X
 0C7D           L424:
 0C7D           L422:
 0C7D           L419:
 0C7D           L416:
 0C7D                   .dbline 772
 0C7D           ; }
 0C7D 7C00E8            xcall _bucle_temp
 0C80                   .dbline 773
 0C80           ; }
 0C80 7C018A            xcall _Pulsador
 0C83 5400              mov [X+0],A
 0C85                   .dbline 774
 0C85           ; }
 0C85 62D000            mov REG[0xd0],>_Buzzer
 0C88 3C0001            cmp [_Buzzer],1
 0C8B B004              jnz L427
 0C8D                   .dbline 774
 0C8D 7C0139            xcall _Pitido
 0C90           L427:
 0C90                   .dbline 775
 0C90           ; }
 0C90 3D0001            cmp [X+0],1
 0C93 A006              jz L431
 0C95 3D0002            cmp [X+0],2
 0C98 B00A              jnz L429
 0C9A           L431:
 0C9A                   .dbline 776
 0C9A           ; }
 0C9A                   .dbline 777
 0C9A           ; }
 0C9A 5D00              mov A,REG[ 0]
 0C9C 62D000            mov REG[0xd0],>__r0
 0C9F 6000              mov REG[ 0],A
 0CA1                   .dbline 778
 0CA1           ; }
 0CA1 800D              xjmp L430
 0CA3           L429:
 0CA3                   .dbline 779
 0CA3           ; }
 0CA3 3D0003            cmp [X+0],3
 0CA6 B008              jnz L432
 0CA8                   .dbline 780
 0CA8           ; }
 0CA8                   .dbline 781
 0CA8           ; }
 0CA8 5001              mov A,1
 0CAA 08                push A
 0CAB 90B8              xcall _Tipo_disp
 0CAD 38FF              add SP,-1
 0CAF                   .dbline 782
 0CAF           ; }
 0CAF           L432:
 0CAF           L430:
 0CAF                   .dbline 783
 0CAF           L412:
 0CAF                   .dbline 783
 0CAF           ; }
 0CAF 3D0004            cmp [X+0],4
 0CB2 BF5C              jnz L411
 0CB4                   .dbline -2
 0CB4                   .dbline 784
 0CB4           ; }
 0CB4           L410:
 0CB4 38FD              add SP,-3
 0CB6 20                pop X
 0CB7                   .dbline 0 ; func end
 0CB7 7F                ret
 0CB8                   .dbsym l x 1 i
 0CB8                   .dbsym l pulsat 0 c
 0CB8                   .dbend
 0CB8                   .dbfunc e Camara2 _Camara2 fV
 0CB8           ;              x -> X+1
 0CB8           ;         pulsat -> X+0
 0CB8           _Camara2::
 0CB8                   .dbline -1
 0CB8 10                push X
 0CB9 4F                mov X,SP
 0CBA 3803              add SP,3
 0CBC                   .dbline 793
 0CBC           ; }
 0CBC           ; }
 0CBC           ; }
 0CBC           ; }
 0CBC           ; }
 0CBC           ; }
 0CBC           ; }
 0CBC           ; }
 0CBC           ; }
 0CBC           L435:
 0CBC                   .dbline 798
 0CBC           ; }
 0CBC           ; }
 0CBC           ; }
 0CBC           ; }
 0CBC           ; }
 0CBC                   .dbline 799
 0CBC           ; }
 0CBC 10                push X
 0CBD 5001              mov A,1
 0CBF 7C0000            xcall _LCD_Control
 0CC2                   .dbline 800
 0CC2           ; }
 0CC2 5093              mov A,>L438
 0CC4 08                push A
 0CC5 5093              mov A,<L438
 0CC7 5C                mov X,A
 0CC8 18                pop A
 0CC9 7C0000            xcall _LCD_PrCString
 0CCC                   .dbline 801
 0CCC           ; }
 0CCC 5700              mov X,0
 0CCE 5001              mov A,1
 0CD0 7C0000            xcall _LCD_Position
 0CD3 20                pop X
 0CD4                   .dbline 802
 0CD4           ; }
 0CD4 62D000            mov REG[0xd0],>_Cam2
 0CD7 3C0000            cmp [_Cam2],0
 0CDA B00F              jnz L439
 0CDC                   .dbline 802
 0CDC 10                push X
 0CDD 50C3              mov A,>L417
 0CDF 08                push A
 0CE0 50C3              mov A,<L417
 0CE2 5C                mov X,A
 0CE3 18                pop A
 0CE4 7C0000            xcall _LCD_PrCString
 0CE7 20                pop X
 0CE8 8041              xjmp L440
 0CEA           L439:
 0CEA                   .dbline 803
 0CEA           ; }
 0CEA 62D000            mov REG[0xd0],>_Cam2
 0CED 3C0001            cmp [_Cam2],1
 0CF0 B00F              jnz L441
 0CF2                   .dbline 803
 0CF2 10                push X
 0CF3 50B7              mov A,>L420
 0CF5 08                push A
 0CF6 50B7              mov A,<L420
 0CF8 5C                mov X,A
 0CF9 18                pop A
 0CFA 7C0000            xcall _LCD_PrCString
 0CFD 20                pop X
 0CFE 802B              xjmp L442
 0D00           L441:
 0D00                   .dbline 804
 0D00           ; }
 0D00 62D000            mov REG[0xd0],>_Cam2
 0D03 3C0002            cmp [_Cam2],2
 0D06 B00F              jnz L443
 0D08                   .dbline 804
 0D08 10                push X
 0D09 50A8              mov A,>L423
 0D0B 08                push A
 0D0C 50A8              mov A,<L423
 0D0E 5C                mov X,A
 0D0F 18                pop A
 0D10 7C0000            xcall _LCD_PrCString
 0D13 20                pop X
 0D14 8015              xjmp L444
 0D16           L443:
 0D16                   .dbline 805
 0D16           ; }
 0D16 62D000            mov REG[0xd0],>_Cam2
 0D19 3C0003            cmp [_Cam2],3
 0D1C B00D              jnz L445
 0D1E                   .dbline 805
 0D1E 10                push X
 0D1F 509D              mov A,>L426
 0D21 08                push A
 0D22 509D              mov A,<L426
 0D24 5C                mov X,A
 0D25 18                pop A
 0D26 7C0000            xcall _LCD_PrCString
 0D29 20                pop X
 0D2A           L445:
 0D2A           L444:
 0D2A           L442:
 0D2A           L440:
 0D2A                   .dbline 806
 0D2A           ; }
 0D2A 7C00E8            xcall _bucle_temp
 0D2D                   .dbline 807
 0D2D           ; }
 0D2D 7C018A            xcall _Pulsador
 0D30 5400              mov [X+0],A
 0D32                   .dbline 808
 0D32           ; }
 0D32 62D000            mov REG[0xd0],>_Buzzer
 0D35 3C0001            cmp [_Buzzer],1
 0D38 B004              jnz L447
 0D3A                   .dbline 808
 0D3A 7C0139            xcall _Pitido
 0D3D           L447:
 0D3D                   .dbline 809
 0D3D           ; }
 0D3D 3D0001            cmp [X+0],1
 0D40 A006              jz L451
 0D42 3D0002            cmp [X+0],2
 0D45 B00A              jnz L449
 0D47           L451:
 0D47                   .dbline 810
 0D47           ; }
 0D47                   .dbline 811
 0D47           ; }
 0D47 5D00              mov A,REG[ 0]
 0D49 62D000            mov REG[0xd0],>__r0
 0D4C 6000              mov REG[ 0],A
 0D4E                   .dbline 812
 0D4E           ; }
 0D4E 800D              xjmp L450
 0D50           L449:
 0D50                   .dbline 813
 0D50           ; }
 0D50 3D0003            cmp [X+0],3
 0D53 B008              jnz L452
 0D55                   .dbline 814
 0D55           ; }
 0D55                   .dbline 815
 0D55           ; }
 0D55 5002              mov A,2
 0D57 08                push A
 0D58 900B              xcall _Tipo_disp
 0D5A 38FF              add SP,-1
 0D5C                   .dbline 816
 0D5C           ; }
 0D5C           L452:
 0D5C           L450:
 0D5C                   .dbline 817
 0D5C           L436:
 0D5C                   .dbline 817
 0D5C           ; }
 0D5C 3D0004            cmp [X+0],4
 0D5F BF5C              jnz L435
 0D61                   .dbline -2
 0D61                   .dbline 818
 0D61           ; }
 0D61           L434:
 0D61 38FD              add SP,-3
 0D63 20                pop X
 0D64                   .dbline 0 ; func end
 0D64 7F                ret
 0D65                   .dbsym l x 1 i
 0D65                   .dbsym l pulsat 0 c
 0D65                   .dbend
 0D65                   .dbfunc e Tipo_disp _Tipo_disp fV
 0D65           ;              x -> X+2
 0D65           ;           menu -> X+1
 0D65           ;         pulsat -> X+0
 0D65           ;         camara -> X-4
 0D65           _Tipo_disp::
 0D65                   .dbline -1
 0D65 10                push X
 0D66 4F                mov X,SP
 0D67 3804              add SP,4
 0D69                   .dbline 828
 0D69           ; }
 0D69           ; }
 0D69           ; }
 0D69           ; }
 0D69           ; }
 0D69           ; }
 0D69           ; }
 0D69           ; }
 0D69           ; }
 0D69           ; }
 0D69                   .dbline 832
 0D69           ; }
 0D69           ; }
 0D69           ; }
 0D69           ; }
 0D69 3DFC01            cmp [X-4],1
 0D6C B00C              jnz L455
 0D6E                   .dbline 832
 0D6E 62D000            mov REG[0xd0],>_Cam1
 0D71 5100              mov A,[_Cam1]
 0D73 0101              add A,1
 0D75 5401              mov [X+1],A
 0D77 800F              xjmp L456
 0D79           L455:
 0D79                   .dbline 833
 0D79           ; }
 0D79 3DFC02            cmp [X-4],2
 0D7C B00A              jnz L457
 0D7E                   .dbline 833
 0D7E 62D000            mov REG[0xd0],>_Cam2
 0D81 5100              mov A,[_Cam2]
 0D83 0101              add A,1
 0D85 5401              mov [X+1],A
 0D87           L457:
 0D87           L456:
 0D87           L459:
 0D87                   .dbline 836
 0D87           ; }
 0D87           ; }
 0D87           ; }
 0D87                   .dbline 837
 0D87           ; }
 0D87 10                push X
 0D88 5001              mov A,1
 0D8A 7C0000            xcall _LCD_Control
 0D8D                   .dbline 838
 0D8D           ; }
 0D8D 5084              mov A,>L462
 0D8F 08                push A
 0D90 5084              mov A,<L462
 0D92 5C                mov X,A
 0D93 18                pop A
 0D94 7C0000            xcall _LCD_PrCString
 0D97                   .dbline 839
 0D97           ; }
 0D97 5700              mov X,0
 0D99 5001              mov A,1
 0D9B 7C0000            xcall _LCD_Position
 0D9E 20                pop X
 0D9F                   .dbline 840
 0D9F           ; }
 0D9F 3D0101            cmp [X+1],1
 0DA2 B00F              jnz L463
 0DA4                   .dbline 840
 0DA4 10                push X
 0DA5 50C3              mov A,>L417
 0DA7 08                push A
 0DA8 50C3              mov A,<L417
 0DAA 5C                mov X,A
 0DAB 18                pop A
 0DAC 7C0000            xcall _LCD_PrCString
 0DAF 20                pop X
 0DB0 8038              xjmp L464
 0DB2           L463:
 0DB2                   .dbline 841
 0DB2           ; }
 0DB2 3D0102            cmp [X+1],2
 0DB5 B00F              jnz L465
 0DB7                   .dbline 841
 0DB7 10                push X
 0DB8 50B7              mov A,>L420
 0DBA 08                push A
 0DBB 50B7              mov A,<L420
 0DBD 5C                mov X,A
 0DBE 18                pop A
 0DBF 7C0000            xcall _LCD_PrCString
 0DC2 20                pop X
 0DC3 8025              xjmp L466
 0DC5           L465:
 0DC5                   .dbline 842
 0DC5           ; }
 0DC5 3D0103            cmp [X+1],3
 0DC8 B00F              jnz L467
 0DCA                   .dbline 842
 0DCA 10                push X
 0DCB 50A8              mov A,>L423
 0DCD 08                push A
 0DCE 50A8              mov A,<L423
 0DD0 5C                mov X,A
 0DD1 18                pop A
 0DD2 7C0000            xcall _LCD_PrCString
 0DD5 20                pop X
 0DD6 8012              xjmp L468
 0DD8           L467:
 0DD8                   .dbline 843
 0DD8           ; }
 0DD8 3D0104            cmp [X+1],4
 0DDB B00D              jnz L469
 0DDD                   .dbline 843
 0DDD 10                push X
 0DDE 509D              mov A,>L426
 0DE0 08                push A
 0DE1 509D              mov A,<L426
 0DE3 5C                mov X,A
 0DE4 18                pop A
 0DE5 7C0000            xcall _LCD_PrCString
 0DE8 20                pop X
 0DE9           L469:
 0DE9           L468:
 0DE9           L466:
 0DE9           L464:
 0DE9                   .dbline 844
 0DE9           ; }
 0DE9 7C00E8            xcall _bucle_temp
 0DEC                   .dbline 845
 0DEC           ; }
 0DEC 7C018A            xcall _Pulsador
 0DEF 5400              mov [X+0],A
 0DF1                   .dbline 846
 0DF1           ; }
 0DF1 62D000            mov REG[0xd0],>_Buzzer
 0DF4 3C0001            cmp [_Buzzer],1
 0DF7 B004              jnz L471
 0DF9                   .dbline 846
 0DF9 7C0139            xcall _Pitido
 0DFC           L471:
 0DFC                   .dbline 847
 0DFC           ; }
 0DFC 3D0001            cmp [X+0],1
 0DFF B019              jnz L473
 0E01                   .dbline 848
 0E01           ; }
 0E01                   .dbline 849
 0E01           ; }
 0E01 62D000            mov REG[0xd0],>__r0
 0E04 5201              mov A,[X+1]
 0E06 0101              add A,1
 0E08 5300              mov [__r0],A
 0E0A 5004              mov A,4
 0E0C 3A00              cmp A,[__r0]
 0E0E D006              jnc L475
 0E10           X15:
 0E10                   .dbline 849
 0E10 560101            mov [X+1],1
 0E13 806A              xjmp L474
 0E15           L475:
 0E15                   .dbline 850
 0E15           ; }
 0E15 7701              inc [X+1]
 0E17                   .dbline 851
 0E17           ; }
 0E17 8066              xjmp L474
 0E19           L473:
 0E19                   .dbline 852
 0E19           ; }
 0E19 3D0003            cmp [X+0],3
 0E1C B04A              jnz L477
 0E1E                   .dbline 853
 0E1E           ; }
 0E1E                   .dbline 854
 0E1E           ; }
 0E1E 3D0101            cmp [X+1],1
 0E21 A006              jz L481
 0E23 3D0102            cmp [X+1],2
 0E26 B021              jnz L479
 0E28           L481:
 0E28                   .dbline 855
 0E28           ; }
 0E28                   .dbline 856
 0E28           ; }
 0E28 3DFC01            cmp [X-4],1
 0E2B B00C              jnz L482
 0E2D                   .dbline 856
 0E2D 5201              mov A,[X+1]
 0E2F 1101              sub A,1
 0E31 62D000            mov REG[0xd0],>_Cam1
 0E34 5300              mov [_Cam1],A
 0E36 802B              xjmp L480
 0E38           L482:
 0E38                   .dbline 857
 0E38           ; }
 0E38 3DFC02            cmp [X-4],2
 0E3B B026              jnz L480
 0E3D                   .dbline 857
 0E3D 5201              mov A,[X+1]
 0E3F 1101              sub A,1
 0E41 62D000            mov REG[0xd0],>_Cam2
 0E44 5300              mov [_Cam2],A
 0E46                   .dbline 858
 0E46           ; }
 0E46 801B              xjmp L480
 0E48           L479:
 0E48                   .dbline 859
 0E48           ; }
 0E48 3D0103            cmp [X+1],3
 0E4B B00A              jnz L486
 0E4D                   .dbline 859
 0E4D 52FC              mov A,[X-4]
 0E4F 08                push A
 0E50 9035              xcall _Intervalometro
 0E52 38FF              add SP,-1
 0E54 800D              xjmp L487
 0E56           L486:
 0E56                   .dbline 860
 0E56           ; }
 0E56 3D0104            cmp [X+1],4
 0E59 B008              jnz L488
 0E5B                   .dbline 860
 0E5B 52FC              mov A,[X-4]
 0E5D 08                push A
 0E5E 9127              xcall _TimeLapse
 0E60 38FF              add SP,-1
 0E62           L488:
 0E62           L487:
 0E62           L480:
 0E62                   .dbline 861
 0E62           ; }
 0E62 560004            mov [X+0],4
 0E65                   .dbline 862
 0E65           ; }
 0E65 8018              xjmp L478
 0E67           L477:
 0E67                   .dbline 863
 0E67           ; }
 0E67 3D0002            cmp [X+0],2
 0E6A B013              jnz L490
 0E6C                   .dbline 864
 0E6C           ; }
 0E6C                   .dbline 865
 0E6C           ; }
 0E6C 62D000            mov REG[0xd0],>__r0
 0E6F 5201              mov A,[X+1]
 0E71 1101              sub A,1
 0E73 3901              cmp A,1
 0E75 D006              jnc L492
 0E77           X16:
 0E77                   .dbline 865
 0E77 560104            mov [X+1],4
 0E7A 8003              xjmp L493
 0E7C           L492:
 0E7C                   .dbline 866
 0E7C           ; }
 0E7C 7B01              dec [X+1]
 0E7E           L493:
 0E7E                   .dbline 867
 0E7E           ; }
 0E7E           L490:
 0E7E           L478:
 0E7E           L474:
 0E7E                   .dbline 868
 0E7E           L460:
 0E7E                   .dbline 868
 0E7E           ; }
 0E7E 3D0004            cmp [X+0],4
 0E81 BF05              jnz L459
 0E83                   .dbline -2
 0E83                   .dbline 869
 0E83           ; }
 0E83           L454:
 0E83 38FC              add SP,-4
 0E85 20                pop X
 0E86                   .dbline 0 ; func end
 0E86 7F                ret
 0E87                   .dbsym l x 2 i
 0E87                   .dbsym l menu 1 c
 0E87                   .dbsym l pulsat 0 c
 0E87                   .dbsym l camara -4 c
 0E87                   .dbend
 0E87                   .dbfunc e Intervalometro _Intervalometro fV
 0E87           ;              x -> X+2
 0E87           ;           menu -> X+1
 0E87           ;         pulsat -> X+0
 0E87           ;         camara -> X-4
 0E87           _Intervalometro::
 0E87                   .dbline -1
 0E87 10                push X
 0E88 4F                mov X,SP
 0E89 3804              add SP,4
 0E8B                   .dbline 877
 0E8B           ; }
 0E8B           ; }
 0E8B           ; }
 0E8B           ; }
 0E8B           ; }
 0E8B           ; }
 0E8B           ; }
 0E8B           ; }
 0E8B                   .dbline 878
 0E8B           ; }
 0E8B 560101            mov [X+1],1
 0E8E                   .dbline 881
 0E8E           ; }
 0E8E           ; }
 0E8E           ; }
 0E8E 3DFC01            cmp [X-4],1
 0E91 B009              jnz L495
 0E93                   .dbline 881
 0E93 62D000            mov REG[0xd0],>_Cam1
 0E96 550002            mov [_Cam1],2
 0E99 800C              xjmp L496
 0E9B           L495:
 0E9B                   .dbline 882
 0E9B           ; }
 0E9B 3DFC02            cmp [X-4],2
 0E9E B007              jnz L497
 0EA0                   .dbline 882
 0EA0 62D000            mov REG[0xd0],>_Cam2
 0EA3 550002            mov [_Cam2],2
 0EA6           L497:
 0EA6           L496:
 0EA6           L499:
 0EA6                   .dbline 884
 0EA6           ; }
 0EA6           ; }
 0EA6                   .dbline 885
 0EA6           ; }
 0EA6 10                push X
 0EA7 5001              mov A,1
 0EA9 7C0000            xcall _LCD_Control
 0EAC                   .dbline 886
 0EAC           ; }
 0EAC 5074              mov A,>L502
 0EAE 08                push A
 0EAF 5074              mov A,<L502
 0EB1 5C                mov X,A
 0EB2 18                pop A
 0EB3 7C0000            xcall _LCD_PrCString
 0EB6                   .dbline 887
 0EB6           ; }
 0EB6 5700              mov X,0
 0EB8 5001              mov A,1
 0EBA 7C0000            xcall _LCD_Position
 0EBD 20                pop X
 0EBE                   .dbline 888
 0EBE           ; }
 0EBE 3D0101            cmp [X+1],1
 0EC1 B00F              jnz L503
 0EC3                   .dbline 888
 0EC3 10                push X
 0EC4 5067              mov A,>L505
 0EC6 08                push A
 0EC7 5067              mov A,<L505
 0EC9 5C                mov X,A
 0ECA 18                pop A
 0ECB 7C0000            xcall _LCD_PrCString
 0ECE 20                pop X
 0ECF 8012              xjmp L504
 0ED1           L503:
 0ED1                   .dbline 889
 0ED1           ; }
 0ED1 3D0102            cmp [X+1],2
 0ED4 B00D              jnz L506
 0ED6                   .dbline 889
 0ED6 10                push X
 0ED7 5057              mov A,>L508
 0ED9 08                push A
 0EDA 5057              mov A,<L508
 0EDC 5C                mov X,A
 0EDD 18                pop A
 0EDE 7C0000            xcall _LCD_PrCString
 0EE1 20                pop X
 0EE2           L506:
 0EE2           L504:
 0EE2                   .dbline 890
 0EE2           ; }
 0EE2 7C00E8            xcall _bucle_temp
 0EE5                   .dbline 891
 0EE5           ; }
 0EE5 7C018A            xcall _Pulsador
 0EE8 5400              mov [X+0],A
 0EEA                   .dbline 892
 0EEA           ; }
 0EEA 62D000            mov REG[0xd0],>_Buzzer
 0EED 3C0001            cmp [_Buzzer],1
 0EF0 B004              jnz L509
 0EF2                   .dbline 892
 0EF2 7C0139            xcall _Pitido
 0EF5           L509:
 0EF5                   .dbline 893
 0EF5           ; }
 0EF5 3D0001            cmp [X+0],1
 0EF8 B019              jnz L511
 0EFA                   .dbline 894
 0EFA           ; }
 0EFA                   .dbline 895
 0EFA           ; }
 0EFA 62D000            mov REG[0xd0],>__r0
 0EFD 5201              mov A,[X+1]
 0EFF 0101              add A,1
 0F01 5300              mov [__r0],A
 0F03 5002              mov A,2
 0F05 3A00              cmp A,[__r0]
 0F07 D006              jnc L513
 0F09           X17:
 0F09                   .dbline 895
 0F09 560101            mov [X+1],1
 0F0C 8071              xjmp L512
 0F0E           L513:
 0F0E                   .dbline 896
 0F0E           ; }
 0F0E 7701              inc [X+1]
 0F10                   .dbline 897
 0F10           ; }
 0F10 806D              xjmp L512
 0F12           L511:
 0F12                   .dbline 898
 0F12           ; }
 0F12 3D0003            cmp [X+0],3
 0F15 B051              jnz L515
 0F17                   .dbline 899
 0F17           ; }
 0F17                   .dbline 900
 0F17           ; }
 0F17 3D0101            cmp [X+1],1
 0F1A B02B              jnz L517
 0F1C                   .dbline 901
 0F1C           ; }
 0F1C                   .dbline 902
 0F1C           ; }
 0F1C 3DFC01            cmp [X-4],1
 0F1F B011              jnz L519
 0F21                   .dbline 903
 0F21           ; }
 0F21                   .dbline 904
 0F21           ; }
 0F21 9172              xcall _Numeros
 0F23 62D000            mov REG[0xd0],>_Int1_Tdisp
 0F26 5300              mov [_Int1_Tdisp],A
 0F28                   .dbline 905
 0F28           ; }
 0F28 923A              xcall _Tiempos
 0F2A 62D000            mov REG[0xd0],>_Int1_Tdisp_Uni
 0F2D 5300              mov [_Int1_Tdisp_Uni],A
 0F2F                   .dbline 906
 0F2F           ; }
 0F2F 804E              xjmp L516
 0F31           L519:
 0F31                   .dbline 907
 0F31           ; }
 0F31 3DFC02            cmp [X-4],2
 0F34 B049              jnz L516
 0F36                   .dbline 908
 0F36           ; }
 0F36                   .dbline 909
 0F36           ; }
 0F36 915D              xcall _Numeros
 0F38 62D000            mov REG[0xd0],>_Int2_Tdisp
 0F3B 5300              mov [_Int2_Tdisp],A
 0F3D                   .dbline 910
 0F3D           ; }
 0F3D 9225              xcall _Tiempos
 0F3F 62D000            mov REG[0xd0],>_Int2_Tdisp_Uni
 0F42 5300              mov [_Int2_Tdisp_Uni],A
 0F44                   .dbline 911
 0F44           ; }
 0F44                   .dbline 912
 0F44           ; }
 0F44 8039              xjmp L516
 0F46           L517:
 0F46                   .dbline 913
 0F46           ; }
 0F46 3D0102            cmp [X+1],2
 0F49 B034              jnz L516
 0F4B                   .dbline 914
 0F4B           ; }
 0F4B                   .dbline 915
 0F4B           ; }
 0F4B 3DFC01            cmp [X-4],1
 0F4E B00A              jnz L525
 0F50                   .dbline 915
 0F50 9143              xcall _Numeros
 0F52 62D000            mov REG[0xd0],>_Int1_Ndisp
 0F55 5300              mov [_Int1_Ndisp],A
 0F57 8026              xjmp L516
 0F59           L525:
 0F59                   .dbline 916
 0F59           ; }
 0F59 3DFC02            cmp [X-4],2
 0F5C B021              jnz L516
 0F5E                   .dbline 916
 0F5E 9135              xcall _Numeros
 0F60 62D000            mov REG[0xd0],>_Int2_Ndisp
 0F63 5300              mov [_Int2_Ndisp],A
 0F65                   .dbline 917
 0F65           ; }
 0F65                   .dbline 918
 0F65           ; }
 0F65 8018              xjmp L516
 0F67           L515:
 0F67                   .dbline 919
 0F67           ; }
 0F67 3D0002            cmp [X+0],2
 0F6A B013              jnz L529
 0F6C                   .dbline 920
 0F6C           ; }
 0F6C                   .dbline 921
 0F6C           ; }
 0F6C 62D000            mov REG[0xd0],>__r0
 0F6F 5201              mov A,[X+1]
 0F71 1101              sub A,1
 0F73 3901              cmp A,1
 0F75 D006              jnc L531
 0F77           X18:
 0F77                   .dbline 921
 0F77 560102            mov [X+1],2
 0F7A 8003              xjmp L532
 0F7C           L531:
 0F7C                   .dbline 922
 0F7C           ; }
 0F7C 7B01              dec [X+1]
 0F7E           L532:
 0F7E                   .dbline 923
 0F7E           ; }
 0F7E           L529:
 0F7E           L516:
 0F7E           L512:
 0F7E                   .dbline 924
 0F7E           L500:
 0F7E                   .dbline 924
 0F7E           ; }
 0F7E 3D0004            cmp [X+0],4
 0F81 BF24              jnz L499
 0F83                   .dbline -2
 0F83                   .dbline 926
 0F83           ; }
 0F83           ; }
 0F83           L494:
 0F83 38FC              add SP,-4
 0F85 20                pop X
 0F86                   .dbline 0 ; func end
 0F86 7F                ret
 0F87                   .dbsym l x 2 i
 0F87                   .dbsym l menu 1 c
 0F87                   .dbsym l pulsat 0 c
 0F87                   .dbsym l camara -4 c
 0F87                   .dbend
 0F87                   .dbfunc e TimeLapse _TimeLapse fV
 0F87           ;              x -> X+2
 0F87           ;           menu -> X+1
 0F87           ;         pulsat -> X+0
 0F87           ;         camara -> X-4
 0F87           _TimeLapse::
 0F87                   .dbline -1
 0F87 10                push X
 0F88 4F                mov X,SP
 0F89 3804              add SP,4
 0F8B                   .dbline 934
 0F8B           ; }
 0F8B           ; }
 0F8B           ; }
 0F8B           ; }
 0F8B           ; }
 0F8B           ; }
 0F8B           ; }
 0F8B           ; }
 0F8B                   .dbline 935
 0F8B           ; }
 0F8B 560101            mov [X+1],1
 0F8E                   .dbline 938
 0F8E           ; }
 0F8E           ; }
 0F8E           ; }
 0F8E 3DFC01            cmp [X-4],1
 0F91 B009              jnz L534
 0F93                   .dbline 938
 0F93 62D000            mov REG[0xd0],>_Cam1
 0F96 550003            mov [_Cam1],3
 0F99 800C              xjmp L535
 0F9B           L534:
 0F9B                   .dbline 939
 0F9B           ; }
 0F9B 3DFC02            cmp [X-4],2
 0F9E B007              jnz L536
 0FA0                   .dbline 939
 0FA0 62D000            mov REG[0xd0],>_Cam2
 0FA3 550003            mov [_Cam2],3
 0FA6           L536:
 0FA6           L535:
 0FA6           L538:
 0FA6                   .dbline 941
 0FA6           ; }
 0FA6           ; }
 0FA6                   .dbline 942
 0FA6           ; }
 0FA6 10                push X
 0FA7 5001              mov A,1
 0FA9 7C0000            xcall _LCD_Control
 0FAC                   .dbline 943
 0FAC           ; }
 0FAC 504B              mov A,>L541
 0FAE 08                push A
 0FAF 504B              mov A,<L541
 0FB1 5C                mov X,A
 0FB2 18                pop A
 0FB3 7C0000            xcall _LCD_PrCString
 0FB6                   .dbline 944
 0FB6           ; }
 0FB6 5700              mov X,0
 0FB8 5001              mov A,1
 0FBA 7C0000            xcall _LCD_Position
 0FBD 20                pop X
 0FBE                   .dbline 945
 0FBE           ; }
 0FBE 3D0101            cmp [X+1],1
 0FC1 B00F              jnz L542
 0FC3                   .dbline 945
 0FC3 10                push X
 0FC4 503F              mov A,>L544
 0FC6 08                push A
 0FC7 503F              mov A,<L544
 0FC9 5C                mov X,A
 0FCA 18                pop A
 0FCB 7C0000            xcall _LCD_PrCString
 0FCE 20                pop X
 0FCF 8012              xjmp L543
 0FD1           L542:
 0FD1                   .dbline 946
 0FD1           ; }
 0FD1 3D0102            cmp [X+1],2
 0FD4 B00D              jnz L545
 0FD6                   .dbline 946
 0FD6 10                push X
 0FD7 5032              mov A,>L547
 0FD9 08                push A
 0FDA 5032              mov A,<L547
 0FDC 5C                mov X,A
 0FDD 18                pop A
 0FDE 7C0000            xcall _LCD_PrCString
 0FE1 20                pop X
 0FE2           L545:
 0FE2           L543:
 0FE2                   .dbline 947
 0FE2           ; }
 0FE2 7C00E8            xcall _bucle_temp
 0FE5                   .dbline 948
 0FE5           ; }
 0FE5 7C018A            xcall _Pulsador
 0FE8 5400              mov [X+0],A
 0FEA                   .dbline 949
 0FEA           ; }
 0FEA 62D000            mov REG[0xd0],>_Buzzer
 0FED 3C0001            cmp [_Buzzer],1
 0FF0 B004              jnz L548
 0FF2                   .dbline 949
 0FF2 7C0139            xcall _Pitido
 0FF5           L548:
 0FF5                   .dbline 950
 0FF5           ; }
 0FF5 3D0001            cmp [X+0],1
 0FF8 B019              jnz L550
 0FFA                   .dbline 951
 0FFA           ; }
 0FFA                   .dbline 952
 0FFA           ; }
 0FFA 62D000            mov REG[0xd0],>__r0
 0FFD 5201              mov A,[X+1]
 0FFF 0101              add A,1
 1001 5300              mov [__r0],A
 1003 5002              mov A,2
 1005 3A00              cmp A,[__r0]
 1007 D006              jnc L552
 1009           X19:
 1009                   .dbline 952
 1009 560101            mov [X+1],1
 100C 807F              xjmp L551
 100E           L552:
 100E                   .dbline 953
 100E           ; }
 100E 7701              inc [X+1]
 1010                   .dbline 954
 1010           ; }
 1010 807B              xjmp L551
 1012           L550:
 1012                   .dbline 955
 1012           ; }
 1012 3D0003            cmp [X+0],3
 1015 B05F              jnz L554
 1017                   .dbline 956
 1017           ; }
 1017                   .dbline 957
 1017           ; }
 1017 3D0101            cmp [X+1],1
 101A B02B              jnz L556
 101C                   .dbline 958
 101C           ; }
 101C                   .dbline 959
 101C           ; }
 101C 3DFC01            cmp [X-4],1
 101F B011              jnz L558
 1021                   .dbline 960
 1021           ; }
 1021                   .dbline 961
 1021           ; }
 1021 9072              xcall _Numeros
 1023 62D000            mov REG[0xd0],>_TL1_Treal
 1026 5300              mov [_TL1_Treal],A
 1028                   .dbline 962
 1028           ; }
 1028 913A              xcall _Tiempos
 102A 62D000            mov REG[0xd0],>_TL1_Treal_Uni
 102D 5300              mov [_TL1_Treal_Uni],A
 102F                   .dbline 963
 102F           ; }
 102F 805C              xjmp L555
 1031           L558:
 1031                   .dbline 964
 1031           ; }
 1031 3DFC02            cmp [X-4],2
 1034 B057              jnz L555
 1036                   .dbline 965
 1036           ; }
 1036                   .dbline 966
 1036           ; }
 1036 905D              xcall _Numeros
 1038 62D000            mov REG[0xd0],>_TL2_Treal
 103B 5300              mov [_TL2_Treal],A
 103D                   .dbline 967
 103D           ; }
 103D 9125              xcall _Tiempos
 103F 62D000            mov REG[0xd0],>_TL2_Treal_Uni
 1042 5300              mov [_TL2_Treal_Uni],A
 1044                   .dbline 968
 1044           ; }
 1044                   .dbline 969
 1044           ; }
 1044 8047              xjmp L555
 1046           L556:
 1046                   .dbline 970
 1046           ; }
 1046 3D0102            cmp [X+1],2
 1049 B042              jnz L555
 104B                   .dbline 971
 104B           ; }
 104B                   .dbline 972
 104B           ; }
 104B 3DFC01            cmp [X-4],1
 104E B011              jnz L564
 1050                   .dbline 973
 1050           ; }
 1050                   .dbline 974
 1050           ; }
 1050 9043              xcall _Numeros
 1052 62D000            mov REG[0xd0],>_TL1_Tfilm
 1055 5300              mov [_TL1_Tfilm],A
 1057                   .dbline 975
 1057           ; }
 1057 910B              xcall _Tiempos
 1059 62D000            mov REG[0xd0],>_TL1_Tfilm_Uni
 105C 5300              mov [_TL1_Tfilm_Uni],A
 105E                   .dbline 976
 105E           ; }
 105E 802D              xjmp L555
 1060           L564:
 1060                   .dbline 977
 1060           ; }
 1060 3DFC02            cmp [X-4],2
 1063 B028              jnz L555
 1065                   .dbline 978
 1065           ; }
 1065                   .dbline 979
 1065           ; }
 1065 902E              xcall _Numeros
 1067 62D000            mov REG[0xd0],>_TL2_Tfilm
 106A 5300              mov [_TL2_Tfilm],A
 106C                   .dbline 980
 106C           ; }
 106C 90F6              xcall _Tiempos
 106E 62D000            mov REG[0xd0],>_TL2_Tfilm_Uni
 1071 5300              mov [_TL2_Tfilm_Uni],A
 1073                   .dbline 981
 1073           ; }
 1073                   .dbline 982
 1073           ; }
 1073                   .dbline 983
 1073           ; }
 1073 8018              xjmp L555
 1075           L554:
 1075                   .dbline 984
 1075           ; }
 1075 3D0002            cmp [X+0],2
 1078 B013              jnz L568
 107A                   .dbline 985
 107A           ; }
 107A                   .dbline 986
 107A           ; }
 107A 62D000            mov REG[0xd0],>__r0
 107D 5201              mov A,[X+1]
 107F 1101              sub A,1
 1081 3901              cmp A,1
 1083 D006              jnc L570
 1085           X20:
 1085                   .dbline 986
 1085 560102            mov [X+1],2
 1088 8003              xjmp L571
 108A           L570:
 108A                   .dbline 987
 108A           ; }
 108A 7B01              dec [X+1]
 108C           L571:
 108C                   .dbline 988
 108C           ; }
 108C           L568:
 108C           L555:
 108C           L551:
 108C                   .dbline 989
 108C           L539:
 108C                   .dbline 989
 108C           ; }
 108C 3D0004            cmp [X+0],4
 108F BF16              jnz L538
 1091                   .dbline -2
 1091                   .dbline 991
 1091           ; }
 1091           ; }
 1091           L533:
 1091 38FC              add SP,-4
 1093 20                pop X
 1094                   .dbline 0 ; func end
 1094 7F                ret
 1095                   .dbsym l x 2 i
 1095                   .dbsym l menu 1 c
 1095                   .dbsym l pulsat 0 c
 1095                   .dbsym l camara -4 c
 1095                   .dbend
 1095                   .dbfunc e Numeros _Numeros fc
 1095           ;           menu -> X+6
 1095           ;         pulsat -> X+5
 1095           ;        mostrar -> X+4
 1095           ;              x -> X+2
 1095           ;       recortar -> X+1
 1095           ;          zeros -> X+0
 1095           _Numeros::
 1095                   .dbline -1
 1095 10                push X
 1096 4F                mov X,SP
 1097 3807              add SP,7
 1099                   .dbline 999
 1099           ; }
 1099           ; }
 1099           ; }
 1099           ; }
 1099           ; }
 1099           ; }
 1099           ; }
 1099           ; }
 1099                   .dbline 1000
 1099           ; }
 1099 560601            mov [X+6],1
 109C           L573:
 109C                   .dbline 1004
 109C           ; }
 109C           ; }
 109C           ; }
 109C           ; }
 109C                   .dbline 1005
 109C           ; }
 109C 10                push X
 109D 5001              mov A,1
 109F 7C0000            xcall _LCD_Control
 10A2                   .dbline 1006
 10A2           ; }
 10A2 5024              mov A,>L576
 10A4 08                push A
 10A5 5024              mov A,<L576
 10A7 5C                mov X,A
 10A8 18                pop A
 10A9 7C0000            xcall _LCD_PrCString
 10AC                   .dbline 1007
 10AC           ; }
 10AC 5700              mov X,0
 10AE 5001              mov A,1
 10B0 7C0000            xcall _LCD_Position
 10B3 20                pop X
 10B4                   .dbline 1008
 10B4           ; }
 10B4 560300            mov [X+3],0
 10B7 560200            mov [X+2],0
 10BA 560064            mov [X+0],100
 10BD 5206              mov A,[X+6]
 10BF 5401              mov [X+1],A
 10C1 803C              xjmp L580
 10C3           L577:
 10C3                   .dbline 1009
 10C3                   .dbline 1010
 10C3 5200              mov A,[X+0]
 10C5 08                push A
 10C6 5201              mov A,[X+1]
 10C8 08                push A
 10C9 62D000            mov REG[0xd0],>__r0
 10CC 7C0000            xcall __divmodu_8X8_8
 10CF 18                pop A
 10D0 5404              mov [X+4],A
 10D2 38FF              add SP,-1
 10D4                   .dbline 1011
 10D4 5200              mov A,[X+0]
 10D6 08                push A
 10D7 5201              mov A,[X+1]
 10D9 08                push A
 10DA 7C0000            xcall __divmodu_8X8_8
 10DD 38FF              add SP,-1
 10DF 18                pop A
 10E0 5401              mov [X+1],A
 10E2                   .dbline 1012
 10E2 500A              mov A,10
 10E4 08                push A
 10E5 5200              mov A,[X+0]
 10E7 08                push A
 10E8 7C0000            xcall __divmodu_8X8_8
 10EB 18                pop A
 10EC 5400              mov [X+0],A
 10EE 38FF              add SP,-1
 10F0                   .dbline 1013
 10F0 5204              mov A,[X+4]
 10F2 0130              add A,48
 10F4 10                push X
 10F5 7C0000            xcall _LCD_WriteData
 10F8 20                pop X
 10F9                   .dbline 1014
 10F9           L578:
 10F9                   .dbline 1008
 10F9 7703              inc [X+3]
 10FB 0F0200            adc [X+2],0
 10FE           L580:
 10FE                   .dbline 1008
 10FE 5203              mov A,[X+3]
 1100 1103              sub A,3
 1102 5202              mov A,[X+2]
 1104 1900              sbb A,0
 1106 CFBC              jc L577
 1108           X21:
 1108                   .dbline 1015
 1108           ; }
 1108           ; }
 1108           ; }
 1108           ; }
 1108           ; }
 1108           ; }
 1108           ; }
 1108 7C00E8            xcall _bucle_temp
 110B                   .dbline 1016
 110B           ; }
 110B 7C018A            xcall _Pulsador
 110E 5405              mov [X+5],A
 1110                   .dbline 1017
 1110           ; }
 1110 62D000            mov REG[0xd0],>_Buzzer
 1113 3C0001            cmp [_Buzzer],1
 1116 B004              jnz L581
 1118                   .dbline 1017
 1118 7C0139            xcall _Pitido
 111B           L581:
 111B                   .dbline 1018
 111B           ; }
 111B 3D0501            cmp [X+5],1
 111E B019              jnz L583
 1120                   .dbline 1019
 1120           ; }
 1120                   .dbline 1020
 1120           ; }
 1120 62D000            mov REG[0xd0],>__r0
 1123 5206              mov A,[X+6]
 1125 0101              add A,1
 1127 5300              mov [__r0],A
 1129 5064              mov A,100
 112B 3A00              cmp A,[__r0]
 112D D006              jnc L585
 112F           X22:
 112F                   .dbline 1020
 112F 560601            mov [X+6],1
 1132 8028              xjmp L584
 1134           L585:
 1134                   .dbline 1021
 1134           ; }
 1134 7706              inc [X+6]
 1136                   .dbline 1022
 1136           ; }
 1136 8024              xjmp L584
 1138           L583:
 1138                   .dbline 1023
 1138           ; }
 1138 3D0503            cmp [X+5],3
 113B B008              jnz L587
 113D                   .dbline 1024
 113D           ; }
 113D                   .dbline 1025
 113D           ; }
 113D 5206              mov A,[X+6]
 113F 62D000            mov REG[0xd0],>__r0
 1142 801D              xjmp L572
 1144           L587:
 1144                   .dbline 1027
 1144           ; }
 1144           ; }
 1144 3D0502            cmp [X+5],2
 1147 B013              jnz L589
 1149                   .dbline 1028
 1149           ; }
 1149                   .dbline 1029
 1149           ; }
 1149 62D000            mov REG[0xd0],>__r0
 114C 5206              mov A,[X+6]
 114E 1101              sub A,1
 1150 3901              cmp A,1
 1152 D006              jnc L591
 1154           X23:
 1154                   .dbline 1029
 1154 560664            mov [X+6],100
 1157 8003              xjmp L592
 1159           L591:
 1159                   .dbline 1030
 1159           ; }
 1159 7B06              dec [X+6]
 115B           L592:
 115B                   .dbline 1031
 115B           ; }
 115B           L589:
 115B           L584:
 115B                   .dbline 1032
 115B           L574:
 115B                   .dbline 1032
 115B           ; }
 115B 3D0505            cmp [X+5],5
 115E BF3D              jnz L573
 1160                   .dbline -2
 1160                   .dbline 1033
 1160           ; }
 1160           L572:
 1160 38F9              add SP,-7
 1162 20                pop X
 1163                   .dbline 0 ; func end
 1163 7F                ret
 1164                   .dbsym l menu 6 c
 1164                   .dbsym l pulsat 5 c
 1164                   .dbsym l mostrar 4 c
 1164                   .dbsym l x 2 i
 1164                   .dbsym l recortar 1 c
 1164                   .dbsym l zeros 0 c
 1164                   .dbend
 1164                   .dbfunc e Tiempos _Tiempos fc
 1164           ;              x -> X+2
 1164           ;           menu -> X+1
 1164           ;         pulsat -> X+0
 1164           _Tiempos::
 1164                   .dbline -1
 1164 10                push X
 1165 4F                mov X,SP
 1166 3804              add SP,4
 1168                   .dbline 1041
 1168           ; }
 1168           ; }
 1168           ; }
 1168           ; }
 1168           ; }
 1168           ; }
 1168           ; }
 1168           ; }
 1168                   .dbline 1042
 1168           ; }
 1168 560101            mov [X+1],1
 116B           L594:
 116B                   .dbline 1046
 116B           ; }
 116B           ; }
 116B           ; }
 116B           ; }
 116B                   .dbline 1047
 116B           ; }
 116B 10                push X
 116C 5001              mov A,1
 116E 7C0000            xcall _LCD_Control
 1171                   .dbline 1048
 1171           ; }
 1171 5014              mov A,>L597
 1173 08                push A
 1174 5014              mov A,<L597
 1176 5C                mov X,A
 1177 18                pop A
 1178 7C0000            xcall _LCD_PrCString
 117B                   .dbline 1049
 117B           ; }
 117B 5700              mov X,0
 117D 5001              mov A,1
 117F 7C0000            xcall _LCD_Position
 1182 20                pop X
 1183                   .dbline 1050
 1183           ; }
 1183 3D0101            cmp [X+1],1
 1186 B00F              jnz L598
 1188                   .dbline 1050
 1188 10                push X
 1189 500B              mov A,>L600
 118B 08                push A
 118C 500B              mov A,<L600
 118E 5C                mov X,A
 118F 18                pop A
 1190 7C0000            xcall _LCD_PrCString
 1193 20                pop X
 1194 8025              xjmp L599
 1196           L598:
 1196                   .dbline 1051
 1196           ; }
 1196 3D0102            cmp [X+1],2
 1199 B00F              jnz L601
 119B                   .dbline 1051
 119B 10                push X
 119C 5003              mov A,>L603
 119E 08                push A
 119F 5003              mov A,<L603
 11A1 5C                mov X,A
 11A2 18                pop A
 11A3 7C0000            xcall _LCD_PrCString
 11A6 20                pop X
 11A7 8012              xjmp L602
 11A9           L601:
 11A9                   .dbline 1052
 11A9           ; }
 11A9 3D0103            cmp [X+1],3
 11AC B00D              jnz L604
 11AE                   .dbline 1052
 11AE 10                push X
 11AF 50FD              mov A,>L606
 11B1 08                push A
 11B2 50FD              mov A,<L606
 11B4 5C                mov X,A
 11B5 18                pop A
 11B6 7C0000            xcall _LCD_PrCString
 11B9 20                pop X
 11BA           L604:
 11BA           L602:
 11BA           L599:
 11BA                   .dbline 1053
 11BA           ; }
 11BA 7C00E8            xcall _bucle_temp
 11BD                   .dbline 1054
 11BD           ; }
 11BD 7C018A            xcall _Pulsador
 11C0 5400              mov [X+0],A
 11C2                   .dbline 1055
 11C2           ; }
 11C2 62D000            mov REG[0xd0],>_Buzzer
 11C5 3C0001            cmp [_Buzzer],1
 11C8 B004              jnz L607
 11CA                   .dbline 1055
 11CA 7C0139            xcall _Pitido
 11CD           L607:
 11CD                   .dbline 1056
 11CD           ; }
 11CD 3D0001            cmp [X+0],1
 11D0 B019              jnz L609
 11D2                   .dbline 1057
 11D2           ; }
 11D2                   .dbline 1058
 11D2           ; }
 11D2 62D000            mov REG[0xd0],>__r0
 11D5 5201              mov A,[X+1]
 11D7 0101              add A,1
 11D9 5300              mov [__r0],A
 11DB 5003              mov A,3
 11DD 3A00              cmp A,[__r0]
 11DF D006              jnc L611
 11E1           X24:
 11E1                   .dbline 1058
 11E1 560101            mov [X+1],1
 11E4 8028              xjmp L610
 11E6           L611:
 11E6                   .dbline 1059
 11E6           ; }
 11E6 7701              inc [X+1]
 11E8                   .dbline 1060
 11E8           ; }
 11E8 8024              xjmp L610
 11EA           L609:
 11EA                   .dbline 1061
 11EA           ; }
 11EA 3D0003            cmp [X+0],3
 11ED B008              jnz L613
 11EF                   .dbline 1062
 11EF           ; }
 11EF                   .dbline 1063
 11EF           ; }
 11EF 5201              mov A,[X+1]
 11F1 62D000            mov REG[0xd0],>__r0
 11F4 801D              xjmp L593
 11F6           L613:
 11F6                   .dbline 1065
 11F6           ; }
 11F6           ; }
 11F6 3D0002            cmp [X+0],2
 11F9 B013              jnz L615
 11FB                   .dbline 1066
 11FB           ; }
 11FB                   .dbline 1067
 11FB           ; }
 11FB 62D000            mov REG[0xd0],>__r0
 11FE 5201              mov A,[X+1]
 1200 1101              sub A,1
 1202 3901              cmp A,1
 1204 D006              jnc L617
 1206           X25:
 1206                   .dbline 1067
 1206 560103            mov [X+1],3
 1209 8003              xjmp L618
 120B           L617:
 120B                   .dbline 1068
 120B           ; }
 120B 7B01              dec [X+1]
 120D           L618:
 120D                   .dbline 1069
 120D           ; }
 120D           L615:
 120D           L610:
 120D                   .dbline 1070
 120D           L595:
 120D                   .dbline 1070
 120D           ; }
 120D 3D0005            cmp [X+0],5
 1210 BF5A              jnz L594
 1212                   .dbline -2
 1212                   .dbline 1071
 1212           ; }
 1212           L593:
 1212 38FC              add SP,-4
 1214 20                pop X
 1215                   .dbline 0 ; func end
 1215 7F                ret
 1216                   .dbsym l x 2 i
 1216                   .dbsym l menu 1 c
 1216                   .dbsym l pulsat 0 c
 1216                   .dbend
 1216                   .dbfunc e Executar _Executar fV
 1216           ;              x -> X+2
 1216           ;           menu -> X+1
 1216           ;         pulsat -> X+0
 1216           _Executar::
 1216                   .dbline -1
 1216 10                push X
 1217 4F                mov X,SP
 1218 3804              add SP,4
 121A                   .dbline 1081
 121A           ; }
 121A           ; }
 121A           ; }
 121A           ; }
 121A           ; }
 121A           ; }
 121A           ; }
 121A           ; }
 121A           ; }
 121A           ; }
 121A                   .dbline 1082
 121A           ; }
 121A 560101            mov [X+1],1
 121D           L620:
 121D                   .dbline 1086
 121D           ; }
 121D           ; }
 121D           ; }
 121D           ; }
 121D                   .dbline 1087
 121D           ; }
 121D 10                push X
 121E 5001              mov A,1
 1220 7C0000            xcall _LCD_Control
 1223                   .dbline 1088
 1223           ; }
 1223 50F3              mov A,>L623
 1225 08                push A
 1226 50F3              mov A,<L623
 1228 5C                mov X,A
 1229 18                pop A
 122A 7C0000            xcall _LCD_PrCString
 122D                   .dbline 1089
 122D           ; }
 122D 5700              mov X,0
 122F 5001              mov A,1
 1231 7C0000            xcall _LCD_Position
 1234                   .dbline 1090
 1234           ; }
 1234 50EB              mov A,>L624
 1236 08                push A
 1237 50EB              mov A,<L624
 1239 5C                mov X,A
 123A 18                pop A
 123B 7C0000            xcall _LCD_PrCString
 123E 20                pop X
 123F                   .dbline 1091
 123F           ; }
 123F 7C00E8            xcall _bucle_temp
 1242                   .dbline 1092
 1242           ; }
 1242 7C018A            xcall _Pulsador
 1245 5400              mov [X+0],A
 1247                   .dbline 1093
 1247           ; }
 1247 62D000            mov REG[0xd0],>_Buzzer
 124A 3C0001            cmp [_Buzzer],1
 124D B006              jnz L625
 124F                   .dbline 1093
 124F 7C0139            xcall _Pitido
 1252 800D              xjmp L626
 1254           L625:
 1254                   .dbline 1094
 1254           ; }
 1254 3D0003            cmp [X+0],3
 1257 B008              jnz L627
 1259                   .dbline 1095
 1259           ; }
 1259                   .dbline 1096
 1259           ; }
 1259 3D0101            cmp [X+1],1
 125C B003              jnz L629
 125E                   .dbline 1096
 125E 91A1              xcall _Ara
 1260           L629:
 1260                   .dbline 1097
 1260           ; }
 1260           L627:
 1260           L626:
 1260                   .dbline 1098
 1260           L621:
 1260                   .dbline 1098
 1260           ; }
 1260 3D0004            cmp [X+0],4
 1263 BFB9              jnz L620
 1265                   .dbline -2
 1265                   .dbline 1099
 1265           ; }
 1265           L619:
 1265 38FC              add SP,-4
 1267 20                pop X
 1268                   .dbline 0 ; func end
 1268 7F                ret
 1269                   .dbsym l x 2 i
 1269                   .dbsym l menu 1 c
 1269                   .dbsym l pulsat 0 c
 1269                   .dbend
 1269                   .dbfunc e envio_valores _envio_valores fV
 1269           _envio_valores::
 1269                   .dbline -1
 1269                   .dbline 1114
 1269           ; }
 1269           ; }
 1269           ; }
 1269           ; }
 1269           ; }
 1269           ; }
 1269           ; }
 1269           ; }
 1269           ; }
 1269           ; }
 1269           ; }
 1269           ; }
 1269           ; }
 1269           ; }
 1269           ; }
 1269                   .dbline 1115
 1269           ; }
 1269 7C0165            xcall _Reset_PdT
 126C                   .dbline 1116
 126C           ; }
 126C 10                push X
 126D 5001              mov A,1
 126F 7C0000            xcall _LCD_Control
 1272 20                pop X
 1273                   .dbline 1117
 1273           ; }
 1273 62D000            mov REG[0xd0],>_Cam1
 1276 5100              mov A,[_Cam1]
 1278 08                push A
 1279 7C0000            xcall _envia
 127C 38FF              add SP,-1
 127E                   .dbline 1118
 127E           ; }
 127E 10                push X
 127F 5001              mov A,1
 1281 7C0000            xcall _LCD_Control
 1284                   .dbline 1119
 1284           ; }
 1284 50DF              mov A,>L632
 1286 08                push A
 1287 50DF              mov A,<L632
 1289 5C                mov X,A
 128A 18                pop A
 128B 7C0000            xcall _LCD_PrCString
 128E 20                pop X
 128F                   .dbline 1120
 128F           ; }
 128F 62D000            mov REG[0xd0],>_Cam2
 1292 5100              mov A,[_Cam2]
 1294 08                push A
 1295 7C0000            xcall _envia
 1298 38FF              add SP,-1
 129A                   .dbline 1121
 129A           ; }
 129A 10                push X
 129B 5001              mov A,1
 129D 7C0000            xcall _LCD_Control
 12A0                   .dbline 1122
 12A0           ; }
 12A0 50D3              mov A,>L633
 12A2 08                push A
 12A3 50D3              mov A,<L633
 12A5 5C                mov X,A
 12A6 18                pop A
 12A7 7C0000            xcall _LCD_PrCString
 12AA 20                pop X
 12AB                   .dbline 1123
 12AB           ; }
 12AB 62D000            mov REG[0xd0],>_Ent1
 12AE 5100              mov A,[_Ent1]
 12B0 08                push A
 12B1 7C0000            xcall _envia
 12B4 38FF              add SP,-1
 12B6                   .dbline 1124
 12B6           ; }
 12B6 10                push X
 12B7 5001              mov A,1
 12B9 7C0000            xcall _LCD_Control
 12BC                   .dbline 1125
 12BC           ; }
 12BC 50C7              mov A,>L634
 12BE 08                push A
 12BF 50C7              mov A,<L634
 12C1 5C                mov X,A
 12C2 18                pop A
 12C3 7C0000            xcall _LCD_PrCString
 12C6 20                pop X
 12C7                   .dbline 1126
 12C7           ; }
 12C7 62D000            mov REG[0xd0],>_Ent2
 12CA 5100              mov A,[_Ent2]
 12CC 08                push A
 12CD 7C0000            xcall _envia
 12D0 38FF              add SP,-1
 12D2                   .dbline 1127
 12D2           ; }
 12D2 10                push X
 12D3 5001              mov A,1
 12D5 7C0000            xcall _LCD_Control
 12D8                   .dbline 1128
 12D8           ; }
 12D8 50BB              mov A,>L635
 12DA 08                push A
 12DB 50BB              mov A,<L635
 12DD 5C                mov X,A
 12DE 18                pop A
 12DF 7C0000            xcall _LCD_PrCString
 12E2 20                pop X
 12E3                   .dbline 1129
 12E3           ; }
 12E3 62D000            mov REG[0xd0],>_Ent3
 12E6 5100              mov A,[_Ent3]
 12E8 08                push A
 12E9 7C0000            xcall _envia
 12EC 38FF              add SP,-1
 12EE                   .dbline 1130
 12EE           ; }
 12EE 10                push X
 12EF 5001              mov A,1
 12F1 7C0000            xcall _LCD_Control
 12F4                   .dbline 1131
 12F4           ; }
 12F4 50AF              mov A,>L636
 12F6 08                push A
 12F7 50AF              mov A,<L636
 12F9 5C                mov X,A
 12FA 18                pop A
 12FB 7C0000            xcall _LCD_PrCString
 12FE 20                pop X
 12FF                   .dbline 1132
 12FF           ; }
 12FF 62D000            mov REG[0xd0],>_Ent4
 1302 5100              mov A,[_Ent4]
 1304 08                push A
 1305 7C0000            xcall _envia
 1308 38FF              add SP,-1
 130A                   .dbline 1133
 130A           ; }
 130A 10                push X
 130B 5001              mov A,1
 130D 7C0000            xcall _LCD_Control
 1310                   .dbline 1134
 1310           ; }
 1310 50A3              mov A,>L637
 1312 08                push A
 1313 50A3              mov A,<L637
 1315 5C                mov X,A
 1316 18                pop A
 1317 7C0000            xcall _LCD_PrCString
 131A 20                pop X
 131B                   .dbline 1135
 131B           ; }
 131B 62D000            mov REG[0xd0],>_Fla1
 131E 5100              mov A,[_Fla1]
 1320 08                push A
 1321 7C0000            xcall _envia
 1324                   .dbline 1136
 1324           ; }
 1324 62D000            mov REG[0xd0],>_Fla2
 1327 5100              mov A,[_Fla2]
 1329 08                push A
 132A 7C0000            xcall _envia
 132D 38FE              add SP,-2
 132F                   .dbline 1137
 132F           ; }
 132F 62D000            mov REG[0xd0],>_Fla3
 1332 5100              mov A,[_Fla3]
 1334 08                push A
 1335 7C0000            xcall _envia
 1338                   .dbline 1138
 1338           ; }
 1338 62D000            mov REG[0xd0],>_Fla4
 133B 5100              mov A,[_Fla4]
 133D 08                push A
 133E 7C0000            xcall _envia
 1341 38FE              add SP,-2
 1343                   .dbline 1142
 1343           ; }
 1343           ; }
 1343           ; }
 1343           ; }
 1343 62D000            mov REG[0xd0],>_Cam1
 1346 3C0002            cmp [_Cam1],2
 1349 B00C              jnz L638
 134B                   .dbline 1143
 134B           ; }
 134B 62D000            mov REG[0xd0],>_Int1_Tdisp
 134E 5100              mov A,[_Int1_Tdisp]
 1350 08                push A
 1351 7C0000            xcall _envia
 1354 38FF              add SP,-1
 1356           L638:
 1356                   .dbline 1144
 1356           ; }
 1356 62D000            mov REG[0xd0],>_Int1_Tdisp_Uni
 1359 5100              mov A,[_Int1_Tdisp_Uni]
 135B 08                push A
 135C 7C0000            xcall _envia
 135F                   .dbline 1145
 135F           ; }
 135F 62D000            mov REG[0xd0],>_Int1_Ndisp
 1362 5100              mov A,[_Int1_Ndisp]
 1364 08                push A
 1365 7C0000            xcall _envia
 1368 38FE              add SP,-2
 136A                   .dbline 1147
 136A           ; }
 136A           ; }
 136A 62D000            mov REG[0xd0],>_Cam2
 136D 3C0002            cmp [_Cam2],2
 1370 B00C              jnz L640
 1372                   .dbline 1148
 1372           ; }
 1372 62D000            mov REG[0xd0],>_Int2_Tdisp
 1375 5100              mov A,[_Int2_Tdisp]
 1377 08                push A
 1378 7C0000            xcall _envia
 137B 38FF              add SP,-1
 137D           L640:
 137D                   .dbline 1149
 137D           ; }
 137D 62D000            mov REG[0xd0],>_Int2_Tdisp_Uni
 1380 5100              mov A,[_Int2_Tdisp_Uni]
 1382 08                push A
 1383 7C0000            xcall _envia
 1386                   .dbline 1150
 1386           ; }
 1386 62D000            mov REG[0xd0],>_Int2_Ndisp
 1389 5100              mov A,[_Int2_Ndisp]
 138B 08                push A
 138C 7C0000            xcall _envia
 138F 38FE              add SP,-2
 1391                   .dbline 1152
 1391           ; }
 1391           ; }
 1391 62D000            mov REG[0xd0],>_Cam1
 1394 3C0003            cmp [_Cam1],3
 1397 B00C              jnz L642
 1399                   .dbline 1153
 1399           ; }
 1399 62D000            mov REG[0xd0],>_TL1_Treal
 139C 5100              mov A,[_TL1_Treal]
 139E 08                push A
 139F 7C0000            xcall _envia
 13A2 38FF              add SP,-1
 13A4           L642:
 13A4                   .dbline 1154
 13A4           ; }
 13A4 62D000            mov REG[0xd0],>_TL1_Treal_Uni
 13A7 5100              mov A,[_TL1_Treal_Uni]
 13A9 08                push A
 13AA 7C0000            xcall _envia
 13AD 38FF              add SP,-1
 13AF                   .dbline 1155
 13AF           ; }
 13AF 62D000            mov REG[0xd0],>_TL1_Tfilm
 13B2 5100              mov A,[_TL1_Tfilm]
 13B4 08                push A
 13B5 7C0000            xcall _envia
 13B8                   .dbline 1156
 13B8           ; }
 13B8 62D000            mov REG[0xd0],>_TL1_Tfilm_Uni
 13BB 5100              mov A,[_TL1_Tfilm_Uni]
 13BD 08                push A
 13BE 7C0000            xcall _envia
 13C1 38FE              add SP,-2
 13C3                   .dbline 1158
 13C3           ; }
 13C3           ; }
 13C3 62D000            mov REG[0xd0],>_Cam2
 13C6 3C0003            cmp [_Cam2],3
 13C9 B00C              jnz L644
 13CB                   .dbline 1159
 13CB           ; }
 13CB 62D000            mov REG[0xd0],>_TL2_Treal
 13CE 5100              mov A,[_TL2_Treal]
 13D0 08                push A
 13D1 7C0000            xcall _envia
 13D4 38FF              add SP,-1
 13D6           L644:
 13D6                   .dbline 1160
 13D6 62D000            mov REG[0xd0],>_TL2_Treal_Uni
 13D9 5100              mov A,[_TL2_Treal_Uni]
 13DB 08                push A
 13DC 7C0000            xcall _envia
 13DF 38FF              add SP,-1
 13E1                   .dbline 1161
 13E1 62D000            mov REG[0xd0],>_TL2_Tfilm
 13E4 5100              mov A,[_TL2_Tfilm]
 13E6 08                push A
 13E7 7C0000            xcall _envia
 13EA                   .dbline 1162
 13EA 62D000            mov REG[0xd0],>_TL2_Tfilm_Uni
 13ED 5100              mov A,[_TL2_Tfilm_Uni]
 13EF 08                push A
 13F0 7C0000            xcall _envia
 13F3 38FE              add SP,-2
 13F5                   .dbline 1164
 13F5 62D000            mov REG[0xd0],>_Buzzer
 13F8 3C0001            cmp [_Buzzer],1
 13FB B004              jnz L646
 13FD                   .dbline 1164
 13FD 7C0139            xcall _Pitido
 1400           L646:
 1400                   .dbline -2
 1400                   .dbline 1167
 1400           ; }
 1400           ; }
 1400           ; }
 1400           ; }
 1400           ; }
 1400           ; }
 1400           ; }
 1400           ; }
 1400           L631:
 1400                   .dbline 0 ; func end
 1400 7F                ret
 1401                   .dbend
 1401                   .dbfunc e Ara _Ara fV
 1401           _Ara::
 1401                   .dbline -1
 1401                   .dbline 1180
 1401           ; }
 1401           ; }
 1401           ; }
 1401           ; }
 1401           ; }
 1401           ; }
 1401           ; }
 1401           ; }
 1401           ; }
 1401           ; }
 1401           ; }
 1401           ; }
 1401           ; }
 1401                   .dbline 1181
 1401           ; }
 1401 9E66              xcall _envio_valores
 1403                   .dbline 1182
 1403           ; }
 1403 9001              xcall _Trabajando
 1405                   .dbline -2
 1405                   .dbline 1183
 1405           ; }
 1405           L648:
 1405                   .dbline 0 ; func end
 1405 7F                ret
 1406                   .dbend
 1406                   .dbfunc e Trabajando _Trabajando fV
 1406           ;         pulsat -> X+2
 1406           ;              x -> X+0
 1406           _Trabajando::
 1406                   .dbline -1
 1406 10                push X
 1407 4F                mov X,SP
 1408 3803              add SP,3
 140A                   .dbline 1193
 140A           ; }
 140A           ; }
 140A           ; }
 140A           ; }
 140A           ; }
 140A           ; }
 140A           ; }
 140A           ; }
 140A           ; }
 140A           ; }
 140A                   .dbline 1197
 140A           ; }
 140A           ; }
 140A           ; }
 140A           ; }
 140A 10                push X
 140B 5001              mov A,1
 140D 7C0000            xcall _LCD_Control
 1410                   .dbline 1198
 1410           ; }
 1410 5093              mov A,>L650
 1412 08                push A
 1413 5093              mov A,<L650
 1415 5C                mov X,A
 1416 18                pop A
 1417 7C0000            xcall _LCD_PrCString
 141A 20                pop X
 141B                   .dbline 1199
 141B 560100            mov [X+1],0
 141E 560000            mov [X+0],0
 1421 8006              xjmp L654
 1423           L651:
 1423                   .dbline 1199
 1423           L652:
 1423                   .dbline 1199
 1423 7701              inc [X+1]
 1425 0F0000            adc [X+0],0
 1428           L654:
 1428                   .dbline 1199
 1428           ; }
 1428 62D000            mov REG[0xd0],>__r0
 142B 5201              mov A,[X+1]
 142D 5300              mov [__r3],A
 142F 5200              mov A,[X+0]
 1431 5300              mov [__r2],A
 1433 5100              mov A,[__r3]
 1435 1160              sub A,96
 1437 5100              mov A,[__r2]
 1439 19EA              sbb A,-22
 143B 5000              mov A,0
 143D 1900              sbb A,0
 143F 5000              mov A,0
 1441 3180              xor A,-128
 1443 1980              sbb A,(0 ^ 0x80)
 1445 CFDD              jc L651
 1447           X27:
 1447                   .dbline 1201
 1447           ; }
 1447           ; }
 1447           L655:
 1447                   .dbline 1202
 1447           ; }
 1447                   .dbline 1203
 1447           ; }
 1447 10                push X
 1448 5008              mov A,8
 144A 7C0000            xcall _LCD_Control
 144D                   .dbline 1204
 144D           ; }
 144D 5001              mov A,1
 144F 7C0000            xcall _LCD_Control
 1452 20                pop X
 1453                   .dbline 1206
 1453           ; }
 1453           ; }
 1453 7C018A            xcall _Pulsador
 1456 5402              mov [X+2],A
 1458                   .dbline 1207
 1458           ; }
 1458 62D000            mov REG[0xd0],>_Buzzer
 145B 3C0001            cmp [_Buzzer],1
 145E B004              jnz L659
 1460                   .dbline 1207
 1460 7C0139            xcall _Pitido
 1463           L659:
 1463                   .dbline 1208
 1463           ; }
 1463 3D0201            cmp [X+2],1
 1466 A00B              jz L664
 1468 3D0202            cmp [X+2],2
 146B A006              jz L664
 146D 3D0204            cmp [X+2],4
 1470 B051              jnz L661
 1472           L664:
 1472                   .dbline 1209
 1472           ; }
 1472                   .dbline 1210
 1472           ; }
 1472 10                push X
 1473 500E              mov A,14
 1475 7C0000            xcall _LCD_Control
 1478                   .dbline 1211
 1478           ; }
 1478 5083              mov A,>L665
 147A 08                push A
 147B 5083              mov A,<L665
 147D 5C                mov X,A
 147E 18                pop A
 147F 7C0000            xcall _LCD_PrCString
 1482                   .dbline 1212
 1482           ; }
 1482 5700              mov X,0
 1484 5001              mov A,1
 1486 7C0000            xcall _LCD_Position
 1489                   .dbline 1213
 1489           ; }
 1489 5071              mov A,>L666
 148B 08                push A
 148C 5071              mov A,<L666
 148E 5C                mov X,A
 148F 18                pop A
 1490 7C0000            xcall _LCD_PrCString
 1493 20                pop X
 1494                   .dbline 1214
 1494 560100            mov [X+1],0
 1497 560000            mov [X+0],0
 149A 8006              xjmp L670
 149C           L667:
 149C                   .dbline 1214
 149C           L668:
 149C                   .dbline 1214
 149C 7701              inc [X+1]
 149E 0F0000            adc [X+0],0
 14A1           L670:
 14A1                   .dbline 1214
 14A1           ; }
 14A1 62D000            mov REG[0xd0],>__r0
 14A4 5201              mov A,[X+1]
 14A6 5300              mov [__r3],A
 14A8 5200              mov A,[X+0]
 14AA 5300              mov [__r2],A
 14AC 5100              mov A,[__r3]
 14AE 1150              sub A,80
 14B0 5100              mov A,[__r2]
 14B2 19C3              sbb A,-61
 14B4 5000              mov A,0
 14B6 1900              sbb A,0
 14B8 5000              mov A,0
 14BA 3180              xor A,-128
 14BC 1980              sbb A,(0 ^ 0x80)
 14BE CFDD              jc L667
 14C0           X28:
 14C0                   .dbline 1215
 14C0           ; }
 14C0 8F86              xjmp L655
 14C2           L661:
 14C2                   .dbline 1216
 14C2           ; }
 14C2 3D0203            cmp [X+2],3
 14C5 BF81              jnz L655
 14C7                   .dbline 1217
 14C7           ; }
 14C7                   .dbline 1218
 14C7           ; }
 14C7 10                push X
 14C8 500E              mov A,14
 14CA 7C0000            xcall _LCD_Control
 14CD                   .dbline 1219
 14CD           ; }
 14CD 5062              mov A,>L673
 14CF 08                push A
 14D0 5062              mov A,<L673
 14D2 5C                mov X,A
 14D3 18                pop A
 14D4 7C0000            xcall _LCD_PrCString
 14D7 20                pop X
 14D8                   .dbline 1220
 14D8 560100            mov [X+1],0
 14DB 560000            mov [X+0],0
 14DE 8006              xjmp L677
 14E0           L674:
 14E0                   .dbline 1220
 14E0           L675:
 14E0                   .dbline 1220
 14E0 7701              inc [X+1]
 14E2 0F0000            adc [X+0],0
 14E5           L677:
 14E5                   .dbline 1220
 14E5 62D000            mov REG[0xd0],>__r0
 14E8 5201              mov A,[X+1]
 14EA 5300              mov [__r3],A
 14EC 5200              mov A,[X+0]
 14EE 5300              mov [__r2],A
 14F0 5100              mov A,[__r3]
 14F2 1150              sub A,80
 14F4 5100              mov A,[__r2]
 14F6 19C3              sbb A,-61
 14F8 5000              mov A,0
 14FA 1900              sbb A,0
 14FC 5000              mov A,0
 14FE 3180              xor A,-128
 1500 1980              sbb A,(0 ^ 0x80)
 1502 CFDD              jc L674
 1504           X29:
 1504                   .dbline 1221
 1504 9006              xcall _Resetear
 1506                   .dbline 1222
 1506                   .dbline 1223
 1506                   .dbline 1201
 1506                   .dbline 1201
 1506 8F40              xjmp L655
 1508           X26:
 1508                   .dbline -2
 1508           L649:
 1508 38FD              add SP,-3
 150A 20                pop X
 150B                   .dbline 0 ; func end
 150B 7F                ret
 150C                   .dbsym l pulsat 2 c
 150C                   .dbsym l x 0 i
 150C                   .dbend
 150C                   .dbfunc e Resetear _Resetear fV
 150C           _Resetear::
 150C                   .dbline -1
 150C                   .dbline 1233
 150C           ; }
 150C           ; }
 150C           ; }
 150C           ; }
 150C           ; }
 150C           ; }
 150C           ; }
 150C           ; }
 150C           ; }
 150C           ; }
 150C           ; }
 150C           ; }
 150C           ; }
 150C           ; }
 150C                   .dbline 1234
 150C           ; }
 150C 7C0165            xcall _Reset_PdT
 150F                   .dbline 1235
 150F           ; }
 150F 7C011C            xcall _Principal
 1512                   .dbline -2
 1512                   .dbline 1236
 1512           ; }
 1512           L678:
 1512                   .dbline 0 ; func end
 1512 7F                ret
 1513                   .dbend
 1513                   .dbfunc e Sistema _Sistema fV
 1513           ;              x -> X+2
 1513           ;           menu -> X+1
 1513           ;         pulsat -> X+0
 1513           _Sistema::
 1513                   .dbline -1
 1513 10                push X
 1514 4F                mov X,SP
 1515 3804              add SP,4
 1517                   .dbline 1246
 1517           ; }
 1517           ; }
 1517           ; }
 1517           ; }
 1517           ; }
 1517           ; }
 1517           ; }
 1517           ; }
 1517           ; }
 1517           ; }
 1517                   .dbline 1247
 1517           ; }
 1517 560101            mov [X+1],1
 151A           L680:
 151A                   .dbline 1251
 151A           ; }
 151A           ; }
 151A           ; }
 151A           ; }
 151A                   .dbline 1252
 151A           ; }
 151A 10                push X
 151B 5001              mov A,1
 151D 7C0000            xcall _LCD_Control
 1520                   .dbline 1253
 1520           ; }
 1520 5053              mov A,>L683
 1522 08                push A
 1523 5053              mov A,<L683
 1525 5C                mov X,A
 1526 18                pop A
 1527 7C0000            xcall _LCD_PrCString
 152A                   .dbline 1254
 152A           ; }
 152A 5700              mov X,0
 152C 5001              mov A,1
 152E 7C0000            xcall _LCD_Position
 1531 20                pop X
 1532                   .dbline 1255
 1532           ; }
 1532 3D0101            cmp [X+1],1
 1535 B00F              jnz L684
 1537                   .dbline 1255
 1537 10                push X
 1538 5049              mov A,>L686
 153A 08                push A
 153B 5049              mov A,<L686
 153D 5C                mov X,A
 153E 18                pop A
 153F 7C0000            xcall _LCD_PrCString
 1542 20                pop X
 1543 8025              xjmp L685
 1545           L684:
 1545                   .dbline 1256
 1545           ; }
 1545 3D0102            cmp [X+1],2
 1548 B00F              jnz L687
 154A                   .dbline 1256
 154A 10                push X
 154B 5038              mov A,>L689
 154D 08                push A
 154E 5038              mov A,<L689
 1550 5C                mov X,A
 1551 18                pop A
 1552 7C0000            xcall _LCD_PrCString
 1555 20                pop X
 1556 8012              xjmp L688
 1558           L687:
 1558                   .dbline 1257
 1558           ; }
 1558 3D0103            cmp [X+1],3
 155B B00D              jnz L690
 155D                   .dbline 1257
 155D 10                push X
 155E 5028              mov A,>L692
 1560 08                push A
 1561 5028              mov A,<L692
 1563 5C                mov X,A
 1564 18                pop A
 1565 7C0000            xcall _LCD_PrCString
 1568 20                pop X
 1569           L690:
 1569           L688:
 1569           L685:
 1569                   .dbline 1258
 1569           ; }
 1569 7C00E8            xcall _bucle_temp
 156C                   .dbline 1259
 156C           ; }
 156C 7C018A            xcall _Pulsador
 156F 5400              mov [X+0],A
 1571                   .dbline 1260
 1571           ; }
 1571 62D000            mov REG[0xd0],>_Buzzer
 1574 3C0001            cmp [_Buzzer],1
 1577 B004              jnz L693
 1579                   .dbline 1260
 1579 7C0139            xcall _Pitido
 157C           L693:
 157C                   .dbline 1261
 157C           ; }
 157C 3D0001            cmp [X+0],1
 157F B019              jnz L695
 1581                   .dbline 1262
 1581           ; }
 1581                   .dbline 1263
 1581           ; }
 1581 62D000            mov REG[0xd0],>__r0
 1584 5201              mov A,[X+1]
 1586 0101              add A,1
 1588 5300              mov [__r0],A
 158A 5003              mov A,3
 158C 3A00              cmp A,[__r0]
 158E D006              jnc L697
 1590           X30:
 1590                   .dbline 1263
 1590 560101            mov [X+1],1
 1593 803C              xjmp L696
 1595           L697:
 1595                   .dbline 1264
 1595           ; }
 1595 7701              inc [X+1]
 1597                   .dbline 1265
 1597           ; }
 1597 8038              xjmp L696
 1599           L695:
 1599                   .dbline 1266
 1599           ; }
 1599 3D0003            cmp [X+0],3
 159C B01C              jnz L699
 159E                   .dbline 1267
 159E           ; }
 159E                   .dbline 1268
 159E           ; }
 159E 3D0101            cmp [X+1],1
 15A1 B005              jnz L701
 15A3                   .dbline 1268
 15A3 9034              xcall _Reali_LCD
 15A5 802A              xjmp L700
 15A7           L701:
 15A7                   .dbline 1269
 15A7           ; }
 15A7 3D0102            cmp [X+1],2
 15AA B005              jnz L703
 15AC                   .dbline 1269
 15AC 90B6              xcall _Zumbador
 15AE 8021              xjmp L700
 15B0           L703:
 15B0                   .dbline 1270
 15B0           ; }
 15B0 3D0103            cmp [X+1],3
 15B3 B01C              jnz L700
 15B5                   .dbline 1270
 15B5 9132              xcall _Ali_Led
 15B7                   .dbline 1271
 15B7           ; }
 15B7 8018              xjmp L700
 15B9           L699:
 15B9                   .dbline 1272
 15B9           ; }
 15B9 3D0002            cmp [X+0],2
 15BC B013              jnz L707
 15BE                   .dbline 1273
 15BE           ; }
 15BE                   .dbline 1274
 15BE           ; }
 15BE 62D000            mov REG[0xd0],>__r0
 15C1 5201              mov A,[X+1]
 15C3 1101              sub A,1
 15C5 3901              cmp A,1
 15C7 D006              jnc L709
 15C9           X31:
 15C9                   .dbline 1274
 15C9 560103            mov [X+1],3
 15CC 8003              xjmp L710
 15CE           L709:
 15CE                   .dbline 1275
 15CE           ; }
 15CE 7B01              dec [X+1]
 15D0           L710:
 15D0                   .dbline 1276
 15D0           ; }
 15D0           L707:
 15D0           L700:
 15D0           L696:
 15D0                   .dbline 1277
 15D0           L681:
 15D0                   .dbline 1277
 15D0           ; }
 15D0 3D0004            cmp [X+0],4
 15D3 BF46              jnz L680
 15D5                   .dbline -2
 15D5                   .dbline 1278
 15D5           ; }
 15D5           L679:
 15D5 38FC              add SP,-4
 15D7 20                pop X
 15D8                   .dbline 0 ; func end
 15D8 7F                ret
 15D9                   .dbsym l x 2 i
 15D9                   .dbsym l menu 1 c
 15D9                   .dbsym l pulsat 0 c
 15D9                   .dbend
 15D9                   .dbfunc e Reali_LCD _Reali_LCD fV
 15D9           ;              x -> X+1
 15D9           ;         pulsat -> X+0
 15D9           _Reali_LCD::
 15D9                   .dbline -1
 15D9 10                push X
 15DA 4F                mov X,SP
 15DB 3803              add SP,3
 15DD                   .dbline 1287
 15DD           ; }
 15DD           ; }
 15DD           ; }
 15DD           ; }
 15DD           ; }
 15DD           ; }
 15DD           ; }
 15DD           ; }
 15DD           ; }
 15DD           L712:
 15DD                   .dbline 1292
 15DD           ; }
 15DD           ; }
 15DD           ; }
 15DD           ; }
 15DD           ; }
 15DD                   .dbline 1293
 15DD           ; }
 15DD 10                push X
 15DE 5001              mov A,1
 15E0 7C0000            xcall _LCD_Control
 15E3                   .dbline 1294
 15E3           ; }
 15E3 501F              mov A,>L715
 15E5 08                push A
 15E6 501F              mov A,<L715
 15E8 5C                mov X,A
 15E9 18                pop A
 15EA 7C0000            xcall _LCD_PrCString
 15ED                   .dbline 1295
 15ED           ; }
 15ED 5700              mov X,0
 15EF 5001              mov A,1
 15F1 7C0000            xcall _LCD_Position
 15F4 20                pop X
 15F5                   .dbline 1296
 15F5           ; }
 15F5 62D000            mov REG[0xd0],>_Luz_LCD
 15F8 3C0000            cmp [_Luz_LCD],0
 15FB B00F              jnz L716
 15FD                   .dbline 1296
 15FD 10                push X
 15FE 50C7              mov A,>L151
 1600 08                push A
 1601 50C7              mov A,<L151
 1603 5C                mov X,A
 1604 18                pop A
 1605 7C0000            xcall _LCD_PrCString
 1608 20                pop X
 1609 800D              xjmp L717
 160B           L716:
 160B                   .dbline 1297
 160B           ; }
 160B 10                push X
 160C 50C4              mov A,>L152
 160E 08                push A
 160F 50C4              mov A,<L152
 1611 5C                mov X,A
 1612 18                pop A
 1613 7C0000            xcall _LCD_PrCString
 1616 20                pop X
 1617           L717:
 1617                   .dbline 1298
 1617           ; }
 1617 7C00E8            xcall _bucle_temp
 161A                   .dbline 1299
 161A           ; }
 161A 7C018A            xcall _Pulsador
 161D 5400              mov [X+0],A
 161F                   .dbline 1300
 161F           ; }
 161F 62D000            mov REG[0xd0],>_Buzzer
 1622 3C0001            cmp [_Buzzer],1
 1625 B004              jnz L718
 1627                   .dbline 1300
 1627 7C0139            xcall _Pitido
 162A           L718:
 162A                   .dbline 1301
 162A           ; }
 162A 3D0001            cmp [X+0],1
 162D A006              jz L722
 162F 3D0002            cmp [X+0],2
 1632 B00A              jnz L720
 1634           L722:
 1634                   .dbline 1302
 1634           ; }
 1634                   .dbline 1303
 1634           ; }
 1634 5D00              mov A,REG[ 0]
 1636 62D000            mov REG[0xd0],>__r0
 1639 6000              mov REG[ 0],A
 163B                   .dbline 1304
 163B           ; }
 163B 801F              xjmp L721
 163D           L720:
 163D                   .dbline 1305
 163D           ; }
 163D 3D0003            cmp [X+0],3
 1640 B01A              jnz L723
 1642                   .dbline 1306
 1642           ; }
 1642                   .dbline 1307
 1642           ; }
 1642 62D000            mov REG[0xd0],>_Luz_LCD
 1645 3C0000            cmp [_Luz_LCD],0
 1648 B009              jnz L725
 164A                   .dbline 1308
 164A           ; }
 164A                   .dbline 1309
 164A           ; }
 164A 430002            or REG[ 0],2
 164D                   .dbline 1310
 164D           ; }
 164D 550001            mov [_Luz_LCD],1
 1650                   .dbline 1311
 1650           ; }
 1650 800A              xjmp L726
 1652           L725:
 1652                   .dbline 1313
 1652           ; }
 1652           ; }
 1652                   .dbline 1314
 1652           ; }
 1652 4100FD            and REG[ 0],-3
 1655                   .dbline 1315
 1655           ; }
 1655 62D000            mov REG[0xd0],>_Luz_LCD
 1658 550000            mov [_Luz_LCD],0
 165B                   .dbline 1316
 165B           ; }
 165B           L726:
 165B                   .dbline 1317
 165B           ; }
 165B           L723:
 165B           L721:
 165B                   .dbline 1318
 165B           L713:
 165B                   .dbline 1318
 165B           ; }
 165B 3D0004            cmp [X+0],4
 165E BF7E              jnz L712
 1660                   .dbline -2
 1660                   .dbline 1319
 1660           ; }
 1660           L711:
 1660 38FD              add SP,-3
 1662 20                pop X
 1663                   .dbline 0 ; func end
 1663 7F                ret
 1664                   .dbsym l x 1 i
 1664                   .dbsym l pulsat 0 c
 1664                   .dbend
 1664                   .dbfunc e Zumbador _Zumbador fV
 1664           ;              x -> X+1
 1664           ;         pulsat -> X+0
 1664           _Zumbador::
 1664                   .dbline -1
 1664 10                push X
 1665 4F                mov X,SP
 1666 3803              add SP,3
 1668                   .dbline 1328
 1668           ; }
 1668           ; }
 1668           ; }
 1668           ; }
 1668           ; }
 1668           ; }
 1668           ; }
 1668           ; }
 1668           ; }
 1668           L728:
 1668                   .dbline 1333
 1668           ; }
 1668           ; }
 1668           ; }
 1668           ; }
 1668           ; }
 1668                   .dbline 1334
 1668           ; }
 1668 10                push X
 1669 5001              mov A,1
 166B 7C0000            xcall _LCD_Control
 166E                   .dbline 1335
 166E           ; }
 166E 500F              mov A,>L731
 1670 08                push A
 1671 500F              mov A,<L731
 1673 5C                mov X,A
 1674 18                pop A
 1675 7C0000            xcall _LCD_PrCString
 1678                   .dbline 1336
 1678           ; }
 1678 5700              mov X,0
 167A 5001              mov A,1
 167C 7C0000            xcall _LCD_Position
 167F 20                pop X
 1680                   .dbline 1337
 1680           ; }
 1680 62D000            mov REG[0xd0],>_Buzzer
 1683 3C0000            cmp [_Buzzer],0
 1686 B00F              jnz L732
 1688                   .dbline 1337
 1688 10                push X
 1689 50C7              mov A,>L151
 168B 08                push A
 168C 50C7              mov A,<L151
 168E 5C                mov X,A
 168F 18                pop A
 1690 7C0000            xcall _LCD_PrCString
 1693 20                pop X
 1694 800D              xjmp L733
 1696           L732:
 1696                   .dbline 1338
 1696           ; }
 1696 10                push X
 1697 50C4              mov A,>L152
 1699 08                push A
 169A 50C4              mov A,<L152
 169C 5C                mov X,A
 169D 18                pop A
 169E 7C0000            xcall _LCD_PrCString
 16A1 20                pop X
 16A2           L733:
 16A2                   .dbline 1339
 16A2           ; }
 16A2 7C00E8            xcall _bucle_temp
 16A5                   .dbline 1340
 16A5           ; }
 16A5 7C018A            xcall _Pulsador
 16A8 5400              mov [X+0],A
 16AA                   .dbline 1341
 16AA           ; }
 16AA 62D000            mov REG[0xd0],>_Buzzer
 16AD 3C0001            cmp [_Buzzer],1
 16B0 B004              jnz L734
 16B2                   .dbline 1341
 16B2 7C0139            xcall _Pitido
 16B5           L734:
 16B5                   .dbline 1342
 16B5           ; }
 16B5 3D0001            cmp [X+0],1
 16B8 A006              jz L738
 16BA 3D0002            cmp [X+0],2
 16BD B00A              jnz L736
 16BF           L738:
 16BF                   .dbline 1343
 16BF           ; }
 16BF                   .dbline 1344
 16BF           ; }
 16BF 5D00              mov A,REG[ 0]
 16C1 62D000            mov REG[0xd0],>__r0
 16C4 6000              mov REG[ 0],A
 16C6                   .dbline 1345
 16C6           ; }
 16C6 8019              xjmp L737
 16C8           L736:
 16C8                   .dbline 1346
 16C8           ; }
 16C8 3D0003            cmp [X+0],3
 16CB B014              jnz L739
 16CD                   .dbline 1347
 16CD           ; }
 16CD                   .dbline 1348
 16CD           ; }
 16CD 62D000            mov REG[0xd0],>_Buzzer
 16D0 3C0000            cmp [_Buzzer],0
 16D3 B006              jnz L741
 16D5                   .dbline 1348
 16D5 550001            mov [_Buzzer],1
 16D8 8007              xjmp L742
 16DA           L741:
 16DA                   .dbline 1349
 16DA           ; }
 16DA 62D000            mov REG[0xd0],>_Buzzer
 16DD 550000            mov [_Buzzer],0
 16E0           L742:
 16E0                   .dbline 1350
 16E0           ; }
 16E0           L739:
 16E0           L737:
 16E0                   .dbline 1351
 16E0           L729:
 16E0                   .dbline 1351
 16E0           ; }
 16E0 3D0004            cmp [X+0],4
 16E3 BF84              jnz L728
 16E5                   .dbline -2
 16E5                   .dbline 1352
 16E5           ; }
 16E5           L727:
 16E5 38FD              add SP,-3
 16E7 20                pop X
 16E8                   .dbline 0 ; func end
 16E8 7F                ret
 16E9                   .dbsym l x 1 i
 16E9                   .dbsym l pulsat 0 c
 16E9                   .dbend
 16E9                   .dbfunc e Ali_Led _Ali_Led fV
 16E9           ;              x -> X+1
 16E9           ;         pulsat -> X+0
 16E9           _Ali_Led::
 16E9                   .dbline -1
 16E9 10                push X
 16EA 4F                mov X,SP
 16EB 3803              add SP,3
 16ED                   .dbline 1361
 16ED           ; }
 16ED           ; }
 16ED           ; }
 16ED           ; }
 16ED           ; }
 16ED           ; }
 16ED           ; }
 16ED           ; }
 16ED           ; }
 16ED           L744:
 16ED                   .dbline 1366
 16ED           ; }
 16ED           ; }
 16ED           ; }
 16ED           ; }
 16ED           ; }
 16ED                   .dbline 1367
 16ED           ; }
 16ED 10                push X
 16EE 5001              mov A,1
 16F0 7C0000            xcall _LCD_Control
 16F3                   .dbline 1368
 16F3           ; }
 16F3 5000              mov A,>L747
 16F5 08                push A
 16F6 5000              mov A,<L747
 16F8 5C                mov X,A
 16F9 18                pop A
 16FA 7C0000            xcall _LCD_PrCString
 16FD                   .dbline 1369
 16FD           ; }
 16FD 5700              mov X,0
 16FF 5001              mov A,1
 1701 7C0000            xcall _LCD_Position
 1704 20                pop X
 1705                   .dbline 1370
 1705           ; }
 1705 62D000            mov REG[0xd0],>_Alimentacion
 1708 3C0000            cmp [_Alimentacion],0
 170B B00F              jnz L748
 170D                   .dbline 1370
 170D 10                push X
 170E 50C7              mov A,>L151
 1710 08                push A
 1711 50C7              mov A,<L151
 1713 5C                mov X,A
 1714 18                pop A
 1715 7C0000            xcall _LCD_PrCString
 1718 20                pop X
 1719 800D              xjmp L749
 171B           L748:
 171B                   .dbline 1371
 171B           ; }
 171B 10                push X
 171C 50C4              mov A,>L152
 171E 08                push A
 171F 50C4              mov A,<L152
 1721 5C                mov X,A
 1722 18                pop A
 1723 7C0000            xcall _LCD_PrCString
 1726 20                pop X
 1727           L749:
 1727                   .dbline 1372
 1727           ; }
 1727 7C00E8            xcall _bucle_temp
 172A                   .dbline 1373
 172A           ; }
 172A 7C018A            xcall _Pulsador
 172D 5400              mov [X+0],A
 172F                   .dbline 1374
 172F           ; }
 172F 62D000            mov REG[0xd0],>_Buzzer
 1732 3C0001            cmp [_Buzzer],1
 1735 B004              jnz L750
 1737                   .dbline 1374
 1737 7C0139            xcall _Pitido
 173A           L750:
 173A                   .dbline 1375
 173A           ; }
 173A 3D0001            cmp [X+0],1
 173D A006              jz L754
 173F 3D0002            cmp [X+0],2
 1742 B00A              jnz L752
 1744           L754:
 1744                   .dbline 1376
 1744           ; }
 1744                   .dbline 1377
 1744           ; }
 1744 5D00              mov A,REG[ 0]
 1746 62D000            mov REG[0xd0],>__r0
 1749 6000              mov REG[ 0],A
 174B                   .dbline 1378
 174B           ; }
 174B 801F              xjmp L753
 174D           L752:
 174D                   .dbline 1379
 174D           ; }
 174D 3D0003            cmp [X+0],3
 1750 B01A              jnz L755
 1752                   .dbline 1380
 1752           ; }
 1752                   .dbline 1381
 1752           ; }
 1752 62D000            mov REG[0xd0],>_Alimentacion
 1755 3C0000            cmp [_Alimentacion],0
 1758 B009              jnz L757
 175A                   .dbline 1382
 175A           ; }
 175A                   .dbline 1383
 175A           ; }
 175A 430010            or REG[ 0],16
 175D                   .dbline 1384
 175D           ; }
 175D 550001            mov [_Alimentacion],1
 1760                   .dbline 1385
 1760           ; }
 1760 800A              xjmp L758
 1762           L757:
 1762                   .dbline 1387
 1762           ; }
 1762           ; }
 1762                   .dbline 1388
 1762           ; }
 1762 4100EF            and REG[ 0],-17
 1765                   .dbline 1389
 1765           ; }
 1765 62D000            mov REG[0xd0],>_Alimentacion
 1768 550000            mov [_Alimentacion],0
 176B                   .dbline 1390
 176B           ; }
 176B           L758:
 176B                   .dbline 1391
 176B           ; }
 176B           L755:
 176B           L753:
 176B                   .dbline 1392
 176B           L745:
 176B                   .dbline 1392
 176B           ; }
 176B 3D0004            cmp [X+0],4
 176E BF7E              jnz L744
 1770                   .dbline -2
 1770                   .dbline 1393
 1770           ; }
 1770           L743:
 1770 38FD              add SP,-3
 1772 20                pop X
 1773                   .dbline 0 ; func end
 1773 7F                ret
 1774                   .dbsym l x 1 i
 1774                   .dbsym l pulsat 0 c
 1774                   .dbend
 1774                   .dbfile ./main.c
 1774                   .dbfunc e main _main fV
 1774           _main::
 1774                   .dbline -1
 1774                   .dbline 15
 1774                   .dbline 16
 1774 7C009E            xcall _Inicializacion
 1777                   .dbline 17
 1777 7C00BC            xcall _Bienvenida
 177A                   .dbline 18
 177A           L760:
 177A                   .dbline 18
 177A 7C011C            xcall _Principal
 177D                   .dbline 18
 177D                   .dbline 18
 177D 8FFC              xjmp L760
 177F           X32:
 177F                   .dbline -2
 177F           L759:
 177F                   .dbline 0 ; func end
 177F 8FFF              jmp .
 1781                   .dbend
                        .area lit(rom, con, rel)
 0000           L747:
 0000 3E4C6564206465206D617263686100    .byte 62,'L,'e,'d,32,'d,'e,32,'m,'a,'r,'c,'h,'a,0
 000F           L731:
 000F 3E50697469646F20696E7465726E6F00  .byte 62,'P,'i,'t,'i,'d,'o,32,'i,'n,'t,'e,'r,'n,'o,0
 001F           L715:
 001F 3E4C757A204C434400        .byte 62,'L,'u,'z,32,'L,'C,'D,0
 0028           L692:
 0028 332D4C6564206465206D617263686100  .byte 51,45,'L,'e,'d,32,'d,'e,32,'m,'a,'r,'c,'h,'a,0
 0038           L689:
 0038 322D50697469646F20696E7465726E6F  .byte 50,45,'P,'i,'t,'i,'d,'o,32,'i,'n,'t,'e,'r,'n,'o
 0048 00                .byte 0
 0049           L686:
 0049 312D4C757A204C434400      .byte 49,45,'L,'u,'z,32,'L,'C,'D,0
 0053           L683:
 0053 3E436F6E662E2053697374656D6100    .byte 62,'C,'o,'n,'f,46,32,'S,'i,'s,'t,'e,'m,'a,0
 0062           L673:
 0062 54726162616A6F2070617261646F00    .byte 'T,'r,'a,'b,'a,'j,'o,32,'p,'a,'r,'a,'d,'o,0
 0071           L666:
 0071 4D616E74656E657220416D6172696C6C  .byte 'M,'a,'n,'t,'e,'n,'e,'r,32,'A,'m,'a,'r,'i,'l,'l
 0081 6F00              .byte 'o,0
 0083           L665:
 0083 5175696572652070617261726C6F3F00  .byte 'Q,'u,'i,'e,'r,'e,32,'p,'a,'r,'a,'r,'l,'o,63,0
 0093           L650:
 0093 50686F746F534F432061637469766F00  .byte 'P,'h,'o,'t,'o,'S,'O,'C,32,'a,'c,'t,'i,'v,'o,0
 00A3           L637:
 00A3 61727269626120456E743400  .byte 'a,'r,'r,'i,'b,'a,32,'E,'n,'t,52,0
 00AF           L636:
 00AF 61727269626120456E743300  .byte 'a,'r,'r,'i,'b,'a,32,'E,'n,'t,51,0
 00BB           L635:
 00BB 61727269626120456E743200  .byte 'a,'r,'r,'i,'b,'a,32,'E,'n,'t,50,0
 00C7           L634:
 00C7 61727269626120456E743100  .byte 'a,'r,'r,'i,'b,'a,32,'E,'n,'t,49,0
 00D3           L633:
 00D3 6172726962612063616D3200  .byte 'a,'r,'r,'i,'b,'a,32,'c,'a,'m,50,0
 00DF           L632:
 00DF 6172726962612063616D3100  .byte 'a,'r,'r,'i,'b,'a,32,'c,'a,'m,49,0
 00EB           L624:
 00EB 312D41686F726100  .byte 49,45,'A,'h,'o,'r,'a,0
 00F3           L623:
 00F3 3E456A65637574617200      .byte 62,'E,'j,'e,'c,'u,'t,'a,'r,0
 00FD           L606:
 00FD 486F72617300      .byte 'H,'o,'r,'a,'s,0
 0103           L603:
 0103 4D696E75746F7300  .byte 'M,'i,'n,'u,'t,'o,'s,0
 010B           L600:
 010B 536567756E646F7300        .byte 'S,'e,'g,'u,'n,'d,'o,'s,0
 0114           L597:
 0114 3E556E692E206465207469656D706F00  .byte 62,'U,'n,'i,46,32,'d,'e,32,'t,'i,'e,'m,'p,'o,0
 0124           L576:
 0124 3E4E756D65726F20312D31303000      .byte 62,'N,'u,'m,'e,'r,'o,32,49,45,49,48,48,0
 0132           L547:
 0132 5469656D706F20766964656F00        .byte 'T,'i,'e,'m,'p,'o,32,'v,'i,'d,'e,'o,0
 013F           L544:
 013F 5469656D706F207265616C00  .byte 'T,'i,'e,'m,'p,'o,32,'r,'e,'a,'l,0
 014B           L541:
 014B 3E54696D65204C6170736500  .byte 62,'T,'i,'m,'e,32,'L,'a,'p,'s,'e,0
 0157           L508:
 0157 4E756D65726F20646520666F746F7300  .byte 'N,'u,'m,'e,'r,'o,32,'d,'e,32,'f,'o,'t,'o,'s,0
 0167           L505:
 0167 5420656E74726520666F746F00        .byte 'T,32,'e,'n,'t,'r,'e,32,'f,'o,'t,'o,0
 0174           L502:
 0174 3E496E74657276616C6F6D6574726F00  .byte 62,'I,'n,'t,'e,'r,'v,'a,'l,'o,'m,'e,'t,'r,'o,0
 0184           L462:
 0184 3E5469706F20646520646973702E00    .byte 62,'T,'i,'p,'o,32,'d,'e,32,'d,'i,'s,'p,46,0
 0193           L438:
 0193 3E43616D617261203200      .byte 62,'C,'a,'m,'a,'r,'a,32,50,0
 019D           L426:
 019D 54696D65204C6170736500    .byte 'T,'i,'m,'e,32,'L,'a,'p,'s,'e,0
 01A8           L423:
 01A8 496E74657276616C6F6D6574726F00    .byte 'I,'n,'t,'e,'r,'v,'a,'l,'o,'m,'e,'t,'r,'o,0
 01B7           L420:
 01B7 446973702E20556E69636F00  .byte 'D,'i,'s,'p,46,32,'U,'n,'i,'c,'o,0
 01C3           L417:
 01C3 4E6F206469737061726100    .byte 'N,'o,32,'d,'i,'s,'p,'a,'r,'a,0
 01CE           L414:
 01CE 3E43616D617261203100      .byte 62,'C,'a,'m,'a,'r,'a,32,49,0
 01D8           L393:
 01D8 322D43616D617261203200    .byte 50,45,'C,'a,'m,'a,'r,'a,32,50,0
 01E3           L390:
 01E3 312D43616D617261203100    .byte 49,45,'C,'a,'m,'a,'r,'a,32,49,0
 01EE           L387:
 01EE 3E436F6E662E204469737061726F00    .byte 62,'C,'o,'n,'f,46,32,'D,'i,'s,'p,'a,'r,'o,0
 01FD           L354:
 01FD 3E417369676E6163696F6E00  .byte 62,'A,'s,'i,'g,'n,'a,'c,'i,'o,'n,0
 0209           L326:
 0209 3E466C617368203400        .byte 62,'F,'l,'a,'s,'h,32,52,0
 0212           L306:
 0212 3E466C617368203300        .byte 62,'F,'l,'a,'s,'h,32,51,0
 021B           L286:
 021B 3E466C617368203200        .byte 62,'F,'l,'a,'s,'h,32,50,0
 0224           L274:
 0224 416D62617300      .byte 'A,'m,'b,'a,'s,0
 022A           L271:
 022A 43616D617261203200        .byte 'C,'a,'m,'a,'r,'a,32,50,0
 0233           L268:
 0233 43616D617261203100        .byte 'C,'a,'m,'a,'r,'a,32,49,0
 023C           L265:
 023C 4170616761646F00  .byte 'A,'p,'a,'g,'a,'d,'o,0
 0244           L262:
 0244 3E466C617368203100        .byte 62,'F,'l,'a,'s,'h,32,49,0
 024D           L237:
 024D 2020284F66662900  .byte 32,32,40,'O,'f,'f,41,0
 0255           L234:
 0255 342D466C617368203400      .byte 52,45,'F,'l,'a,'s,'h,32,52,0
 025F           L229:
 025F 332D466C617368203300      .byte 51,45,'F,'l,'a,'s,'h,32,51,0
 0269           L224:
 0269 322D466C617368203200      .byte 50,45,'F,'l,'a,'s,'h,32,50,0
 0273           L221:
 0273 20284F6E2900      .byte 32,40,'O,'n,41,0
 0279           L220:
 0279 20284F66662900    .byte 32,40,'O,'f,'f,41,0
 0280           L217:
 0280 312D466C617368203100      .byte 49,45,'F,'l,'a,'s,'h,32,49,0
 028A           L214:
 028A 3E436F6E662E20466C617368657300    .byte 62,'C,'o,'n,'f,46,32,'F,'l,'a,'s,'h,'e,'s,0
 0299           L198:
 0299 3E4469676974616C203220355600      .byte 62,'D,'i,'g,'i,'t,'a,'l,32,50,32,53,'V,0
 02A7           L182:
 02A7 3E4469676974616C203120355600      .byte 62,'D,'i,'g,'i,'t,'a,'l,32,49,32,53,'V,0
 02B5           L166:
 02B5 3E4261727265726120322031325600    .byte 62,'B,'a,'r,'r,'e,'r,'a,32,50,32,49,50,'V,0
 02C4           L152:
 02C4 4F4E00            .byte 'O,'N,0
 02C7           L151:
 02C7 4F464600          .byte 'O,'F,'F,0
 02CB           L148:
 02CB 3E4261727265726120312031325600    .byte 62,'B,'a,'r,'r,'e,'r,'a,32,49,32,49,50,'V,0
 02DA           L123:
 02DA 342D4469676974616C203220355600    .byte 52,45,'D,'i,'g,'i,'t,'a,'l,32,50,32,53,'V,0
 02E9           L120:
 02E9 332D4469676974616C203120355600    .byte 51,45,'D,'i,'g,'i,'t,'a,'l,32,49,32,53,'V,0
 02F8           L117:
 02F8 322D4261727265726120322031325600  .byte 50,45,'B,'a,'r,'r,'e,'r,'a,32,50,32,49,50,'V,0
 0308           L114:
 0308 312D4261727265726120312031325600  .byte 49,45,'B,'a,'r,'r,'e,'r,'a,32,49,32,49,50,'V,0
 0318           L111:
 0318 3E436F6E662E2053656E736F72657300  .byte 62,'C,'o,'n,'f,46,32,'S,'e,'n,'s,'o,'r,'e,'s,0
 0328           L84:
 0328 352D436F6E662E2053697374656D6100  .byte 53,45,'C,'o,'n,'f,46,32,'S,'i,'s,'t,'e,'m,'a,0
 0338           L81:
 0338 342D456A65637574617200    .byte 52,45,'E,'j,'e,'c,'u,'t,'a,'r,0
 0343           L78:
 0343 332D436F6E662E204469737061726F00  .byte 51,45,'C,'o,'n,'f,46,32,'D,'i,'s,'p,'a,'r,'o,0
 0353           L75:
 0353 322D436F6E662E20466C617368657300  .byte 50,45,'C,'o,'n,'f,46,32,'F,'l,'a,'s,'h,'e,'s,0
 0363           L72:
 0363 312D436F6E662E2053656E736F726573  .byte 49,45,'C,'o,'n,'f,46,32,'S,'e,'n,'s,'o,'r,'e,'s
 0373 00                .byte 0
 0374           L69:
 0374 3E4D656E75205072696E636970616C00  .byte 62,'M,'e,'n,'u,32,'P,'r,'i,'n,'c,'i,'p,'a,'l,0
 0384           L20:
 0384 61202050686F746F536F4300  .byte 'a,32,32,'P,'h,'o,'t,'o,'S,'o,'C,0
 0390           L19:
 0390 4269656E76656E69646F7300  .byte 'B,'i,'e,'n,'v,'e,'n,'i,'d,'o,'s,0
