 0000                   cpu LMM
                        .module main.c
                        .area data(ram, con, rel)
 0000           _Luz_LCD::
 0000 00                .byte 0
 0001                   .dbfile ./terminal.h
 0001                   .dbsym e Luz_LCD _Luz_LCD c
                        .area data(ram, con, rel)
 0000                   .dbfile ./terminal.h
                        .area data(ram, con, rel)
 0000                   .dbfile ./terminal.h
 0000           _Buzzer::
 0000 00                .byte 0
 0001                   .dbsym e Buzzer _Buzzer c
                        .area data(ram, con, rel)
 0000                   .dbfile ./terminal.h
                        .area data(ram, con, rel)
 0000                   .dbfile ./terminal.h
 0000           _Alimentacion::
 0000 00                .byte 0
 0001                   .dbsym e Alimentacion _Alimentacion c
                        .area data(ram, con, rel)
 0000                   .dbfile ./terminal.h
                        .area data(ram, con, rel)
 0000                   .dbfile ./terminal.h
 0000           _Ent1::
 0000 00                .byte 0
 0001                   .dbsym e Ent1 _Ent1 c
                        .area data(ram, con, rel)
 0000                   .dbfile ./terminal.h
                        .area data(ram, con, rel)
 0000                   .dbfile ./terminal.h
 0000           _Ent2::
 0000 00                .byte 0
 0001                   .dbsym e Ent2 _Ent2 c
                        .area data(ram, con, rel)
 0000                   .dbfile ./terminal.h
                        .area data(ram, con, rel)
 0000                   .dbfile ./terminal.h
 0000           _Ent3::
 0000 00                .byte 0
 0001                   .dbsym e Ent3 _Ent3 c
                        .area data(ram, con, rel)
 0000                   .dbfile ./terminal.h
                        .area data(ram, con, rel)
 0000                   .dbfile ./terminal.h
 0000           _Ent4::
 0000 00                .byte 0
 0001                   .dbsym e Ent4 _Ent4 c
                        .area data(ram, con, rel)
 0000                   .dbfile ./terminal.h
                        .area data(ram, con, rel)
 0000                   .dbfile ./terminal.h
 0000           _Fla1::
 0000 00                .byte 0
 0001                   .dbsym e Fla1 _Fla1 c
                        .area data(ram, con, rel)
 0000                   .dbfile ./terminal.h
                        .area data(ram, con, rel)
 0000                   .dbfile ./terminal.h
 0000           _Fla2::
 0000 00                .byte 0
 0001                   .dbsym e Fla2 _Fla2 c
                        .area data(ram, con, rel)
 0000                   .dbfile ./terminal.h
                        .area data(ram, con, rel)
 0000                   .dbfile ./terminal.h
 0000           _Fla3::
 0000 00                .byte 0
 0001                   .dbsym e Fla3 _Fla3 c
                        .area data(ram, con, rel)
 0000                   .dbfile ./terminal.h
                        .area data(ram, con, rel)
 0000                   .dbfile ./terminal.h
 0000           _Fla4::
 0000 00                .byte 0
 0001                   .dbsym e Fla4 _Fla4 c
                        .area data(ram, con, rel)
 0000                   .dbfile ./terminal.h
                        .area data(ram, con, rel)
 0000                   .dbfile ./terminal.h
 0000           _Cam1::
 0000 00                .byte 0
 0001                   .dbsym e Cam1 _Cam1 c
                        .area data(ram, con, rel)
 0000                   .dbfile ./terminal.h
                        .area data(ram, con, rel)
 0000                   .dbfile ./terminal.h
 0000           _Int1_Tdisp::
 0000 00                .byte 0
 0001                   .dbsym e Int1_Tdisp _Int1_Tdisp c
                        .area data(ram, con, rel)
 0000                   .dbfile ./terminal.h
                        .area data(ram, con, rel)
 0000                   .dbfile ./terminal.h
 0000           _Int1_Tdisp_Uni::
 0000 00                .byte 0
 0001                   .dbsym e Int1_Tdisp_Uni _Int1_Tdisp_Uni c
                        .area data(ram, con, rel)
 0000                   .dbfile ./terminal.h
                        .area data(ram, con, rel)
 0000                   .dbfile ./terminal.h
 0000           _Int1_Ndisp::
 0000 00                .byte 0
 0001                   .dbsym e Int1_Ndisp _Int1_Ndisp c
                        .area data(ram, con, rel)
 0000                   .dbfile ./terminal.h
                        .area data(ram, con, rel)
 0000                   .dbfile ./terminal.h
 0000           _Cam2::
 0000 00                .byte 0
 0001                   .dbsym e Cam2 _Cam2 c
                        .area data(ram, con, rel)
 0000                   .dbfile ./terminal.h
                        .area data(ram, con, rel)
 0000                   .dbfile ./terminal.h
 0000           _Int2_Tdisp::
 0000 00                .byte 0
 0001                   .dbsym e Int2_Tdisp _Int2_Tdisp c
                        .area data(ram, con, rel)
 0000                   .dbfile ./terminal.h
                        .area data(ram, con, rel)
 0000                   .dbfile ./terminal.h
 0000           _Int2_Tdisp_Uni::
 0000 00                .byte 0
 0001                   .dbsym e Int2_Tdisp_Uni _Int2_Tdisp_Uni c
                        .area data(ram, con, rel)
 0000                   .dbfile ./terminal.h
                        .area data(ram, con, rel)
 0000                   .dbfile ./terminal.h
 0000           _Int2_Ndisp::
 0000 00                .byte 0
 0001                   .dbsym e Int2_Ndisp _Int2_Ndisp c
                        .area data(ram, con, rel)
 0000                   .dbfile ./terminal.h
                        .area text(rom, con, rel)
 0000                   .dbfile ./terminal.h
 0000                   .dbfunc e bucle_temp _bucle_temp fV
 0000           ;              x -> X+0
 0000           _bucle_temp::
 0000                   .dbline -1
 0000 10                push X
 0001 4F                mov X,SP
 0002 3802              add SP,2
 0004                   .dbline 51
 0004           ; //----------------------------------------------------------------//
 0004           ; //     Proyecto de GS Desarrollo Productos Electronicos EPSS    //
 0004           ; //                   By Albert Sagol & Xavi Vicient                         //
 0004           ; //                 PhotoSoC - Controlador fotográfico                   //
 0004           ; //----------------------------------------------------------------//
 0004           ; 
 0004           ; #include <m8c.h>        // part specific constants and macros
 0004           ; #include "PSoCAPI.h"    // PSoC API definitions for all User Modules
 0004           ; #include "stdlib.h"
 0004           ; #include "terminal.h" // Libreria creada por Albert y Xavi para el proyecto
 0004           ; 
 0004           ; void main()
 0004           ; {     char x;
 0004           ;       int xx;
 0004           ; 
 0004           ; //- Inicializacion de parametros basicos del sistema al encender      
 0004           ;       Timer8_WritePeriod(156);                //Este valor es Fosc/Baudios/8
 0004           ;       Timer8_WriteCompareValue(156/2);
 0004           ;       Timer8_Start();
 0004           ;       
 0004           ;       LCD_Start();
 0004           ;       LCD_Init();
 0004           ; 
 0004           ;       UART_Start(UART_PARITY_NONE);
 0004           ;       PRT0DR=0xA0;    // Conectem las resistencias de pull-up
 0004           ; 
 0004           ; //- Inicializacion de parametros modificables al encender
 0004           ;       PRT0DR=PRT0DR & 0xE1;   //Apago la alrma del Buzzer, Realimentacion de LCD, Led de alimentacion y la pata de reset
 0004           ;                                                       //Aprovechamos para conectar las resistencias de pull-up
 0004           ;       
 0004           ;       
 0004           ;       for (;;) Principal();           //Programa principal del PSoC terminal del PhotoSOC
 0004           ;               
 0004           ;               
 0004           ;               /* Elementos de testeo o para utilizar
 0004           ;               
 0004           ;               - implementar como realimentacion del LCD
 0004           ;               PRT2DR=PRT2DR | 0x80;           //reali del LCD
 0004           ;               
 0004           ;               - Comprovacion de comunicacion con UART y que lo muestre por el LCD
 0004           ;               UART_CPutString("");    //Para cadenas de carateres 
 0004           ;               UART_PutChar();                 //Para valores tipo char
 0004           ;               x=UART_cGetChar();  //Esta se espera a que llegue un byte. Ver tambien UART_cReadChar()
 0004           ;               LCD_WriteData(x);
 0004           ;               
 0004           ;               - Saber si ha llegado a cierto punto
 0004           ;               LCD_Control(0x01);
 0004           ;               LCD_PrCString("prueba");
 0004           ;               for(x=0;x<50000;x++);
 0004           ;               
 0004           ;               - Detectar cierto numero y que lo muestre por el LCD            
 0004                   .dbline 54
 0004 560100            mov [X+1],0
 0007 560000            mov [X+0],0
 000A 8006              xjmp L5
 000C           L2:
 000C                   .dbline 54
 000C           L3:
 000C                   .dbline 54
 000C 7701              inc [X+1]
 000E 0F0000            adc [X+0],0
 0011           L5:
 0011                   .dbline 54
 0011           ;               LCD_Control(0x01);
 0011           ;               LCD_WriteData(+48);
 0011           ;               for(x=0;x<50000;x++);
 0011 62D000            mov REG[0xd0],>__r0
 0014 5201              mov A,[X+1]
 0016 5300              mov [__r3],A
 0018 5200              mov A,[X+0]
 001A 5300              mov [__r2],A
 001C 5100              mov A,[__r3]
 001E 11B8              sub A,-72
 0020 5100              mov A,[__r2]
 0022 1988              sbb A,-120
 0024 5000              mov A,0
 0026 1900              sbb A,0
 0028 5000              mov A,0
 002A 3180              xor A,-128
 002C 1980              sbb A,(0 ^ 0x80)
 002E CFDD              jc L2
 0030           X0:
 0030                   .dbline -2
 0030                   .dbline 55
 0030           ;               */              
 0030           L1:
 0030 38FE              add SP,-2
 0032 20                pop X
 0033                   .dbline 0 ; func end
 0033 7F                ret
 0034                   .dbsym l x 0 i
 0034                   .dbend
 0034                   .dbfunc e Pitido _Pitido fV
 0034           ;             xx -> X+0
 0034           _Pitido::
 0034                   .dbline -1
 0034 10                push X
 0035 4F                mov X,SP
 0036 3802              add SP,2
 0038                   .dbline 64
 0038           ; }
 0038           ; }
 0038           ; }
 0038           ; }
 0038           ; }
 0038           ; }
 0038           ; }
 0038           ; }
 0038           ; }
 0038                   .dbline 67
 0038           ; }
 0038           ; }
 0038           ; }
 0038 430008            or REG[ 0],8
 003B                   .dbline 68
 003B 560100            mov [X+1],0
 003E 560000            mov [X+0],0
 0041           L7:
 0041                   .dbline 68
 0041 5D00              mov A,REG[ 0]
 0043 62D000            mov REG[0xd0],>__r0
 0046 6000              mov REG[ 0],A
 0048           L8:
 0048                   .dbline 68
 0048           ; }
 0048 7701              inc [X+1]
 004A 0F0000            adc [X+0],0
 004D                   .dbline 68
 004D 5201              mov A,[X+1]
 004F 11A0              sub A,-96
 0051 5200              mov A,[X+0]
 0053 3180              xor A,-128
 0055 198F              sbb A,(15 ^ 0x80)
 0057 CFE9              jc L7
 0059           X1:
 0059                   .dbline 69
 0059           ; }
 0059 4100F7            and REG[ 0],-9
 005C                   .dbline -2
 005C                   .dbline 70
 005C           ; }
 005C           L6:
 005C 38FE              add SP,-2
 005E 20                pop X
 005F                   .dbline 0 ; func end
 005F 7F                ret
 0060                   .dbsym l xx 0 I
 0060                   .dbend
 0060                   .dbfunc e Reset_PdT _Reset_PdT fV
 0060           ;              x -> X+0
 0060           _Reset_PdT::
 0060                   .dbline -1
 0060 10                push X
 0061 4F                mov X,SP
 0062 3802              add SP,2
 0064                   .dbline 79
 0064           ; }
 0064           ; }
 0064           ; }
 0064           ; }
 0064           ; }
 0064           ; }
 0064           ; }
 0064           ; }
 0064           ; }
 0064                   .dbline 82
 0064           ; }
 0064           ; }
 0064           ; }
 0064 430004            or REG[ 0],4
 0067                   .dbline 83
 0067 560100            mov [X+1],0
 006A 560000            mov [X+0],0
 006D           L12:
 006D                   .dbline 83
 006D           L13:
 006D                   .dbline 83
 006D           ; }
 006D 7701              inc [X+1]
 006F 0F0000            adc [X+0],0
 0072                   .dbline 83
 0072 5201              mov A,[X+1]
 0074 11F4              sub A,-12
 0076 5200              mov A,[X+0]
 0078 3180              xor A,-128
 007A 1981              sbb A,(1 ^ 0x80)
 007C CFF0              jc L12
 007E           X2:
 007E                   .dbline 84
 007E           ; }
 007E 4100FB            and REG[ 0],-5
 0081                   .dbline 85
 0081 560100            mov [X+1],0
 0084 560000            mov [X+0],0
 0087           L16:
 0087                   .dbline 85
 0087           L17:
 0087                   .dbline 85
 0087           ; }
 0087 7701              inc [X+1]
 0089 0F0000            adc [X+0],0
 008C                   .dbline 85
 008C 5201              mov A,[X+1]
 008E 11F4              sub A,-12
 0090 5200              mov A,[X+0]
 0092 3180              xor A,-128
 0094 1981              sbb A,(1 ^ 0x80)
 0096 CFF0              jc L16
 0098           X3:
 0098                   .dbline -2
 0098                   .dbline 86
 0098           ; }
 0098           L11:
 0098 38FE              add SP,-2
 009A 20                pop X
 009B                   .dbline 0 ; func end
 009B 7F                ret
 009C                   .dbsym l x 0 I
 009C                   .dbend
 009C                   .dbfunc e Pulsador _Pulsador fc
 009C           ;          aviso -> X+3
 009C           ;        pulsado -> X+2
 009C           ;              x -> X+0
 009C           _Pulsador::
 009C                   .dbline -1
 009C 10                push X
 009D 4F                mov X,SP
 009E 3804              add SP,4
 00A0                   .dbline 99
 00A0           ; }
 00A0           ; }
 00A0           ; }
 00A0           ; }
 00A0           ; }
 00A0           ; }
 00A0           ; }
 00A0           ; }
 00A0           ; }
 00A0           ; }
 00A0           ; }
 00A0           ; }
 00A0           ; }
 00A0                   .dbline 103
 00A0           ; }
 00A0           ; }
 00A0           ; }
 00A0           ; }
 00A0 560200            mov [X+2],0
 00A3           L21:
 00A3                   .dbline 107
 00A3           ; }
 00A3           ; }
 00A3           ; }
 00A3           ; }
 00A3                   .dbline 108
 00A3           ; }
 00A3 10                push X
 00A4 7C0000            xcall _UART_cReadChar
 00A7 62D000            mov REG[0xd0],>__r0
 00AA 20                pop X
 00AB 5403              mov [X+3],A
 00AD                   .dbline 109
 00AD           ; }
 00AD 3D03FF            cmp [X+3],-1
 00B0 B001              jnz L24
 00B2                   .dbline 109
 00B2           L24:
 00B2                   .dbline 110
 00B2           ; }
 00B2 5D00              mov A,REG[ 0]
 00B4 62D000            mov REG[0xd0],>__r0
 00B7 5300              mov [__r0],A
 00B9 2600A0            and [__r0],-96
 00BC 3C0020            cmp [__r0],32
 00BF B004              jnz L26
 00C1                   .dbline 110
 00C1 560201            mov [X+2],1
 00C4           L26:
 00C4                   .dbline 111
 00C4           ; }
 00C4 5D00              mov A,REG[ 0]
 00C6 62D000            mov REG[0xd0],>__r0
 00C9 5300              mov [__r0],A
 00CB 2600A0            and [__r0],-96
 00CE 3C0080            cmp [__r0],-128
 00D1 B004              jnz L28
 00D3                   .dbline 111
 00D3 560202            mov [X+2],2
 00D6           L28:
 00D6                   .dbline 112
 00D6           ; }
 00D6 3D0200            cmp [X+2],0
 00D9 A048              jz L30
 00DB                   .dbline 113
 00DB           ; }
 00DB                   .dbline 114
 00DB 560100            mov [X+1],0
 00DE 560000            mov [X+0],0
 00E1 8006              xjmp L35
 00E3           L32:
 00E3                   .dbline 114
 00E3           L33:
 00E3                   .dbline 114
 00E3 7701              inc [X+1]
 00E5 0F0000            adc [X+0],0
 00E8           L35:
 00E8                   .dbline 114
 00E8           ; }
 00E8 5201              mov A,[X+1]
 00EA 1164              sub A,100
 00EC 5200              mov A,[X+0]
 00EE 1900              sbb A,0
 00F0 CFF2              jc L32
 00F2           X4:
 00F2                   .dbline 115
 00F2           ; }
 00F2 560100            mov [X+1],0
 00F5 560000            mov [X+0],0
 00F8 801C              xjmp L39
 00FA           L36:
 00FA                   .dbline 116
 00FA           ; }
 00FA                   .dbline 117
 00FA           ; }
 00FA 5D00              mov A,REG[ 0]
 00FC 62D000            mov REG[0xd0],>__r0
 00FF 5300              mov [__r0],A
 0101 2600A0            and [__r0],-96
 0104 3C00A0            cmp [__r0],-96
 0107 B005              jnz L40
 0109                   .dbline 117
 0109 5202              mov A,[X+2]
 010B 802E              xjmp L20
 010D           L40:
 010D                   .dbline 118
 010D 4300A0            or REG[ 0],-96
 0110                   .dbline 119
 0110           L37:
 0110                   .dbline 115
 0110 7701              inc [X+1]
 0112 0F0000            adc [X+0],0
 0115           L39:
 0115                   .dbline 115
 0115 5201              mov A,[X+1]
 0117 1130              sub A,48
 0119 5200              mov A,[X+0]
 011B 1975              sbb A,117
 011D CFDC              jc L36
 011F           X5:
 011F                   .dbline 120
 011F           ; }
 011F           ; }
 011F           ; }
 011F 070202            add [X+2],2
 0122                   .dbline 121
 0122           ; }
 0122           L30:
 0122                   .dbline 122
 0122           ; }
 0122 10                push X
 0123 7C0000            xcall _UART_cReadChar
 0126 62D000            mov REG[0xd0],>__r0
 0129 20                pop X
 012A 39FB              cmp A,-5
 012C B003              jnz L42
 012E                   .dbline 122
 012E 900E              xcall _Principal
 0130           L42:
 0130                   .dbline 123
 0130           L22:
 0130                   .dbline 123
 0130           ; }
 0130 3D0200            cmp [X+2],0
 0133 AF6F              jz L21
 0135                   .dbline 124
 0135           ; }
 0135 5202              mov A,[X+2]
 0137 62D000            mov REG[0xd0],>__r0
 013A                   .dbline -2
 013A           L20:
 013A 38FC              add SP,-4
 013C 20                pop X
 013D                   .dbline 0 ; func end
 013D 7F                ret
 013E                   .dbsym l aviso 3 c
 013E                   .dbsym l pulsado 2 c
 013E                   .dbsym l x 0 i
 013E                   .dbend
 013E                   .dbfunc e Principal _Principal fV
 013E           ;              x -> X+1
 013E           ;          boton -> X+0
 013E           _Principal::
 013E                   .dbline -1
 013E 10                push X
 013F 4F                mov X,SP
 0140 3803              add SP,3
 0142                   .dbline 135
 0142           ; }
 0142           ; }
 0142           ; }
 0142           ; }
 0142           ; }
 0142           ; }
 0142           ; }
 0142           ; }
 0142           ; }
 0142           ; }
 0142           ; }
 0142                   .dbline 139
 0142           ; }
 0142           ; }
 0142           ; }
 0142           ; }
 0142 10                push X
 0143 5001              mov A,1
 0145 7C0000            xcall _LCD_Control
 0148                   .dbline 140
 0148           ; }
 0148 5701              mov X,1
 014A 5000              mov A,0
 014C 7C0000            xcall _LCD_Position
 014F                   .dbline 141
 014F           ; }
 014F 501C              mov A,>L45
 0151 08                push A
 0152 501C              mov A,<L45
 0154 5C                mov X,A
 0155 18                pop A
 0156 7C0000            xcall _LCD_PrCString
 0159                   .dbline 142
 0159           ; }
 0159 5703              mov X,3
 015B 5001              mov A,1
 015D 7C0000            xcall _LCD_Position
 0160                   .dbline 143
 0160           ; }
 0160 5010              mov A,>L46
 0162 08                push A
 0163 5010              mov A,<L46
 0165 5C                mov X,A
 0166 18                pop A
 0167 7C0000            xcall _LCD_PrCString
 016A 20                pop X
 016B                   .dbline 144
 016B           ; }
 016B 9E93              xcall _bucle_temp
 016D                   .dbline 145
 016D           ; }
 016D 9F2D              xcall _Pulsador
 016F 5400              mov [X+0],A
 0171                   .dbline 146
 0171           ; }
 0171 62D000            mov REG[0xd0],>_Buzzer
 0174 3C0001            cmp [_Buzzer],1
 0177 B003              jnz L47
 0179                   .dbline 146
 0179 9EB9              xcall _Pitido
 017B           L47:
 017B                   .dbline 147
 017B 3D0000            cmp [X+0],0
 017E A003              jz L49
 0180                   .dbline 148
 0180                   .dbline 149
 0180 9004              xcall _Menu
 0182                   .dbline 150
 0182           L49:
 0182                   .dbline -2
 0182                   .dbline 151
 0182           ; }
 0182           ; }
 0182           ; }
 0182           ; }
 0182           ; }
 0182           L44:
 0182 38FD              add SP,-3
 0184 20                pop X
 0185                   .dbline 0 ; func end
 0185 7F                ret
 0186                   .dbsym l x 1 i
 0186                   .dbsym l boton 0 c
 0186                   .dbend
 0186                   .dbfunc e Menu _Menu fV
 0186           ;              x -> X+2
 0186           ;         pulsat -> X+1
 0186           ;          index -> X+0
 0186           _Menu::
 0186                   .dbline -1
 0186 10                push X
 0187 4F                mov X,SP
 0188 3804              add SP,4
 018A                   .dbline 161
 018A           ; }
 018A           ; }
 018A           ; }
 018A           ; }
 018A           ; }
 018A           ; }
 018A           ; }
 018A           ; }
 018A           ; }
 018A           ; }
 018A                   .dbline 162
 018A           ; }
 018A 560001            mov [X+0],1
 018D           L52:
 018D                   .dbline 166
 018D           ; }
 018D           ; }
 018D           ; }
 018D           ; }
 018D                   .dbline 167
 018D           ; }
 018D 10                push X
 018E 5001              mov A,1
 0190 7C0000            xcall _LCD_Control
 0193                   .dbline 168
 0193           ; }
 0193 5000              mov A,>L55
 0195 08                push A
 0196 5000              mov A,<L55
 0198 5C                mov X,A
 0199 18                pop A
 019A 7C0000            xcall _LCD_PrCString
 019D                   .dbline 169
 019D           ; }
 019D 5700              mov X,0
 019F 5001              mov A,1
 01A1 7C0000            xcall _LCD_Position
 01A4 20                pop X
 01A5                   .dbline 170
 01A5           ; }
 01A5 3D0001            cmp [X+0],1
 01A8 B00F              jnz L56
 01AA                   .dbline 170
 01AA 10                push X
 01AB 50EF              mov A,>L58
 01AD 08                push A
 01AE 50EF              mov A,<L58
 01B0 5C                mov X,A
 01B1 18                pop A
 01B2 7C0000            xcall _LCD_PrCString
 01B5 20                pop X
 01B6 804B              xjmp L57
 01B8           L56:
 01B8                   .dbline 171
 01B8           ; }
 01B8 3D0002            cmp [X+0],2
 01BB B00F              jnz L59
 01BD                   .dbline 171
 01BD 10                push X
 01BE 50DF              mov A,>L61
 01C0 08                push A
 01C1 50DF              mov A,<L61
 01C3 5C                mov X,A
 01C4 18                pop A
 01C5 7C0000            xcall _LCD_PrCString
 01C8 20                pop X
 01C9 8038              xjmp L60
 01CB           L59:
 01CB                   .dbline 172
 01CB           ; }
 01CB 3D0003            cmp [X+0],3
 01CE B00F              jnz L62
 01D0                   .dbline 172
 01D0 10                push X
 01D1 50CF              mov A,>L64
 01D3 08                push A
 01D4 50CF              mov A,<L64
 01D6 5C                mov X,A
 01D7 18                pop A
 01D8 7C0000            xcall _LCD_PrCString
 01DB 20                pop X
 01DC 8025              xjmp L63
 01DE           L62:
 01DE                   .dbline 173
 01DE           ; }
 01DE 3D0004            cmp [X+0],4
 01E1 B00F              jnz L65
 01E3                   .dbline 173
 01E3 10                push X
 01E4 50C4              mov A,>L67
 01E6 08                push A
 01E7 50C4              mov A,<L67
 01E9 5C                mov X,A
 01EA 18                pop A
 01EB 7C0000            xcall _LCD_PrCString
 01EE 20                pop X
 01EF 8012              xjmp L66
 01F1           L65:
 01F1                   .dbline 174
 01F1           ; }
 01F1 3D0005            cmp [X+0],5
 01F4 B00D              jnz L68
 01F6                   .dbline 174
 01F6 10                push X
 01F7 50B4              mov A,>L70
 01F9 08                push A
 01FA 50B4              mov A,<L70
 01FC 5C                mov X,A
 01FD 18                pop A
 01FE 7C0000            xcall _LCD_PrCString
 0201 20                pop X
 0202           L68:
 0202           L66:
 0202           L63:
 0202           L60:
 0202           L57:
 0202                   .dbline 175
 0202           ; }
 0202 9DFC              xcall _bucle_temp
 0204                   .dbline 176
 0204           ; }
 0204 9E96              xcall _Pulsador
 0206 5401              mov [X+1],A
 0208                   .dbline 177
 0208           ; }
 0208 62D000            mov REG[0xd0],>_Buzzer
 020B 3C0001            cmp [_Buzzer],1
 020E B003              jnz L71
 0210                   .dbline 177
 0210 9E22              xcall _Pitido
 0212           L71:
 0212                   .dbline 178
 0212           ; }
 0212 3D0101            cmp [X+1],1
 0215 B019              jnz L73
 0217                   .dbline 179
 0217           ; }
 0217                   .dbline 180
 0217           ; }
 0217 62D000            mov REG[0xd0],>__r0
 021A 5200              mov A,[X+0]
 021C 0101              add A,1
 021E 5300              mov [__r0],A
 0220 5005              mov A,5
 0222 3A00              cmp A,[__r0]
 0224 D006              jnc L75
 0226           X6:
 0226                   .dbline 180
 0226 560001            mov [X+0],1
 0229 8050              xjmp L74
 022B           L75:
 022B                   .dbline 181
 022B           ; }
 022B 7700              inc [X+0]
 022D                   .dbline 182
 022D           ; }
 022D 804C              xjmp L74
 022F           L73:
 022F                   .dbline 183
 022F           ; }
 022F 3D0103            cmp [X+1],3
 0232 B030              jnz L77
 0234                   .dbline 184
 0234           ; }
 0234                   .dbline 185
 0234           ; }
 0234 3D0001            cmp [X+0],1
 0237 B005              jnz L79
 0239                   .dbline 185
 0239 9048              xcall _Sensors
 023B 803E              xjmp L78
 023D           L79:
 023D                   .dbline 186
 023D           ; }
 023D 3D0002            cmp [X+0],2
 0240 B005              jnz L81
 0242                   .dbline 186
 0242 9326              xcall _Flashes
 0244 8035              xjmp L78
 0246           L81:
 0246                   .dbline 187
 0246           ; }
 0246 3D0003            cmp [X+0],3
 0249 B005              jnz L83
 024B                   .dbline 187
 024B 968F              xcall _Dispar
 024D 802C              xjmp L78
 024F           L83:
 024F                   .dbline 188
 024F           ; }
 024F 3D0004            cmp [X+0],4
 0252 B006              jnz L85
 0254                   .dbline 188
 0254 7C0F91            xcall _Executar
 0257 8022              xjmp L78
 0259           L85:
 0259                   .dbline 189
 0259           ; }
 0259 3D0005            cmp [X+0],5
 025C B01D              jnz L78
 025E                   .dbline 189
 025E 7C119A            xcall _Sistema
 0261                   .dbline 190
 0261           ; }
 0261 8018              xjmp L78
 0263           L77:
 0263                   .dbline 191
 0263           ; }
 0263 3D0102            cmp [X+1],2
 0266 B013              jnz L89
 0268                   .dbline 192
 0268           ; }
 0268                   .dbline 193
 0268           ; }
 0268 62D000            mov REG[0xd0],>__r0
 026B 5200              mov A,[X+0]
 026D 1101              sub A,1
 026F 3901              cmp A,1
 0271 D006              jnc L91
 0273           X7:
 0273                   .dbline 193
 0273 560005            mov [X+0],5
 0276 8003              xjmp L92
 0278           L91:
 0278                   .dbline 194
 0278           ; }
 0278 7B00              dec [X+0]
 027A           L92:
 027A                   .dbline 195
 027A           ; }
 027A           L89:
 027A           L78:
 027A           L74:
 027A                   .dbline 196
 027A           L53:
 027A                   .dbline 196
 027A           ; }
 027A 3D0104            cmp [X+1],4
 027D BF0F              jnz L52
 027F                   .dbline -2
 027F                   .dbline 197
 027F           ; }
 027F           L51:
 027F 38FC              add SP,-4
 0281 20                pop X
 0282                   .dbline 0 ; func end
 0282 7F                ret
 0283                   .dbsym l x 2 i
 0283                   .dbsym l pulsat 1 c
 0283                   .dbsym l index 0 c
 0283                   .dbend
 0283                   .dbfunc e Sensors _Sensors fV
 0283           ;              x -> X+2
 0283           ;           menu -> X+1
 0283           ;         pulsat -> X+0
 0283           _Sensors::
 0283                   .dbline -1
 0283 10                push X
 0284 4F                mov X,SP
 0285 3804              add SP,4
 0287                   .dbline 207
 0287           ; }
 0287           ; }
 0287           ; }
 0287           ; }
 0287           ; }
 0287           ; }
 0287           ; }
 0287           ; }
 0287           ; }
 0287           ; }
 0287                   .dbline 208
 0287           ; }
 0287 560101            mov [X+1],1
 028A           L94:
 028A                   .dbline 212
 028A           ; }
 028A           ; }
 028A           ; }
 028A           ; }
 028A                   .dbline 213
 028A           ; }
 028A 10                push X
 028B 5001              mov A,1
 028D 7C0000            xcall _LCD_Control
 0290                   .dbline 214
 0290           ; }
 0290 50A4              mov A,>L97
 0292 08                push A
 0293 50A4              mov A,<L97
 0295 5C                mov X,A
 0296 18                pop A
 0297 7C0000            xcall _LCD_PrCString
 029A                   .dbline 215
 029A           ; }
 029A 5700              mov X,0
 029C 5001              mov A,1
 029E 7C0000            xcall _LCD_Position
 02A1 20                pop X
 02A2                   .dbline 216
 02A2           ; }
 02A2 3D0101            cmp [X+1],1
 02A5 B00F              jnz L98
 02A7                   .dbline 216
 02A7 10                push X
 02A8 5094              mov A,>L100
 02AA 08                push A
 02AB 5094              mov A,<L100
 02AD 5C                mov X,A
 02AE 18                pop A
 02AF 7C0000            xcall _LCD_PrCString
 02B2 20                pop X
 02B3 8038              xjmp L99
 02B5           L98:
 02B5                   .dbline 217
 02B5           ; }
 02B5 3D0102            cmp [X+1],2
 02B8 B00F              jnz L101
 02BA                   .dbline 217
 02BA 10                push X
 02BB 5084              mov A,>L103
 02BD 08                push A
 02BE 5084              mov A,<L103
 02C0 5C                mov X,A
 02C1 18                pop A
 02C2 7C0000            xcall _LCD_PrCString
 02C5 20                pop X
 02C6 8025              xjmp L102
 02C8           L101:
 02C8                   .dbline 218
 02C8           ; }
 02C8 3D0103            cmp [X+1],3
 02CB B00F              jnz L104
 02CD                   .dbline 218
 02CD 10                push X
 02CE 5075              mov A,>L106
 02D0 08                push A
 02D1 5075              mov A,<L106
 02D3 5C                mov X,A
 02D4 18                pop A
 02D5 7C0000            xcall _LCD_PrCString
 02D8 20                pop X
 02D9 8012              xjmp L105
 02DB           L104:
 02DB                   .dbline 219
 02DB           ; }
 02DB 3D0104            cmp [X+1],4
 02DE B00D              jnz L107
 02E0                   .dbline 219
 02E0 10                push X
 02E1 5066              mov A,>L109
 02E3 08                push A
 02E4 5066              mov A,<L109
 02E6 5C                mov X,A
 02E7 18                pop A
 02E8 7C0000            xcall _LCD_PrCString
 02EB 20                pop X
 02EC           L107:
 02EC           L105:
 02EC           L102:
 02EC           L99:
 02EC                   .dbline 220
 02EC           ; }
 02EC 9D12              xcall _bucle_temp
 02EE                   .dbline 221
 02EE           ; }
 02EE 9DAC              xcall _Pulsador
 02F0 5400              mov [X+0],A
 02F2                   .dbline 222
 02F2           ; }
 02F2 62D000            mov REG[0xd0],>_Buzzer
 02F5 3C0001            cmp [_Buzzer],1
 02F8 B003              jnz L110
 02FA                   .dbline 222
 02FA 9D38              xcall _Pitido
 02FC           L110:
 02FC                   .dbline 223
 02FC           ; }
 02FC 3D0001            cmp [X+0],1
 02FF B019              jnz L112
 0301                   .dbline 224
 0301           ; }
 0301                   .dbline 225
 0301           ; }
 0301 62D000            mov REG[0xd0],>__r0
 0304 5201              mov A,[X+1]
 0306 0101              add A,1
 0308 5300              mov [__r0],A
 030A 5004              mov A,4
 030C 3A00              cmp A,[__r0]
 030E D006              jnc L114
 0310           X8:
 0310                   .dbline 225
 0310 560101            mov [X+1],1
 0313 8045              xjmp L113
 0315           L114:
 0315                   .dbline 226
 0315           ; }
 0315 7701              inc [X+1]
 0317                   .dbline 227
 0317           ; }
 0317 8041              xjmp L113
 0319           L112:
 0319                   .dbline 228
 0319           ; }
 0319 3D0003            cmp [X+0],3
 031C B025              jnz L116
 031E                   .dbline 229
 031E           ; }
 031E                   .dbline 230
 031E           ; }
 031E 3D0101            cmp [X+1],1
 0321 B005              jnz L118
 0323                   .dbline 230
 0323 903D              xcall _Entrada1
 0325 8033              xjmp L117
 0327           L118:
 0327                   .dbline 231
 0327           ; }
 0327 3D0102            cmp [X+1],2
 032A B005              jnz L120
 032C                   .dbline 231
 032C 90B6              xcall _Entrada2
 032E 802A              xjmp L117
 0330           L120:
 0330                   .dbline 232
 0330           ; }
 0330 3D0103            cmp [X+1],3
 0333 B005              jnz L122
 0335                   .dbline 232
 0335 912F              xcall _Entrada3
 0337 8021              xjmp L117
 0339           L122:
 0339                   .dbline 233
 0339           ; }
 0339 3D0104            cmp [X+1],4
 033C B01C              jnz L117
 033E                   .dbline 233
 033E 91A8              xcall _Entrada4
 0340                   .dbline 234
 0340           ; }
 0340 8018              xjmp L117
 0342           L116:
 0342                   .dbline 235
 0342           ; }
 0342 3D0002            cmp [X+0],2
 0345 B013              jnz L126
 0347                   .dbline 236
 0347           ; }
 0347                   .dbline 237
 0347           ; }
 0347 62D000            mov REG[0xd0],>__r0
 034A 5201              mov A,[X+1]
 034C 1101              sub A,1
 034E 3901              cmp A,1
 0350 D006              jnc L128
 0352           X9:
 0352                   .dbline 237
 0352 560104            mov [X+1],4
 0355 8003              xjmp L129
 0357           L128:
 0357                   .dbline 238
 0357           ; }
 0357 7B01              dec [X+1]
 0359           L129:
 0359                   .dbline 239
 0359           ; }
 0359           L126:
 0359           L117:
 0359           L113:
 0359                   .dbline 240
 0359           L95:
 0359                   .dbline 240
 0359           ; }
 0359 3D0004            cmp [X+0],4
 035C BF2D              jnz L94
 035E                   .dbline -2
 035E                   .dbline 241
 035E           ; }
 035E           L93:
 035E 38FC              add SP,-4
 0360 20                pop X
 0361                   .dbline 0 ; func end
 0361 7F                ret
 0362                   .dbsym l x 2 i
 0362                   .dbsym l menu 1 c
 0362                   .dbsym l pulsat 0 c
 0362                   .dbend
 0362                   .dbfunc e Entrada1 _Entrada1 fV
 0362           ;              x -> X+1
 0362           ;         pulsat -> X+0
 0362           _Entrada1::
 0362                   .dbline -1
 0362 10                push X
 0363 4F                mov X,SP
 0364 3803              add SP,3
 0366                   .dbline 251
 0366           ; }
 0366           ; }
 0366           ; }
 0366           ; }
 0366           ; }
 0366           ; }
 0366           ; }
 0366           ; }
 0366           ; }
 0366           ; }
 0366           L131:
 0366                   .dbline 256
 0366           ; }
 0366           ; }
 0366           ; }
 0366           ; }
 0366           ; }
 0366                   .dbline 257
 0366           ; }
 0366 10                push X
 0367 5001              mov A,1
 0369 7C0000            xcall _LCD_Control
 036C                   .dbline 258
 036C           ; }
 036C 5057              mov A,>L134
 036E 08                push A
 036F 5057              mov A,<L134
 0371 5C                mov X,A
 0372 18                pop A
 0373 7C0000            xcall _LCD_PrCString
 0376                   .dbline 259
 0376           ; }
 0376 5700              mov X,0
 0378 5001              mov A,1
 037A 7C0000            xcall _LCD_Position
 037D 20                pop X
 037E                   .dbline 260
 037E           ; }
 037E 62D000            mov REG[0xd0],>_Ent1
 0381 3C0000            cmp [_Ent1],0
 0384 B00F              jnz L135
 0386                   .dbline 260
 0386 10                push X
 0387 5053              mov A,>L137
 0389 08                push A
 038A 5053              mov A,<L137
 038C 5C                mov X,A
 038D 18                pop A
 038E 7C0000            xcall _LCD_PrCString
 0391 20                pop X
 0392 800D              xjmp L136
 0394           L135:
 0394                   .dbline 261
 0394           ; }
 0394 10                push X
 0395 5050              mov A,>L138
 0397 08                push A
 0398 5050              mov A,<L138
 039A 5C                mov X,A
 039B 18                pop A
 039C 7C0000            xcall _LCD_PrCString
 039F 20                pop X
 03A0           L136:
 03A0                   .dbline 262
 03A0           ; }
 03A0 9C5E              xcall _bucle_temp
 03A2                   .dbline 263
 03A2           ; }
 03A2 9CF8              xcall _Pulsador
 03A4 5400              mov [X+0],A
 03A6                   .dbline 264
 03A6           ; }
 03A6 62D000            mov REG[0xd0],>_Buzzer
 03A9 3C0001            cmp [_Buzzer],1
 03AC B003              jnz L139
 03AE                   .dbline 264
 03AE 9C84              xcall _Pitido
 03B0           L139:
 03B0                   .dbline 265
 03B0           ; }
 03B0 3D0001            cmp [X+0],1
 03B3 A006              jz L143
 03B5 3D0002            cmp [X+0],2
 03B8 B00A              jnz L141
 03BA           L143:
 03BA                   .dbline 266
 03BA           ; }
 03BA                   .dbline 267
 03BA           ; }
 03BA 5D00              mov A,REG[ 0]
 03BC 62D000            mov REG[0xd0],>__r0
 03BF 6000              mov REG[ 0],A
 03C1                   .dbline 268
 03C1           ; }
 03C1 8019              xjmp L142
 03C3           L141:
 03C3                   .dbline 269
 03C3           ; }
 03C3 3D0003            cmp [X+0],3
 03C6 B014              jnz L144
 03C8                   .dbline 270
 03C8           ; }
 03C8                   .dbline 271
 03C8           ; }
 03C8 62D000            mov REG[0xd0],>_Ent1
 03CB 3C0000            cmp [_Ent1],0
 03CE B006              jnz L146
 03D0                   .dbline 271
 03D0 550001            mov [_Ent1],1
 03D3 8007              xjmp L147
 03D5           L146:
 03D5                   .dbline 272
 03D5           ; }
 03D5 62D000            mov REG[0xd0],>_Ent1
 03D8 550000            mov [_Ent1],0
 03DB           L147:
 03DB                   .dbline 273
 03DB           ; }
 03DB           L144:
 03DB           L142:
 03DB                   .dbline 274
 03DB           L132:
 03DB                   .dbline 274
 03DB           ; }
 03DB 3D0004            cmp [X+0],4
 03DE BF87              jnz L131
 03E0                   .dbline -2
 03E0                   .dbline 275
 03E0           ; }
 03E0           L130:
 03E0 38FD              add SP,-3
 03E2 20                pop X
 03E3                   .dbline 0 ; func end
 03E3 7F                ret
 03E4                   .dbsym l x 1 i
 03E4                   .dbsym l pulsat 0 c
 03E4                   .dbend
 03E4                   .dbfunc e Entrada2 _Entrada2 fV
 03E4           ;              x -> X+1
 03E4           ;         pulsat -> X+0
 03E4           _Entrada2::
 03E4                   .dbline -1
 03E4 10                push X
 03E5 4F                mov X,SP
 03E6 3803              add SP,3
 03E8                   .dbline 285
 03E8           ; }
 03E8           ; }
 03E8           ; }
 03E8           ; }
 03E8           ; }
 03E8           ; }
 03E8           ; }
 03E8           ; }
 03E8           ; }
 03E8           ; }
 03E8           L149:
 03E8                   .dbline 290
 03E8           ; }
 03E8           ; }
 03E8           ; }
 03E8           ; }
 03E8           ; }
 03E8                   .dbline 291
 03E8           ; }
 03E8 10                push X
 03E9 5001              mov A,1
 03EB 7C0000            xcall _LCD_Control
 03EE                   .dbline 292
 03EE           ; }
 03EE 5041              mov A,>L152
 03F0 08                push A
 03F1 5041              mov A,<L152
 03F3 5C                mov X,A
 03F4 18                pop A
 03F5 7C0000            xcall _LCD_PrCString
 03F8                   .dbline 293
 03F8           ; }
 03F8 5700              mov X,0
 03FA 5001              mov A,1
 03FC 7C0000            xcall _LCD_Position
 03FF 20                pop X
 0400                   .dbline 294
 0400           ; }
 0400 62D000            mov REG[0xd0],>_Ent2
 0403 3C0000            cmp [_Ent2],0
 0406 B00F              jnz L153
 0408                   .dbline 294
 0408 10                push X
 0409 5053              mov A,>L137
 040B 08                push A
 040C 5053              mov A,<L137
 040E 5C                mov X,A
 040F 18                pop A
 0410 7C0000            xcall _LCD_PrCString
 0413 20                pop X
 0414 800D              xjmp L154
 0416           L153:
 0416                   .dbline 295
 0416           ; }
 0416 10                push X
 0417 5050              mov A,>L138
 0419 08                push A
 041A 5050              mov A,<L138
 041C 5C                mov X,A
 041D 18                pop A
 041E 7C0000            xcall _LCD_PrCString
 0421 20                pop X
 0422           L154:
 0422                   .dbline 296
 0422           ; }
 0422 9BDC              xcall _bucle_temp
 0424                   .dbline 297
 0424           ; }
 0424 9C76              xcall _Pulsador
 0426 5400              mov [X+0],A
 0428                   .dbline 298
 0428           ; }
 0428 62D000            mov REG[0xd0],>_Buzzer
 042B 3C0001            cmp [_Buzzer],1
 042E B003              jnz L155
 0430                   .dbline 298
 0430 9C02              xcall _Pitido
 0432           L155:
 0432                   .dbline 299
 0432           ; }
 0432 3D0001            cmp [X+0],1
 0435 A006              jz L159
 0437 3D0002            cmp [X+0],2
 043A B00A              jnz L157
 043C           L159:
 043C                   .dbline 300
 043C           ; }
 043C                   .dbline 301
 043C           ; }
 043C 5D00              mov A,REG[ 0]
 043E 62D000            mov REG[0xd0],>__r0
 0441 6000              mov REG[ 0],A
 0443                   .dbline 302
 0443           ; }
 0443 8019              xjmp L158
 0445           L157:
 0445                   .dbline 303
 0445           ; }
 0445 3D0003            cmp [X+0],3
 0448 B014              jnz L160
 044A                   .dbline 304
 044A           ; }
 044A                   .dbline 305
 044A           ; }
 044A 62D000            mov REG[0xd0],>_Ent2
 044D 3C0000            cmp [_Ent2],0
 0450 B006              jnz L162
 0452                   .dbline 305
 0452 550001            mov [_Ent2],1
 0455 8007              xjmp L163
 0457           L162:
 0457                   .dbline 306
 0457           ; }
 0457 62D000            mov REG[0xd0],>_Ent2
 045A 550000            mov [_Ent2],0
 045D           L163:
 045D                   .dbline 307
 045D           ; }
 045D           L160:
 045D           L158:
 045D                   .dbline 308
 045D           L150:
 045D                   .dbline 308
 045D           ; }
 045D 3D0004            cmp [X+0],4
 0460 BF87              jnz L149
 0462                   .dbline -2
 0462                   .dbline 309
 0462           ; }
 0462           L148:
 0462 38FD              add SP,-3
 0464 20                pop X
 0465                   .dbline 0 ; func end
 0465 7F                ret
 0466                   .dbsym l x 1 i
 0466                   .dbsym l pulsat 0 c
 0466                   .dbend
 0466                   .dbfunc e Entrada3 _Entrada3 fV
 0466           ;              x -> X+1
 0466           ;         pulsat -> X+0
 0466           _Entrada3::
 0466                   .dbline -1
 0466 10                push X
 0467 4F                mov X,SP
 0468 3803              add SP,3
 046A                   .dbline 319
 046A           ; }
 046A           ; }
 046A           ; }
 046A           ; }
 046A           ; }
 046A           ; }
 046A           ; }
 046A           ; }
 046A           ; }
 046A           ; }
 046A           L165:
 046A                   .dbline 324
 046A           ; }
 046A           ; }
 046A           ; }
 046A           ; }
 046A           ; }
 046A                   .dbline 325
 046A           ; }
 046A 10                push X
 046B 5001              mov A,1
 046D 7C0000            xcall _LCD_Control
 0470                   .dbline 326
 0470           ; }
 0470 5033              mov A,>L168
 0472 08                push A
 0473 5033              mov A,<L168
 0475 5C                mov X,A
 0476 18                pop A
 0477 7C0000            xcall _LCD_PrCString
 047A                   .dbline 327
 047A           ; }
 047A 5700              mov X,0
 047C 5001              mov A,1
 047E 7C0000            xcall _LCD_Position
 0481 20                pop X
 0482                   .dbline 328
 0482           ; }
 0482 62D000            mov REG[0xd0],>_Ent3
 0485 3C0000            cmp [_Ent3],0
 0488 B00F              jnz L169
 048A                   .dbline 328
 048A 10                push X
 048B 5053              mov A,>L137
 048D 08                push A
 048E 5053              mov A,<L137
 0490 5C                mov X,A
 0491 18                pop A
 0492 7C0000            xcall _LCD_PrCString
 0495 20                pop X
 0496 800D              xjmp L170
 0498           L169:
 0498                   .dbline 329
 0498           ; }
 0498 10                push X
 0499 5050              mov A,>L138
 049B 08                push A
 049C 5050              mov A,<L138
 049E 5C                mov X,A
 049F 18                pop A
 04A0 7C0000            xcall _LCD_PrCString
 04A3 20                pop X
 04A4           L170:
 04A4                   .dbline 330
 04A4           ; }
 04A4 9B5A              xcall _bucle_temp
 04A6                   .dbline 331
 04A6           ; }
 04A6 9BF4              xcall _Pulsador
 04A8 5400              mov [X+0],A
 04AA                   .dbline 332
 04AA           ; }
 04AA 62D000            mov REG[0xd0],>_Buzzer
 04AD 3C0001            cmp [_Buzzer],1
 04B0 B003              jnz L171
 04B2                   .dbline 332
 04B2 9B80              xcall _Pitido
 04B4           L171:
 04B4                   .dbline 333
 04B4           ; }
 04B4 3D0001            cmp [X+0],1
 04B7 A006              jz L175
 04B9 3D0002            cmp [X+0],2
 04BC B00A              jnz L173
 04BE           L175:
 04BE                   .dbline 334
 04BE           ; }
 04BE                   .dbline 335
 04BE           ; }
 04BE 5D00              mov A,REG[ 0]
 04C0 62D000            mov REG[0xd0],>__r0
 04C3 6000              mov REG[ 0],A
 04C5                   .dbline 336
 04C5           ; }
 04C5 8019              xjmp L174
 04C7           L173:
 04C7                   .dbline 337
 04C7           ; }
 04C7 3D0003            cmp [X+0],3
 04CA B014              jnz L176
 04CC                   .dbline 338
 04CC           ; }
 04CC                   .dbline 339
 04CC           ; }
 04CC 62D000            mov REG[0xd0],>_Ent3
 04CF 3C0000            cmp [_Ent3],0
 04D2 B006              jnz L178
 04D4                   .dbline 339
 04D4 550001            mov [_Ent3],1
 04D7 8007              xjmp L179
 04D9           L178:
 04D9                   .dbline 340
 04D9           ; }
 04D9 62D000            mov REG[0xd0],>_Ent3
 04DC 550000            mov [_Ent3],0
 04DF           L179:
 04DF                   .dbline 341
 04DF           ; }
 04DF           L176:
 04DF           L174:
 04DF                   .dbline 342
 04DF           L166:
 04DF                   .dbline 342
 04DF           ; }
 04DF 3D0004            cmp [X+0],4
 04E2 BF87              jnz L165
 04E4                   .dbline -2
 04E4                   .dbline 343
 04E4           ; }
 04E4           L164:
 04E4 38FD              add SP,-3
 04E6 20                pop X
 04E7                   .dbline 0 ; func end
 04E7 7F                ret
 04E8                   .dbsym l x 1 i
 04E8                   .dbsym l pulsat 0 c
 04E8                   .dbend
 04E8                   .dbfunc e Entrada4 _Entrada4 fV
 04E8           ;              x -> X+1
 04E8           ;         pulsat -> X+0
 04E8           _Entrada4::
 04E8                   .dbline -1
 04E8 10                push X
 04E9 4F                mov X,SP
 04EA 3803              add SP,3
 04EC                   .dbline 353
 04EC           ; }
 04EC           ; }
 04EC           ; }
 04EC           ; }
 04EC           ; }
 04EC           ; }
 04EC           ; }
 04EC           ; }
 04EC           ; }
 04EC           ; }
 04EC           L181:
 04EC                   .dbline 358
 04EC           ; }
 04EC           ; }
 04EC           ; }
 04EC           ; }
 04EC           ; }
 04EC                   .dbline 359
 04EC           ; }
 04EC 10                push X
 04ED 5001              mov A,1
 04EF 7C0000            xcall _LCD_Control
 04F2                   .dbline 360
 04F2           ; }
 04F2 5025              mov A,>L184
 04F4 08                push A
 04F5 5025              mov A,<L184
 04F7 5C                mov X,A
 04F8 18                pop A
 04F9 7C0000            xcall _LCD_PrCString
 04FC                   .dbline 361
 04FC           ; }
 04FC 5700              mov X,0
 04FE 5001              mov A,1
 0500 7C0000            xcall _LCD_Position
 0503 20                pop X
 0504                   .dbline 362
 0504           ; }
 0504 62D000            mov REG[0xd0],>_Ent4
 0507 3C0000            cmp [_Ent4],0
 050A B00F              jnz L185
 050C                   .dbline 362
 050C 10                push X
 050D 5053              mov A,>L137
 050F 08                push A
 0510 5053              mov A,<L137
 0512 5C                mov X,A
 0513 18                pop A
 0514 7C0000            xcall _LCD_PrCString
 0517 20                pop X
 0518 800D              xjmp L186
 051A           L185:
 051A                   .dbline 363
 051A           ; }
 051A 10                push X
 051B 5050              mov A,>L138
 051D 08                push A
 051E 5050              mov A,<L138
 0520 5C                mov X,A
 0521 18                pop A
 0522 7C0000            xcall _LCD_PrCString
 0525 20                pop X
 0526           L186:
 0526                   .dbline 364
 0526           ; }
 0526 9AD8              xcall _bucle_temp
 0528                   .dbline 365
 0528           ; }
 0528 9B72              xcall _Pulsador
 052A 5400              mov [X+0],A
 052C                   .dbline 366
 052C           ; }
 052C 62D000            mov REG[0xd0],>_Buzzer
 052F 3C0001            cmp [_Buzzer],1
 0532 B003              jnz L187
 0534                   .dbline 366
 0534 9AFE              xcall _Pitido
 0536           L187:
 0536                   .dbline 367
 0536           ; }
 0536 3D0001            cmp [X+0],1
 0539 A006              jz L191
 053B 3D0002            cmp [X+0],2
 053E B00A              jnz L189
 0540           L191:
 0540                   .dbline 368
 0540           ; }
 0540                   .dbline 369
 0540           ; }
 0540 5D00              mov A,REG[ 0]
 0542 62D000            mov REG[0xd0],>__r0
 0545 6000              mov REG[ 0],A
 0547                   .dbline 370
 0547           ; }
 0547 8019              xjmp L190
 0549           L189:
 0549                   .dbline 371
 0549           ; }
 0549 3D0003            cmp [X+0],3
 054C B014              jnz L192
 054E                   .dbline 372
 054E           ; }
 054E                   .dbline 373
 054E           ; }
 054E 62D000            mov REG[0xd0],>_Ent4
 0551 3C0000            cmp [_Ent4],0
 0554 B006              jnz L194
 0556                   .dbline 373
 0556 550001            mov [_Ent4],1
 0559 8007              xjmp L195
 055B           L194:
 055B                   .dbline 374
 055B           ; }
 055B 62D000            mov REG[0xd0],>_Ent4
 055E 550000            mov [_Ent4],0
 0561           L195:
 0561                   .dbline 375
 0561           ; }
 0561           L192:
 0561           L190:
 0561                   .dbline 376
 0561           L182:
 0561                   .dbline 376
 0561           ; }
 0561 3D0004            cmp [X+0],4
 0564 BF87              jnz L181
 0566                   .dbline -2
 0566                   .dbline 377
 0566           ; }
 0566           L180:
 0566 38FD              add SP,-3
 0568 20                pop X
 0569                   .dbline 0 ; func end
 0569 7F                ret
 056A                   .dbsym l x 1 i
 056A                   .dbsym l pulsat 0 c
 056A                   .dbend
 056A                   .dbfunc e Flashes _Flashes fV
 056A           ;              x -> X+2
 056A           ;           menu -> X+1
 056A           ;         pulsat -> X+0
 056A           _Flashes::
 056A                   .dbline -1
 056A 10                push X
 056B 4F                mov X,SP
 056C 3804              add SP,4
 056E                   .dbline 387
 056E           ; }
 056E           ; }
 056E           ; }
 056E           ; }
 056E           ; }
 056E           ; }
 056E           ; }
 056E           ; }
 056E           ; }
 056E           ; }
 056E                   .dbline 388
 056E           ; }
 056E 560101            mov [X+1],1
 0571           L197:
 0571                   .dbline 392
 0571           ; }
 0571           ; }
 0571           ; }
 0571           ; }
 0571                   .dbline 393
 0571           ; }
 0571 10                push X
 0572 5001              mov A,1
 0574 7C0000            xcall _LCD_Control
 0577                   .dbline 394
 0577           ; }
 0577 5016              mov A,>L200
 0579 08                push A
 057A 5016              mov A,<L200
 057C 5C                mov X,A
 057D 18                pop A
 057E 7C0000            xcall _LCD_PrCString
 0581                   .dbline 395
 0581           ; }
 0581 5700              mov X,0
 0583 5001              mov A,1
 0585 7C0000            xcall _LCD_Position
 0588 20                pop X
 0589                   .dbline 396
 0589           ; }
 0589 3D0101            cmp [X+1],1
 058C B031              jnz L201
 058E                   .dbline 397
 058E           ; }
 058E                   .dbline 398
 058E           ; }
 058E 10                push X
 058F 500C              mov A,>L203
 0591 08                push A
 0592 500C              mov A,<L203
 0594 5C                mov X,A
 0595 18                pop A
 0596 7C0000            xcall _LCD_PrCString
 0599 20                pop X
 059A                   .dbline 399
 059A           ; }
 059A 62D000            mov REG[0xd0],>_Fla1
 059D 3C0000            cmp [_Fla1],0
 05A0 B00F              jnz L204
 05A2                   .dbline 399
 05A2 10                push X
 05A3 5005              mov A,>L206
 05A5 08                push A
 05A6 5005              mov A,<L206
 05A8 5C                mov X,A
 05A9 18                pop A
 05AA 7C0000            xcall _LCD_PrCString
 05AD 20                pop X
 05AE 80AC              xjmp L202
 05B0           L204:
 05B0                   .dbline 400
 05B0           ; }
 05B0 10                push X
 05B1 50FF              mov A,>L207
 05B3 08                push A
 05B4 50FF              mov A,<L207
 05B6 5C                mov X,A
 05B7 18                pop A
 05B8 7C0000            xcall _LCD_PrCString
 05BB 20                pop X
 05BC                   .dbline 401
 05BC           ; }
 05BC 809E              xjmp L202
 05BE           L201:
 05BE                   .dbline 402
 05BE           ; }
 05BE 3D0102            cmp [X+1],2
 05C1 B031              jnz L208
 05C3                   .dbline 403
 05C3           ; }
 05C3                   .dbline 404
 05C3           ; }
 05C3 10                push X
 05C4 50F5              mov A,>L210
 05C6 08                push A
 05C7 50F5              mov A,<L210
 05C9 5C                mov X,A
 05CA 18                pop A
 05CB 7C0000            xcall _LCD_PrCString
 05CE 20                pop X
 05CF                   .dbline 405
 05CF           ; }
 05CF 62D000            mov REG[0xd0],>_Fla2
 05D2 3C0000            cmp [_Fla2],0
 05D5 B00F              jnz L211
 05D7                   .dbline 405
 05D7 10                push X
 05D8 5005              mov A,>L206
 05DA 08                push A
 05DB 5005              mov A,<L206
 05DD 5C                mov X,A
 05DE 18                pop A
 05DF 7C0000            xcall _LCD_PrCString
 05E2 20                pop X
 05E3 8077              xjmp L209
 05E5           L211:
 05E5                   .dbline 406
 05E5           ; }
 05E5 10                push X
 05E6 50FF              mov A,>L207
 05E8 08                push A
 05E9 50FF              mov A,<L207
 05EB 5C                mov X,A
 05EC 18                pop A
 05ED 7C0000            xcall _LCD_PrCString
 05F0 20                pop X
 05F1                   .dbline 407
 05F1           ; }
 05F1 8069              xjmp L209
 05F3           L208:
 05F3                   .dbline 408
 05F3           ; }
 05F3 3D0103            cmp [X+1],3
 05F6 B031              jnz L213
 05F8                   .dbline 409
 05F8           ; }
 05F8                   .dbline 411
 05F8           ; }
 05F8           ; }
 05F8 10                push X
 05F9 50EB              mov A,>L215
 05FB 08                push A
 05FC 50EB              mov A,<L215
 05FE 5C                mov X,A
 05FF 18                pop A
 0600 7C0000            xcall _LCD_PrCString
 0603 20                pop X
 0604                   .dbline 412
 0604           ; }
 0604 62D000            mov REG[0xd0],>_Fla3
 0607 3C0000            cmp [_Fla3],0
 060A B00F              jnz L216
 060C                   .dbline 412
 060C 10                push X
 060D 5005              mov A,>L206
 060F 08                push A
 0610 5005              mov A,<L206
 0612 5C                mov X,A
 0613 18                pop A
 0614 7C0000            xcall _LCD_PrCString
 0617 20                pop X
 0618 8042              xjmp L214
 061A           L216:
 061A                   .dbline 413
 061A           ; }
 061A 10                push X
 061B 50FF              mov A,>L207
 061D 08                push A
 061E 50FF              mov A,<L207
 0620 5C                mov X,A
 0621 18                pop A
 0622 7C0000            xcall _LCD_PrCString
 0625 20                pop X
 0626                   .dbline 414
 0626           ; }
 0626 8034              xjmp L214
 0628           L213:
 0628                   .dbline 415
 0628           ; }
 0628 3D0104            cmp [X+1],4
 062B B02F              jnz L218
 062D                   .dbline 416
 062D           ; }
 062D                   .dbline 417
 062D           ; }
 062D 10                push X
 062E 50E1              mov A,>L220
 0630 08                push A
 0631 50E1              mov A,<L220
 0633 5C                mov X,A
 0634 18                pop A
 0635 7C0000            xcall _LCD_PrCString
 0638 20                pop X
 0639                   .dbline 418
 0639           ; }
 0639 62D000            mov REG[0xd0],>_Fla4
 063C 3C0000            cmp [_Fla4],0
 063F B00F              jnz L221
 0641                   .dbline 418
 0641 10                push X
 0642 50D9              mov A,>L223
 0644 08                push A
 0645 50D9              mov A,<L223
 0647 5C                mov X,A
 0648 18                pop A
 0649 7C0000            xcall _LCD_PrCString
 064C 20                pop X
 064D 800D              xjmp L222
 064F           L221:
 064F                   .dbline 419
 064F           ; }
 064F 10                push X
 0650 50FF              mov A,>L207
 0652 08                push A
 0653 50FF              mov A,<L207
 0655 5C                mov X,A
 0656 18                pop A
 0657 7C0000            xcall _LCD_PrCString
 065A 20                pop X
 065B           L222:
 065B                   .dbline 420
 065B           ; }
 065B           L218:
 065B           L214:
 065B           L209:
 065B           L202:
 065B                   .dbline 421
 065B           ; }
 065B 99A3              xcall _bucle_temp
 065D                   .dbline 422
 065D           ; }
 065D 9A3D              xcall _Pulsador
 065F 5400              mov [X+0],A
 0661                   .dbline 423
 0661           ; }
 0661 62D000            mov REG[0xd0],>_Buzzer
 0664 3C0001            cmp [_Buzzer],1
 0667 B003              jnz L224
 0669                   .dbline 423
 0669 99C9              xcall _Pitido
 066B           L224:
 066B                   .dbline 424
 066B           ; }
 066B 3D0001            cmp [X+0],1
 066E B019              jnz L226
 0670                   .dbline 425
 0670           ; }
 0670                   .dbline 426
 0670           ; }
 0670 62D000            mov REG[0xd0],>__r0
 0673 5201              mov A,[X+1]
 0675 0101              add A,1
 0677 5300              mov [__r0],A
 0679 5004              mov A,4
 067B 3A00              cmp A,[__r0]
 067D D006              jnc L228
 067F           X10:
 067F                   .dbline 426
 067F 560101            mov [X+1],1
 0682 8045              xjmp L227
 0684           L228:
 0684                   .dbline 427
 0684           ; }
 0684 7701              inc [X+1]
 0686                   .dbline 428
 0686           ; }
 0686 8041              xjmp L227
 0688           L226:
 0688                   .dbline 429
 0688           ; }
 0688 3D0003            cmp [X+0],3
 068B B025              jnz L230
 068D                   .dbline 430
 068D           ; }
 068D                   .dbline 431
 068D           ; }
 068D 3D0101            cmp [X+1],1
 0690 B005              jnz L232
 0692                   .dbline 431
 0692 903D              xcall _Flash1
 0694 8033              xjmp L231
 0696           L232:
 0696                   .dbline 432
 0696           ; }
 0696 3D0102            cmp [X+1],2
 0699 B005              jnz L234
 069B                   .dbline 432
 069B 90B6              xcall _Flash2
 069D 802A              xjmp L231
 069F           L234:
 069F                   .dbline 433
 069F           ; }
 069F 3D0103            cmp [X+1],3
 06A2 B005              jnz L236
 06A4                   .dbline 433
 06A4 912F              xcall _Flash3
 06A6 8021              xjmp L231
 06A8           L236:
 06A8                   .dbline 434
 06A8           ; }
 06A8 3D0104            cmp [X+1],4
 06AB B01C              jnz L231
 06AD                   .dbline 434
 06AD 91A9              xcall _Flash4
 06AF                   .dbline 435
 06AF           ; }
 06AF 8018              xjmp L231
 06B1           L230:
 06B1                   .dbline 436
 06B1           ; }
 06B1 3D0002            cmp [X+0],2
 06B4 B013              jnz L240
 06B6                   .dbline 437
 06B6           ; }
 06B6                   .dbline 438
 06B6           ; }
 06B6 62D000            mov REG[0xd0],>__r0
 06B9 5201              mov A,[X+1]
 06BB 1101              sub A,1
 06BD 3901              cmp A,1
 06BF D006              jnc L242
 06C1           X11:
 06C1                   .dbline 438
 06C1 560104            mov [X+1],4
 06C4 8003              xjmp L243
 06C6           L242:
 06C6                   .dbline 439
 06C6           ; }
 06C6 7B01              dec [X+1]
 06C8           L243:
 06C8                   .dbline 440
 06C8           ; }
 06C8           L240:
 06C8           L231:
 06C8           L227:
 06C8                   .dbline 441
 06C8           L198:
 06C8                   .dbline 441
 06C8           ; }
 06C8 3D0004            cmp [X+0],4
 06CB BEA5              jnz L197
 06CD                   .dbline -2
 06CD                   .dbline 442
 06CD           ; }
 06CD           L196:
 06CD 38FC              add SP,-4
 06CF 20                pop X
 06D0                   .dbline 0 ; func end
 06D0 7F                ret
 06D1                   .dbsym l x 2 i
 06D1                   .dbsym l menu 1 c
 06D1                   .dbsym l pulsat 0 c
 06D1                   .dbend
 06D1                   .dbfunc e Flash1 _Flash1 fV
 06D1           ;              x -> X+1
 06D1           ;         pulsat -> X+0
 06D1           _Flash1::
 06D1                   .dbline -1
 06D1 10                push X
 06D2 4F                mov X,SP
 06D3 3803              add SP,3
 06D5                   .dbline 451
 06D5           ; }
 06D5           ; }
 06D5           ; }
 06D5           ; }
 06D5           ; }
 06D5           ; }
 06D5           ; }
 06D5           ; }
 06D5           ; }
 06D5           L245:
 06D5                   .dbline 456
 06D5           ; }
 06D5           ; }
 06D5           ; }
 06D5           ; }
 06D5           ; }
 06D5                   .dbline 457
 06D5           ; }
 06D5 10                push X
 06D6 5001              mov A,1
 06D8 7C0000            xcall _LCD_Control
 06DB                   .dbline 458
 06DB           ; }
 06DB 50D0              mov A,>L248
 06DD 08                push A
 06DE 50D0              mov A,<L248
 06E0 5C                mov X,A
 06E1 18                pop A
 06E2 7C0000            xcall _LCD_PrCString
 06E5                   .dbline 459
 06E5           ; }
 06E5 5700              mov X,0
 06E7 5001              mov A,1
 06E9 7C0000            xcall _LCD_Position
 06EC 20                pop X
 06ED                   .dbline 460
 06ED           ; }
 06ED 62D000            mov REG[0xd0],>_Fla1
 06F0 3C0000            cmp [_Fla1],0
 06F3 B00F              jnz L249
 06F5                   .dbline 460
 06F5 10                push X
 06F6 5053              mov A,>L137
 06F8 08                push A
 06F9 5053              mov A,<L137
 06FB 5C                mov X,A
 06FC 18                pop A
 06FD 7C0000            xcall _LCD_PrCString
 0700 20                pop X
 0701 800D              xjmp L250
 0703           L249:
 0703                   .dbline 461
 0703           ; }
 0703 10                push X
 0704 5050              mov A,>L138
 0706 08                push A
 0707 5050              mov A,<L138
 0709 5C                mov X,A
 070A 18                pop A
 070B 7C0000            xcall _LCD_PrCString
 070E 20                pop X
 070F           L250:
 070F                   .dbline 462
 070F           ; }
 070F 98EF              xcall _bucle_temp
 0711                   .dbline 463
 0711           ; }
 0711 9989              xcall _Pulsador
 0713 5400              mov [X+0],A
 0715                   .dbline 464
 0715           ; }
 0715 62D000            mov REG[0xd0],>_Buzzer
 0718 3C0001            cmp [_Buzzer],1
 071B B003              jnz L251
 071D                   .dbline 464
 071D 9915              xcall _Pitido
 071F           L251:
 071F                   .dbline 465
 071F           ; }
 071F 3D0001            cmp [X+0],1
 0722 A006              jz L255
 0724 3D0002            cmp [X+0],2
 0727 B00A              jnz L253
 0729           L255:
 0729                   .dbline 466
 0729           ; }
 0729                   .dbline 467
 0729           ; }
 0729 5D00              mov A,REG[ 0]
 072B 62D000            mov REG[0xd0],>__r0
 072E 6000              mov REG[ 0],A
 0730                   .dbline 468
 0730           ; }
 0730 8019              xjmp L254
 0732           L253:
 0732                   .dbline 469
 0732           ; }
 0732 3D0003            cmp [X+0],3
 0735 B014              jnz L256
 0737                   .dbline 470
 0737           ; }
 0737                   .dbline 471
 0737           ; }
 0737 62D000            mov REG[0xd0],>_Fla1
 073A 3C0000            cmp [_Fla1],0
 073D B006              jnz L258
 073F                   .dbline 471
 073F 550001            mov [_Fla1],1
 0742 8007              xjmp L259
 0744           L258:
 0744                   .dbline 472
 0744           ; }
 0744 62D000            mov REG[0xd0],>_Fla1
 0747 550000            mov [_Fla1],0
 074A           L259:
 074A                   .dbline 473
 074A           ; }
 074A           L256:
 074A           L254:
 074A                   .dbline 474
 074A           L246:
 074A                   .dbline 474
 074A           ; }
 074A 3D0004            cmp [X+0],4
 074D BF87              jnz L245
 074F                   .dbline -2
 074F                   .dbline 475
 074F           ; }
 074F           L244:
 074F 38FD              add SP,-3
 0751 20                pop X
 0752                   .dbline 0 ; func end
 0752 7F                ret
 0753                   .dbsym l x 1 i
 0753                   .dbsym l pulsat 0 c
 0753                   .dbend
 0753                   .dbfunc e Flash2 _Flash2 fV
 0753           ;              x -> X+1
 0753           ;         pulsat -> X+0
 0753           _Flash2::
 0753                   .dbline -1
 0753 10                push X
 0754 4F                mov X,SP
 0755 3803              add SP,3
 0757                   .dbline 485
 0757           ; }
 0757           ; }
 0757           ; }
 0757           ; }
 0757           ; }
 0757           ; }
 0757           ; }
 0757           ; }
 0757           ; }
 0757           ; }
 0757           L261:
 0757                   .dbline 490
 0757           ; }
 0757           ; }
 0757           ; }
 0757           ; }
 0757           ; }
 0757                   .dbline 491
 0757           ; }
 0757 10                push X
 0758 5001              mov A,1
 075A 7C0000            xcall _LCD_Control
 075D                   .dbline 492
 075D           ; }
 075D 50C7              mov A,>L264
 075F 08                push A
 0760 50C7              mov A,<L264
 0762 5C                mov X,A
 0763 18                pop A
 0764 7C0000            xcall _LCD_PrCString
 0767                   .dbline 493
 0767           ; }
 0767 5700              mov X,0
 0769 5001              mov A,1
 076B 7C0000            xcall _LCD_Position
 076E 20                pop X
 076F                   .dbline 494
 076F           ; }
 076F 62D000            mov REG[0xd0],>_Fla2
 0772 3C0000            cmp [_Fla2],0
 0775 B00F              jnz L265
 0777                   .dbline 494
 0777 10                push X
 0778 5053              mov A,>L137
 077A 08                push A
 077B 5053              mov A,<L137
 077D 5C                mov X,A
 077E 18                pop A
 077F 7C0000            xcall _LCD_PrCString
 0782 20                pop X
 0783 800D              xjmp L266
 0785           L265:
 0785                   .dbline 495
 0785           ; }
 0785 10                push X
 0786 5050              mov A,>L138
 0788 08                push A
 0789 5050              mov A,<L138
 078B 5C                mov X,A
 078C 18                pop A
 078D 7C0000            xcall _LCD_PrCString
 0790 20                pop X
 0791           L266:
 0791                   .dbline 496
 0791           ; }
 0791 986D              xcall _bucle_temp
 0793                   .dbline 497
 0793           ; }
 0793 9907              xcall _Pulsador
 0795 5400              mov [X+0],A
 0797                   .dbline 498
 0797           ; }
 0797 62D000            mov REG[0xd0],>_Buzzer
 079A 3C0001            cmp [_Buzzer],1
 079D B003              jnz L267
 079F                   .dbline 498
 079F 9893              xcall _Pitido
 07A1           L267:
 07A1                   .dbline 499
 07A1           ; }
 07A1 3D0001            cmp [X+0],1
 07A4 A006              jz L271
 07A6 3D0002            cmp [X+0],2
 07A9 B00A              jnz L269
 07AB           L271:
 07AB                   .dbline 500
 07AB           ; }
 07AB                   .dbline 501
 07AB           ; }
 07AB 5D00              mov A,REG[ 0]
 07AD 62D000            mov REG[0xd0],>__r0
 07B0 6000              mov REG[ 0],A
 07B2                   .dbline 502
 07B2           ; }
 07B2 8019              xjmp L270
 07B4           L269:
 07B4                   .dbline 503
 07B4           ; }
 07B4 3D0003            cmp [X+0],3
 07B7 B014              jnz L272
 07B9                   .dbline 504
 07B9           ; }
 07B9                   .dbline 505
 07B9           ; }
 07B9 62D000            mov REG[0xd0],>_Fla2
 07BC 3C0000            cmp [_Fla2],0
 07BF B006              jnz L274
 07C1                   .dbline 505
 07C1 550001            mov [_Fla2],1
 07C4 8007              xjmp L275
 07C6           L274:
 07C6                   .dbline 506
 07C6           ; }
 07C6 62D000            mov REG[0xd0],>_Fla2
 07C9 550000            mov [_Fla2],0
 07CC           L275:
 07CC                   .dbline 507
 07CC           ; }
 07CC           L272:
 07CC           L270:
 07CC                   .dbline 508
 07CC           L262:
 07CC                   .dbline 508
 07CC           ; }
 07CC 3D0004            cmp [X+0],4
 07CF BF87              jnz L261
 07D1                   .dbline -2
 07D1                   .dbline 509
 07D1           ; }
 07D1           L260:
 07D1 38FD              add SP,-3
 07D3 20                pop X
 07D4                   .dbline 0 ; func end
 07D4 7F                ret
 07D5                   .dbsym l x 1 i
 07D5                   .dbsym l pulsat 0 c
 07D5                   .dbend
 07D5                   .dbfunc e Flash3 _Flash3 fV
 07D5           ;              x -> X+1
 07D5           ;         pulsat -> X+0
 07D5           _Flash3::
 07D5                   .dbline -1
 07D5 10                push X
 07D6 4F                mov X,SP
 07D7 3803              add SP,3
 07D9                   .dbline 518
 07D9           ; }
 07D9           ; }
 07D9           ; }
 07D9           ; }
 07D9           ; }
 07D9           ; }
 07D9           ; }
 07D9           ; }
 07D9           ; }
 07D9           L277:
 07D9                   .dbline 523
 07D9           ; }
 07D9           ; }
 07D9           ; }
 07D9           ; }
 07D9           ; }
 07D9                   .dbline 524
 07D9           ; }
 07D9 10                push X
 07DA 5001              mov A,1
 07DC 7C0000            xcall _LCD_Control
 07DF                   .dbline 525
 07DF           ; }
 07DF 50BE              mov A,>L280
 07E1 08                push A
 07E2 50BE              mov A,<L280
 07E4 5C                mov X,A
 07E5 18                pop A
 07E6 7C0000            xcall _LCD_PrCString
 07E9                   .dbline 526
 07E9           ; }
 07E9 5700              mov X,0
 07EB 5001              mov A,1
 07ED 7C0000            xcall _LCD_Position
 07F0 20                pop X
 07F1                   .dbline 527
 07F1           ; }
 07F1 62D000            mov REG[0xd0],>_Fla3
 07F4 3C0000            cmp [_Fla3],0
 07F7 B00F              jnz L281
 07F9                   .dbline 527
 07F9 10                push X
 07FA 5053              mov A,>L137
 07FC 08                push A
 07FD 5053              mov A,<L137
 07FF 5C                mov X,A
 0800 18                pop A
 0801 7C0000            xcall _LCD_PrCString
 0804 20                pop X
 0805 800D              xjmp L282
 0807           L281:
 0807                   .dbline 528
 0807           ; }
 0807 10                push X
 0808 5050              mov A,>L138
 080A 08                push A
 080B 5050              mov A,<L138
 080D 5C                mov X,A
 080E 18                pop A
 080F 7C0000            xcall _LCD_PrCString
 0812 20                pop X
 0813           L282:
 0813                   .dbline 529
 0813           ; }
 0813 7C0000            xcall _bucle_temp
 0816                   .dbline 530
 0816           ; }
 0816 9884              xcall _Pulsador
 0818 5400              mov [X+0],A
 081A                   .dbline 531
 081A           ; }
 081A 62D000            mov REG[0xd0],>_Buzzer
 081D 3C0001            cmp [_Buzzer],1
 0820 B003              jnz L283
 0822                   .dbline 531
 0822 9810              xcall _Pitido
 0824           L283:
 0824                   .dbline 532
 0824           ; }
 0824 3D0001            cmp [X+0],1
 0827 A006              jz L287
 0829 3D0002            cmp [X+0],2
 082C B00A              jnz L285
 082E           L287:
 082E                   .dbline 533
 082E           ; }
 082E                   .dbline 534
 082E           ; }
 082E 5D00              mov A,REG[ 0]
 0830 62D000            mov REG[0xd0],>__r0
 0833 6000              mov REG[ 0],A
 0835                   .dbline 535
 0835           ; }
 0835 8019              xjmp L286
 0837           L285:
 0837                   .dbline 536
 0837           ; }
 0837 3D0003            cmp [X+0],3
 083A B014              jnz L288
 083C                   .dbline 537
 083C           ; }
 083C                   .dbline 538
 083C           ; }
 083C 62D000            mov REG[0xd0],>_Fla3
 083F 3C0000            cmp [_Fla3],0
 0842 B006              jnz L290
 0844                   .dbline 538
 0844 550001            mov [_Fla3],1
 0847 8007              xjmp L291
 0849           L290:
 0849                   .dbline 539
 0849           ; }
 0849 62D000            mov REG[0xd0],>_Fla3
 084C 550000            mov [_Fla3],0
 084F           L291:
 084F                   .dbline 540
 084F           ; }
 084F           L288:
 084F           L286:
 084F                   .dbline 541
 084F           L278:
 084F                   .dbline 541
 084F           ; }
 084F 3D0004            cmp [X+0],4
 0852 BF86              jnz L277
 0854                   .dbline -2
 0854                   .dbline 542
 0854           ; }
 0854           L276:
 0854 38FD              add SP,-3
 0856 20                pop X
 0857                   .dbline 0 ; func end
 0857 7F                ret
 0858                   .dbsym l x 1 i
 0858                   .dbsym l pulsat 0 c
 0858                   .dbend
 0858                   .dbfunc e Flash4 _Flash4 fV
 0858           ;              x -> X+1
 0858           ;         pulsat -> X+0
 0858           _Flash4::
 0858                   .dbline -1
 0858 10                push X
 0859 4F                mov X,SP
 085A 3803              add SP,3
 085C                   .dbline 551
 085C           ; }
 085C           ; }
 085C           ; }
 085C           ; }
 085C           ; }
 085C           ; }
 085C           ; }
 085C           ; }
 085C           ; }
 085C           L293:
 085C                   .dbline 556
 085C           ; }
 085C           ; }
 085C           ; }
 085C           ; }
 085C           ; }
 085C                   .dbline 557
 085C           ; }
 085C 10                push X
 085D 5001              mov A,1
 085F 7C0000            xcall _LCD_Control
 0862                   .dbline 558
 0862           ; }
 0862 50B5              mov A,>L296
 0864 08                push A
 0865 50B5              mov A,<L296
 0867 5C                mov X,A
 0868 18                pop A
 0869 7C0000            xcall _LCD_PrCString
 086C                   .dbline 559
 086C           ; }
 086C 5700              mov X,0
 086E 5001              mov A,1
 0870 7C0000            xcall _LCD_Position
 0873 20                pop X
 0874                   .dbline 560
 0874           ; }
 0874 62D000            mov REG[0xd0],>_Fla4
 0877 3C0000            cmp [_Fla4],0
 087A B00F              jnz L297
 087C                   .dbline 560
 087C 10                push X
 087D 5053              mov A,>L137
 087F 08                push A
 0880 5053              mov A,<L137
 0882 5C                mov X,A
 0883 18                pop A
 0884 7C0000            xcall _LCD_PrCString
 0887 20                pop X
 0888 800D              xjmp L298
 088A           L297:
 088A                   .dbline 561
 088A           ; }
 088A 10                push X
 088B 5050              mov A,>L138
 088D 08                push A
 088E 5050              mov A,<L138
 0890 5C                mov X,A
 0891 18                pop A
 0892 7C0000            xcall _LCD_PrCString
 0895 20                pop X
 0896           L298:
 0896                   .dbline 562
 0896           ; }
 0896 7C0000            xcall _bucle_temp
 0899                   .dbline 563
 0899           ; }
 0899 9801              xcall _Pulsador
 089B 5400              mov [X+0],A
 089D                   .dbline 564
 089D           ; }
 089D 62D000            mov REG[0xd0],>_Buzzer
 08A0 3C0001            cmp [_Buzzer],1
 08A3 B004              jnz L299
 08A5                   .dbline 564
 08A5 7C0034            xcall _Pitido
 08A8           L299:
 08A8                   .dbline 565
 08A8           ; }
 08A8 3D0001            cmp [X+0],1
 08AB A006              jz L303
 08AD 3D0002            cmp [X+0],2
 08B0 B00A              jnz L301
 08B2           L303:
 08B2                   .dbline 566
 08B2           ; }
 08B2                   .dbline 567
 08B2           ; }
 08B2 5D00              mov A,REG[ 0]
 08B4 62D000            mov REG[0xd0],>__r0
 08B7 6000              mov REG[ 0],A
 08B9                   .dbline 568
 08B9           ; }
 08B9 8019              xjmp L302
 08BB           L301:
 08BB                   .dbline 569
 08BB           ; }
 08BB 3D0003            cmp [X+0],3
 08BE B014              jnz L304
 08C0                   .dbline 570
 08C0           ; }
 08C0                   .dbline 571
 08C0           ; }
 08C0 62D000            mov REG[0xd0],>_Fla4
 08C3 3C0000            cmp [_Fla4],0
 08C6 B006              jnz L306
 08C8                   .dbline 571
 08C8 550001            mov [_Fla4],1
 08CB 8007              xjmp L307
 08CD           L306:
 08CD                   .dbline 572
 08CD           ; }
 08CD 62D000            mov REG[0xd0],>_Fla4
 08D0 550000            mov [_Fla4],0
 08D3           L307:
 08D3                   .dbline 573
 08D3           ; }
 08D3           L304:
 08D3           L302:
 08D3                   .dbline 574
 08D3           L294:
 08D3                   .dbline 574
 08D3           ; }
 08D3 3D0004            cmp [X+0],4
 08D6 BF85              jnz L293
 08D8                   .dbline -2
 08D8                   .dbline 575
 08D8           ; }
 08D8           L292:
 08D8 38FD              add SP,-3
 08DA 20                pop X
 08DB                   .dbline 0 ; func end
 08DB 7F                ret
 08DC                   .dbsym l x 1 i
 08DC                   .dbsym l pulsat 0 c
 08DC                   .dbend
 08DC                   .dbfunc e Dispar _Dispar fV
 08DC           ;              x -> X+2
 08DC           ;           menu -> X+1
 08DC           ;         pulsat -> X+0
 08DC           _Dispar::
 08DC                   .dbline -1
 08DC 10                push X
 08DD 4F                mov X,SP
 08DE 3804              add SP,4
 08E0                   .dbline 585
 08E0           ; }
 08E0           ; }
 08E0           ; }
 08E0           ; }
 08E0           ; }
 08E0           ; }
 08E0           ; }
 08E0           ; }
 08E0           ; }
 08E0           ; }
 08E0                   .dbline 587
 08E0           ; }
 08E0           ; }
 08E0 560101            mov [X+1],1
 08E3           L309:
 08E3                   .dbline 591
 08E3           ; }
 08E3           ; }
 08E3           ; }
 08E3           ; }
 08E3                   .dbline 592
 08E3           ; }
 08E3 10                push X
 08E4 5001              mov A,1
 08E6 7C0000            xcall _LCD_Control
 08E9                   .dbline 593
 08E9           ; }
 08E9 50A6              mov A,>L312
 08EB 08                push A
 08EC 50A6              mov A,<L312
 08EE 5C                mov X,A
 08EF 18                pop A
 08F0 7C0000            xcall _LCD_PrCString
 08F3                   .dbline 594
 08F3           ; }
 08F3 5700              mov X,0
 08F5 5001              mov A,1
 08F7 7C0000            xcall _LCD_Position
 08FA 20                pop X
 08FB                   .dbline 595
 08FB           ; }
 08FB 3D0101            cmp [X+1],1
 08FE B00F              jnz L313
 0900                   .dbline 595
 0900 10                push X
 0901 509B              mov A,>L315
 0903 08                push A
 0904 509B              mov A,<L315
 0906 5C                mov X,A
 0907 18                pop A
 0908 7C0000            xcall _LCD_PrCString
 090B 20                pop X
 090C 8012              xjmp L314
 090E           L313:
 090E                   .dbline 596
 090E           ; }
 090E 3D0102            cmp [X+1],2
 0911 B00D              jnz L316
 0913                   .dbline 596
 0913 10                push X
 0914 5090              mov A,>L318
 0916 08                push A
 0917 5090              mov A,<L318
 0919 5C                mov X,A
 091A 18                pop A
 091B 7C0000            xcall _LCD_PrCString
 091E 20                pop X
 091F           L316:
 091F           L314:
 091F                   .dbline 597
 091F           ; }
 091F 7C0000            xcall _bucle_temp
 0922                   .dbline 598
 0922           ; }
 0922 7C009C            xcall _Pulsador
 0925 5400              mov [X+0],A
 0927                   .dbline 599
 0927           ; }
 0927 62D000            mov REG[0xd0],>_Buzzer
 092A 3C0001            cmp [_Buzzer],1
 092D B004              jnz L319
 092F                   .dbline 599
 092F 7C0034            xcall _Pitido
 0932           L319:
 0932                   .dbline 600
 0932           ; }
 0932 3D0001            cmp [X+0],1
 0935 B019              jnz L321
 0937                   .dbline 601
 0937           ; }
 0937                   .dbline 602
 0937           ; }
 0937 62D000            mov REG[0xd0],>__r0
 093A 5201              mov A,[X+1]
 093C 0101              add A,1
 093E 5300              mov [__r0],A
 0940 5002              mov A,2
 0942 3A00              cmp A,[__r0]
 0944 D006              jnc L323
 0946           X12:
 0946                   .dbline 602
 0946 560101            mov [X+1],1
 0949 8033              xjmp L322
 094B           L323:
 094B                   .dbline 603
 094B           ; }
 094B 7701              inc [X+1]
 094D                   .dbline 604
 094D           ; }
 094D 802F              xjmp L322
 094F           L321:
 094F                   .dbline 605
 094F           ; }
 094F 3D0003            cmp [X+0],3
 0952 B013              jnz L325
 0954                   .dbline 606
 0954           ; }
 0954                   .dbline 607
 0954           ; }
 0954 3D0101            cmp [X+1],1
 0957 B005              jnz L327
 0959                   .dbline 607
 0959 902B              xcall _Camara1
 095B 8021              xjmp L326
 095D           L327:
 095D                   .dbline 608
 095D           ; }
 095D 3D0102            cmp [X+1],2
 0960 B01C              jnz L326
 0962                   .dbline 608
 0962 90CF              xcall _Camara2
 0964                   .dbline 609
 0964           ; }
 0964 8018              xjmp L326
 0966           L325:
 0966                   .dbline 610
 0966           ; }
 0966 3D0002            cmp [X+0],2
 0969 B013              jnz L331
 096B                   .dbline 611
 096B           ; }
 096B                   .dbline 612
 096B           ; }
 096B 62D000            mov REG[0xd0],>__r0
 096E 5201              mov A,[X+1]
 0970 1101              sub A,1
 0972 3901              cmp A,1
 0974 D006              jnc L333
 0976           X13:
 0976                   .dbline 612
 0976 560102            mov [X+1],2
 0979 8003              xjmp L334
 097B           L333:
 097B                   .dbline 613
 097B           ; }
 097B 7B01              dec [X+1]
 097D           L334:
 097D                   .dbline 614
 097D           ; }
 097D           L331:
 097D           L326:
 097D           L322:
 097D                   .dbline 615
 097D           L310:
 097D                   .dbline 615
 097D           ; }
 097D 3D0004            cmp [X+0],4
 0980 BF62              jnz L309
 0982                   .dbline -2
 0982                   .dbline 616
 0982           ; }
 0982           L308:
 0982 38FC              add SP,-4
 0984 20                pop X
 0985                   .dbline 0 ; func end
 0985 7F                ret
 0986                   .dbsym l x 2 i
 0986                   .dbsym l menu 1 c
 0986                   .dbsym l pulsat 0 c
 0986                   .dbend
 0986                   .dbfunc e Camara1 _Camara1 fV
 0986           ;              x -> X+1
 0986           ;         pulsat -> X+0
 0986           _Camara1::
 0986                   .dbline -1
 0986 10                push X
 0987 4F                mov X,SP
 0988 3803              add SP,3
 098A                   .dbline 625
 098A           ; }
 098A           ; }
 098A           ; }
 098A           ; }
 098A           ; }
 098A           ; }
 098A           ; }
 098A           ; }
 098A           ; }
 098A           L336:
 098A                   .dbline 630
 098A           ; }
 098A           ; }
 098A           ; }
 098A           ; }
 098A           ; }
 098A                   .dbline 631
 098A           ; }
 098A 10                push X
 098B 5001              mov A,1
 098D 7C0000            xcall _LCD_Control
 0990                   .dbline 632
 0990           ; }
 0990 5086              mov A,>L339
 0992 08                push A
 0993 5086              mov A,<L339
 0995 5C                mov X,A
 0996 18                pop A
 0997 7C0000            xcall _LCD_PrCString
 099A                   .dbline 633
 099A           ; }
 099A 5700              mov X,0
 099C 5001              mov A,1
 099E 7C0000            xcall _LCD_Position
 09A1 20                pop X
 09A2                   .dbline 634
 09A2           ; }
 09A2 62D000            mov REG[0xd0],>_Cam1
 09A5 3C0000            cmp [_Cam1],0
 09A8 B00F              jnz L340
 09AA                   .dbline 634
 09AA 10                push X
 09AB 507B              mov A,>L342
 09AD 08                push A
 09AE 507B              mov A,<L342
 09B0 5C                mov X,A
 09B1 18                pop A
 09B2 7C0000            xcall _LCD_PrCString
 09B5 20                pop X
 09B6 8041              xjmp L341
 09B8           L340:
 09B8                   .dbline 635
 09B8           ; }
 09B8 62D000            mov REG[0xd0],>_Cam1
 09BB 3C0001            cmp [_Cam1],1
 09BE B00F              jnz L343
 09C0                   .dbline 635
 09C0 10                push X
 09C1 506F              mov A,>L345
 09C3 08                push A
 09C4 506F              mov A,<L345
 09C6 5C                mov X,A
 09C7 18                pop A
 09C8 7C0000            xcall _LCD_PrCString
 09CB 20                pop X
 09CC 802B              xjmp L344
 09CE           L343:
 09CE                   .dbline 636
 09CE           ; }
 09CE 62D000            mov REG[0xd0],>_Cam1
 09D1 3C0002            cmp [_Cam1],2
 09D4 B00F              jnz L346
 09D6                   .dbline 636
 09D6 10                push X
 09D7 5060              mov A,>L348
 09D9 08                push A
 09DA 5060              mov A,<L348
 09DC 5C                mov X,A
 09DD 18                pop A
 09DE 7C0000            xcall _LCD_PrCString
 09E1 20                pop X
 09E2 8015              xjmp L347
 09E4           L346:
 09E4                   .dbline 637
 09E4           ; }
 09E4 62D000            mov REG[0xd0],>_Cam1
 09E7 3C0003            cmp [_Cam1],3
 09EA B00D              jnz L349
 09EC                   .dbline 637
 09EC 10                push X
 09ED 5055              mov A,>L351
 09EF 08                push A
 09F0 5055              mov A,<L351
 09F2 5C                mov X,A
 09F3 18                pop A
 09F4 7C0000            xcall _LCD_PrCString
 09F7 20                pop X
 09F8           L349:
 09F8           L347:
 09F8           L344:
 09F8           L341:
 09F8                   .dbline 638
 09F8           ; }
 09F8 7C0000            xcall _bucle_temp
 09FB                   .dbline 639
 09FB           ; }
 09FB 7C009C            xcall _Pulsador
 09FE 5400              mov [X+0],A
 0A00                   .dbline 640
 0A00           ; }
 0A00 62D000            mov REG[0xd0],>_Buzzer
 0A03 3C0001            cmp [_Buzzer],1
 0A06 B004              jnz L352
 0A08                   .dbline 640
 0A08 7C0034            xcall _Pitido
 0A0B           L352:
 0A0B                   .dbline 641
 0A0B           ; }
 0A0B 3D0001            cmp [X+0],1
 0A0E A006              jz L356
 0A10 3D0002            cmp [X+0],2
 0A13 B00A              jnz L354
 0A15           L356:
 0A15                   .dbline 642
 0A15           ; }
 0A15                   .dbline 643
 0A15           ; }
 0A15 5D00              mov A,REG[ 0]
 0A17 62D000            mov REG[0xd0],>__r0
 0A1A 6000              mov REG[ 0],A
 0A1C                   .dbline 644
 0A1C           ; }
 0A1C 800D              xjmp L355
 0A1E           L354:
 0A1E                   .dbline 645
 0A1E           ; }
 0A1E 3D0003            cmp [X+0],3
 0A21 B008              jnz L357
 0A23                   .dbline 646
 0A23           ; }
 0A23                   .dbline 647
 0A23           ; }
 0A23 5001              mov A,1
 0A25 08                push A
 0A26 90B8              xcall _Tipo_disp
 0A28 38FF              add SP,-1
 0A2A                   .dbline 648
 0A2A           ; }
 0A2A           L357:
 0A2A           L355:
 0A2A                   .dbline 649
 0A2A           L337:
 0A2A                   .dbline 649
 0A2A           ; }
 0A2A 3D0004            cmp [X+0],4
 0A2D BF5C              jnz L336
 0A2F                   .dbline -2
 0A2F                   .dbline 650
 0A2F           ; }
 0A2F           L335:
 0A2F 38FD              add SP,-3
 0A31 20                pop X
 0A32                   .dbline 0 ; func end
 0A32 7F                ret
 0A33                   .dbsym l x 1 i
 0A33                   .dbsym l pulsat 0 c
 0A33                   .dbend
 0A33                   .dbfunc e Camara2 _Camara2 fV
 0A33           ;              x -> X+1
 0A33           ;         pulsat -> X+0
 0A33           _Camara2::
 0A33                   .dbline -1
 0A33 10                push X
 0A34 4F                mov X,SP
 0A35 3803              add SP,3
 0A37                   .dbline 659
 0A37           ; }
 0A37           ; }
 0A37           ; }
 0A37           ; }
 0A37           ; }
 0A37           ; }
 0A37           ; }
 0A37           ; }
 0A37           ; }
 0A37           L360:
 0A37                   .dbline 664
 0A37           ; }
 0A37           ; }
 0A37           ; }
 0A37           ; }
 0A37           ; }
 0A37                   .dbline 665
 0A37           ; }
 0A37 10                push X
 0A38 5001              mov A,1
 0A3A 7C0000            xcall _LCD_Control
 0A3D                   .dbline 666
 0A3D           ; }
 0A3D 504B              mov A,>L363
 0A3F 08                push A
 0A40 504B              mov A,<L363
 0A42 5C                mov X,A
 0A43 18                pop A
 0A44 7C0000            xcall _LCD_PrCString
 0A47                   .dbline 667
 0A47           ; }
 0A47 5700              mov X,0
 0A49 5001              mov A,1
 0A4B 7C0000            xcall _LCD_Position
 0A4E 20                pop X
 0A4F                   .dbline 668
 0A4F           ; }
 0A4F 62D000            mov REG[0xd0],>_Cam2
 0A52 3C0000            cmp [_Cam2],0
 0A55 B00F              jnz L364
 0A57                   .dbline 668
 0A57 10                push X
 0A58 507B              mov A,>L342
 0A5A 08                push A
 0A5B 507B              mov A,<L342
 0A5D 5C                mov X,A
 0A5E 18                pop A
 0A5F 7C0000            xcall _LCD_PrCString
 0A62 20                pop X
 0A63 8041              xjmp L365
 0A65           L364:
 0A65                   .dbline 669
 0A65           ; }
 0A65 62D000            mov REG[0xd0],>_Cam2
 0A68 3C0001            cmp [_Cam2],1
 0A6B B00F              jnz L366
 0A6D                   .dbline 669
 0A6D 10                push X
 0A6E 506F              mov A,>L345
 0A70 08                push A
 0A71 506F              mov A,<L345
 0A73 5C                mov X,A
 0A74 18                pop A
 0A75 7C0000            xcall _LCD_PrCString
 0A78 20                pop X
 0A79 802B              xjmp L367
 0A7B           L366:
 0A7B                   .dbline 670
 0A7B           ; }
 0A7B 62D000            mov REG[0xd0],>_Cam2
 0A7E 3C0002            cmp [_Cam2],2
 0A81 B00F              jnz L368
 0A83                   .dbline 670
 0A83 10                push X
 0A84 5060              mov A,>L348
 0A86 08                push A
 0A87 5060              mov A,<L348
 0A89 5C                mov X,A
 0A8A 18                pop A
 0A8B 7C0000            xcall _LCD_PrCString
 0A8E 20                pop X
 0A8F 8015              xjmp L369
 0A91           L368:
 0A91                   .dbline 671
 0A91           ; }
 0A91 62D000            mov REG[0xd0],>_Cam2
 0A94 3C0003            cmp [_Cam2],3
 0A97 B00D              jnz L370
 0A99                   .dbline 671
 0A99 10                push X
 0A9A 5055              mov A,>L351
 0A9C 08                push A
 0A9D 5055              mov A,<L351
 0A9F 5C                mov X,A
 0AA0 18                pop A
 0AA1 7C0000            xcall _LCD_PrCString
 0AA4 20                pop X
 0AA5           L370:
 0AA5           L369:
 0AA5           L367:
 0AA5           L365:
 0AA5                   .dbline 672
 0AA5           ; }
 0AA5 7C0000            xcall _bucle_temp
 0AA8                   .dbline 673
 0AA8           ; }
 0AA8 7C009C            xcall _Pulsador
 0AAB 5400              mov [X+0],A
 0AAD                   .dbline 674
 0AAD           ; }
 0AAD 62D000            mov REG[0xd0],>_Buzzer
 0AB0 3C0001            cmp [_Buzzer],1
 0AB3 B004              jnz L372
 0AB5                   .dbline 674
 0AB5 7C0034            xcall _Pitido
 0AB8           L372:
 0AB8                   .dbline 675
 0AB8           ; }
 0AB8 3D0001            cmp [X+0],1
 0ABB A006              jz L376
 0ABD 3D0002            cmp [X+0],2
 0AC0 B00A              jnz L374
 0AC2           L376:
 0AC2                   .dbline 676
 0AC2           ; }
 0AC2                   .dbline 677
 0AC2           ; }
 0AC2 5D00              mov A,REG[ 0]
 0AC4 62D000            mov REG[0xd0],>__r0
 0AC7 6000              mov REG[ 0],A
 0AC9                   .dbline 678
 0AC9           ; }
 0AC9 800D              xjmp L375
 0ACB           L374:
 0ACB                   .dbline 679
 0ACB           ; }
 0ACB 3D0003            cmp [X+0],3
 0ACE B008              jnz L377
 0AD0                   .dbline 680
 0AD0           ; }
 0AD0                   .dbline 681
 0AD0           ; }
 0AD0 5002              mov A,2
 0AD2 08                push A
 0AD3 900B              xcall _Tipo_disp
 0AD5 38FF              add SP,-1
 0AD7                   .dbline 682
 0AD7           ; }
 0AD7           L377:
 0AD7           L375:
 0AD7                   .dbline 683
 0AD7           L361:
 0AD7                   .dbline 683
 0AD7           ; }
 0AD7 3D0004            cmp [X+0],4
 0ADA BF5C              jnz L360
 0ADC                   .dbline -2
 0ADC                   .dbline 684
 0ADC           ; }
 0ADC           L359:
 0ADC 38FD              add SP,-3
 0ADE 20                pop X
 0ADF                   .dbline 0 ; func end
 0ADF 7F                ret
 0AE0                   .dbsym l x 1 i
 0AE0                   .dbsym l pulsat 0 c
 0AE0                   .dbend
 0AE0                   .dbfunc e Tipo_disp _Tipo_disp fV
 0AE0           ;              x -> X+2
 0AE0           ;           menu -> X+1
 0AE0           ;         pulsat -> X+0
 0AE0           ;         camara -> X-4
 0AE0           _Tipo_disp::
 0AE0                   .dbline -1
 0AE0 10                push X
 0AE1 4F                mov X,SP
 0AE2 3804              add SP,4
 0AE4                   .dbline 694
 0AE4           ; }
 0AE4           ; }
 0AE4           ; }
 0AE4           ; }
 0AE4           ; }
 0AE4           ; }
 0AE4           ; }
 0AE4           ; }
 0AE4           ; }
 0AE4           ; }
 0AE4                   .dbline 698
 0AE4           ; }
 0AE4           ; }
 0AE4           ; }
 0AE4           ; }
 0AE4 3DFC01            cmp [X-4],1
 0AE7 B00C              jnz L380
 0AE9                   .dbline 698
 0AE9 62D000            mov REG[0xd0],>_Cam1
 0AEC 5100              mov A,[_Cam1]
 0AEE 0101              add A,1
 0AF0 5401              mov [X+1],A
 0AF2 800F              xjmp L381
 0AF4           L380:
 0AF4                   .dbline 699
 0AF4           ; }
 0AF4 3DFC02            cmp [X-4],2
 0AF7 B00A              jnz L382
 0AF9                   .dbline 699
 0AF9 62D000            mov REG[0xd0],>_Cam2
 0AFC 5100              mov A,[_Cam2]
 0AFE 0101              add A,1
 0B00 5401              mov [X+1],A
 0B02           L382:
 0B02           L381:
 0B02           L384:
 0B02                   .dbline 702
 0B02           ; }
 0B02           ; }
 0B02           ; }
 0B02                   .dbline 703
 0B02           ; }
 0B02 10                push X
 0B03 5001              mov A,1
 0B05 7C0000            xcall _LCD_Control
 0B08                   .dbline 704
 0B08           ; }
 0B08 503C              mov A,>L387
 0B0A 08                push A
 0B0B 503C              mov A,<L387
 0B0D 5C                mov X,A
 0B0E 18                pop A
 0B0F 7C0000            xcall _LCD_PrCString
 0B12                   .dbline 705
 0B12           ; }
 0B12 5700              mov X,0
 0B14 5001              mov A,1
 0B16 7C0000            xcall _LCD_Position
 0B19 20                pop X
 0B1A                   .dbline 706
 0B1A           ; }
 0B1A 3D0101            cmp [X+1],1
 0B1D B00F              jnz L388
 0B1F                   .dbline 706
 0B1F 10                push X
 0B20 507B              mov A,>L342
 0B22 08                push A
 0B23 507B              mov A,<L342
 0B25 5C                mov X,A
 0B26 18                pop A
 0B27 7C0000            xcall _LCD_PrCString
 0B2A 20                pop X
 0B2B 8038              xjmp L389
 0B2D           L388:
 0B2D                   .dbline 707
 0B2D           ; }
 0B2D 3D0102            cmp [X+1],2
 0B30 B00F              jnz L390
 0B32                   .dbline 707
 0B32 10                push X
 0B33 506F              mov A,>L345
 0B35 08                push A
 0B36 506F              mov A,<L345
 0B38 5C                mov X,A
 0B39 18                pop A
 0B3A 7C0000            xcall _LCD_PrCString
 0B3D 20                pop X
 0B3E 8025              xjmp L391
 0B40           L390:
 0B40                   .dbline 708
 0B40           ; }
 0B40 3D0103            cmp [X+1],3
 0B43 B00F              jnz L392
 0B45                   .dbline 708
 0B45 10                push X
 0B46 5060              mov A,>L348
 0B48 08                push A
 0B49 5060              mov A,<L348
 0B4B 5C                mov X,A
 0B4C 18                pop A
 0B4D 7C0000            xcall _LCD_PrCString
 0B50 20                pop X
 0B51 8012              xjmp L393
 0B53           L392:
 0B53                   .dbline 709
 0B53           ; }
 0B53 3D0104            cmp [X+1],4
 0B56 B00D              jnz L394
 0B58                   .dbline 709
 0B58 10                push X
 0B59 5055              mov A,>L351
 0B5B 08                push A
 0B5C 5055              mov A,<L351
 0B5E 5C                mov X,A
 0B5F 18                pop A
 0B60 7C0000            xcall _LCD_PrCString
 0B63 20                pop X
 0B64           L394:
 0B64           L393:
 0B64           L391:
 0B64           L389:
 0B64                   .dbline 710
 0B64           ; }
 0B64 7C0000            xcall _bucle_temp
 0B67                   .dbline 711
 0B67           ; }
 0B67 7C009C            xcall _Pulsador
 0B6A 5400              mov [X+0],A
 0B6C                   .dbline 712
 0B6C           ; }
 0B6C 62D000            mov REG[0xd0],>_Buzzer
 0B6F 3C0001            cmp [_Buzzer],1
 0B72 B004              jnz L396
 0B74                   .dbline 712
 0B74 7C0034            xcall _Pitido
 0B77           L396:
 0B77                   .dbline 713
 0B77           ; }
 0B77 3D0001            cmp [X+0],1
 0B7A B019              jnz L398
 0B7C                   .dbline 714
 0B7C           ; }
 0B7C                   .dbline 715
 0B7C           ; }
 0B7C 62D000            mov REG[0xd0],>__r0
 0B7F 5201              mov A,[X+1]
 0B81 0101              add A,1
 0B83 5300              mov [__r0],A
 0B85 5004              mov A,4
 0B87 3A00              cmp A,[__r0]
 0B89 D006              jnc L400
 0B8B           X14:
 0B8B                   .dbline 715
 0B8B 560101            mov [X+1],1
 0B8E 806A              xjmp L399
 0B90           L400:
 0B90                   .dbline 716
 0B90           ; }
 0B90 7701              inc [X+1]
 0B92                   .dbline 717
 0B92           ; }
 0B92 8066              xjmp L399
 0B94           L398:
 0B94                   .dbline 718
 0B94           ; }
 0B94 3D0003            cmp [X+0],3
 0B97 B04A              jnz L402
 0B99                   .dbline 719
 0B99           ; }
 0B99                   .dbline 720
 0B99           ; }
 0B99 3D0101            cmp [X+1],1
 0B9C A006              jz L406
 0B9E 3D0102            cmp [X+1],2
 0BA1 B021              jnz L404
 0BA3           L406:
 0BA3                   .dbline 721
 0BA3           ; }
 0BA3                   .dbline 722
 0BA3           ; }
 0BA3 3DFC01            cmp [X-4],1
 0BA6 B00C              jnz L407
 0BA8                   .dbline 722
 0BA8 5201              mov A,[X+1]
 0BAA 1101              sub A,1
 0BAC 62D000            mov REG[0xd0],>_Cam1
 0BAF 5300              mov [_Cam1],A
 0BB1 802B              xjmp L405
 0BB3           L407:
 0BB3                   .dbline 723
 0BB3           ; }
 0BB3 3DFC02            cmp [X-4],2
 0BB6 B026              jnz L405
 0BB8                   .dbline 723
 0BB8 5201              mov A,[X+1]
 0BBA 1101              sub A,1
 0BBC 62D000            mov REG[0xd0],>_Cam2
 0BBF 5300              mov [_Cam2],A
 0BC1                   .dbline 724
 0BC1           ; }
 0BC1 801B              xjmp L405
 0BC3           L404:
 0BC3                   .dbline 725
 0BC3           ; }
 0BC3 3D0103            cmp [X+1],3
 0BC6 B00A              jnz L411
 0BC8                   .dbline 725
 0BC8 52FC              mov A,[X-4]
 0BCA 08                push A
 0BCB 9035              xcall _Intervalometro
 0BCD 38FF              add SP,-1
 0BCF 800D              xjmp L412
 0BD1           L411:
 0BD1                   .dbline 726
 0BD1           ; }
 0BD1 3D0104            cmp [X+1],4
 0BD4 B008              jnz L413
 0BD6                   .dbline 726
 0BD6 52FC              mov A,[X-4]
 0BD8 08                push A
 0BD9 9127              xcall _TimeLapse
 0BDB 38FF              add SP,-1
 0BDD           L413:
 0BDD           L412:
 0BDD           L405:
 0BDD                   .dbline 727
 0BDD           ; }
 0BDD 560004            mov [X+0],4
 0BE0                   .dbline 728
 0BE0           ; }
 0BE0 8018              xjmp L403
 0BE2           L402:
 0BE2                   .dbline 729
 0BE2           ; }
 0BE2 3D0002            cmp [X+0],2
 0BE5 B013              jnz L415
 0BE7                   .dbline 730
 0BE7           ; }
 0BE7                   .dbline 731
 0BE7           ; }
 0BE7 62D000            mov REG[0xd0],>__r0
 0BEA 5201              mov A,[X+1]
 0BEC 1101              sub A,1
 0BEE 3901              cmp A,1
 0BF0 D006              jnc L417
 0BF2           X15:
 0BF2                   .dbline 731
 0BF2 560104            mov [X+1],4
 0BF5 8003              xjmp L418
 0BF7           L417:
 0BF7                   .dbline 732
 0BF7           ; }
 0BF7 7B01              dec [X+1]
 0BF9           L418:
 0BF9                   .dbline 733
 0BF9           ; }
 0BF9           L415:
 0BF9           L403:
 0BF9           L399:
 0BF9                   .dbline 734
 0BF9           L385:
 0BF9                   .dbline 734
 0BF9           ; }
 0BF9 3D0004            cmp [X+0],4
 0BFC BF05              jnz L384
 0BFE                   .dbline -2
 0BFE                   .dbline 735
 0BFE           ; }
 0BFE           L379:
 0BFE 38FC              add SP,-4
 0C00 20                pop X
 0C01                   .dbline 0 ; func end
 0C01 7F                ret
 0C02                   .dbsym l x 2 i
 0C02                   .dbsym l menu 1 c
 0C02                   .dbsym l pulsat 0 c
 0C02                   .dbsym l camara -4 c
 0C02                   .dbend
 0C02                   .dbfunc e Intervalometro _Intervalometro fV
 0C02           ;              x -> X+2
 0C02           ;           menu -> X+1
 0C02           ;         pulsat -> X+0
 0C02           ;         camara -> X-4
 0C02           _Intervalometro::
 0C02                   .dbline -1
 0C02 10                push X
 0C03 4F                mov X,SP
 0C04 3804              add SP,4
 0C06                   .dbline 743
 0C06           ; }
 0C06           ; }
 0C06           ; }
 0C06           ; }
 0C06           ; }
 0C06           ; }
 0C06           ; }
 0C06           ; }
 0C06                   .dbline 744
 0C06           ; }
 0C06 560101            mov [X+1],1
 0C09                   .dbline 747
 0C09           ; }
 0C09           ; }
 0C09           ; }
 0C09 3DFC01            cmp [X-4],1
 0C0C B009              jnz L420
 0C0E                   .dbline 747
 0C0E 62D000            mov REG[0xd0],>_Cam1
 0C11 550002            mov [_Cam1],2
 0C14 800C              xjmp L421
 0C16           L420:
 0C16                   .dbline 748
 0C16           ; }
 0C16 3DFC02            cmp [X-4],2
 0C19 B007              jnz L422
 0C1B                   .dbline 748
 0C1B 62D000            mov REG[0xd0],>_Cam2
 0C1E 550002            mov [_Cam2],2
 0C21           L422:
 0C21           L421:
 0C21           L424:
 0C21                   .dbline 750
 0C21           ; }
 0C21           ; }
 0C21                   .dbline 751
 0C21           ; }
 0C21 10                push X
 0C22 5001              mov A,1
 0C24 7C0000            xcall _LCD_Control
 0C27                   .dbline 752
 0C27           ; }
 0C27 502C              mov A,>L427
 0C29 08                push A
 0C2A 502C              mov A,<L427
 0C2C 5C                mov X,A
 0C2D 18                pop A
 0C2E 7C0000            xcall _LCD_PrCString
 0C31                   .dbline 753
 0C31           ; }
 0C31 5700              mov X,0
 0C33 5001              mov A,1
 0C35 7C0000            xcall _LCD_Position
 0C38 20                pop X
 0C39                   .dbline 754
 0C39           ; }
 0C39 3D0101            cmp [X+1],1
 0C3C B00F              jnz L428
 0C3E                   .dbline 754
 0C3E 10                push X
 0C3F 501F              mov A,>L430
 0C41 08                push A
 0C42 501F              mov A,<L430
 0C44 5C                mov X,A
 0C45 18                pop A
 0C46 7C0000            xcall _LCD_PrCString
 0C49 20                pop X
 0C4A 8012              xjmp L429
 0C4C           L428:
 0C4C                   .dbline 755
 0C4C           ; }
 0C4C 3D0102            cmp [X+1],2
 0C4F B00D              jnz L431
 0C51                   .dbline 755
 0C51 10                push X
 0C52 500F              mov A,>L433
 0C54 08                push A
 0C55 500F              mov A,<L433
 0C57 5C                mov X,A
 0C58 18                pop A
 0C59 7C0000            xcall _LCD_PrCString
 0C5C 20                pop X
 0C5D           L431:
 0C5D           L429:
 0C5D                   .dbline 756
 0C5D           ; }
 0C5D 7C0000            xcall _bucle_temp
 0C60                   .dbline 757
 0C60           ; }
 0C60 7C009C            xcall _Pulsador
 0C63 5400              mov [X+0],A
 0C65                   .dbline 758
 0C65           ; }
 0C65 62D000            mov REG[0xd0],>_Buzzer
 0C68 3C0001            cmp [_Buzzer],1
 0C6B B004              jnz L434
 0C6D                   .dbline 758
 0C6D 7C0034            xcall _Pitido
 0C70           L434:
 0C70                   .dbline 759
 0C70           ; }
 0C70 3D0001            cmp [X+0],1
 0C73 B019              jnz L436
 0C75                   .dbline 760
 0C75           ; }
 0C75                   .dbline 761
 0C75           ; }
 0C75 62D000            mov REG[0xd0],>__r0
 0C78 5201              mov A,[X+1]
 0C7A 0101              add A,1
 0C7C 5300              mov [__r0],A
 0C7E 5002              mov A,2
 0C80 3A00              cmp A,[__r0]
 0C82 D006              jnc L438
 0C84           X16:
 0C84                   .dbline 761
 0C84 560101            mov [X+1],1
 0C87 8071              xjmp L437
 0C89           L438:
 0C89                   .dbline 762
 0C89           ; }
 0C89 7701              inc [X+1]
 0C8B                   .dbline 763
 0C8B           ; }
 0C8B 806D              xjmp L437
 0C8D           L436:
 0C8D                   .dbline 764
 0C8D           ; }
 0C8D 3D0003            cmp [X+0],3
 0C90 B051              jnz L440
 0C92                   .dbline 765
 0C92           ; }
 0C92                   .dbline 766
 0C92           ; }
 0C92 3D0101            cmp [X+1],1
 0C95 B02B              jnz L442
 0C97                   .dbline 767
 0C97           ; }
 0C97                   .dbline 768
 0C97           ; }
 0C97 3DFC01            cmp [X-4],1
 0C9A B011              jnz L444
 0C9C                   .dbline 769
 0C9C           ; }
 0C9C                   .dbline 770
 0C9C           ; }
 0C9C 9172              xcall _Numeros
 0C9E 62D000            mov REG[0xd0],>_Int1_Tdisp
 0CA1 5300              mov [_Int1_Tdisp],A
 0CA3                   .dbline 771
 0CA3           ; }
 0CA3 923A              xcall _Tiempos
 0CA5 62D000            mov REG[0xd0],>_Int1_Tdisp_Uni
 0CA8 5300              mov [_Int1_Tdisp_Uni],A
 0CAA                   .dbline 772
 0CAA           ; }
 0CAA 804E              xjmp L441
 0CAC           L444:
 0CAC                   .dbline 773
 0CAC           ; }
 0CAC 3DFC02            cmp [X-4],2
 0CAF B049              jnz L441
 0CB1                   .dbline 774
 0CB1           ; }
 0CB1                   .dbline 775
 0CB1           ; }
 0CB1 915D              xcall _Numeros
 0CB3 62D000            mov REG[0xd0],>_Int2_Tdisp
 0CB6 5300              mov [_Int2_Tdisp],A
 0CB8                   .dbline 776
 0CB8           ; }
 0CB8 9225              xcall _Tiempos
 0CBA 62D000            mov REG[0xd0],>_Int2_Tdisp_Uni
 0CBD 5300              mov [_Int2_Tdisp_Uni],A
 0CBF                   .dbline 777
 0CBF           ; }
 0CBF                   .dbline 778
 0CBF           ; }
 0CBF 8039              xjmp L441
 0CC1           L442:
 0CC1                   .dbline 779
 0CC1           ; }
 0CC1 3D0102            cmp [X+1],2
 0CC4 B034              jnz L441
 0CC6                   .dbline 780
 0CC6           ; }
 0CC6                   .dbline 781
 0CC6           ; }
 0CC6 3DFC01            cmp [X-4],1
 0CC9 B00A              jnz L450
 0CCB                   .dbline 781
 0CCB 9143              xcall _Numeros
 0CCD 62D000            mov REG[0xd0],>_Int1_Ndisp
 0CD0 5300              mov [_Int1_Ndisp],A
 0CD2 8026              xjmp L441
 0CD4           L450:
 0CD4                   .dbline 782
 0CD4           ; }
 0CD4 3DFC02            cmp [X-4],2
 0CD7 B021              jnz L441
 0CD9                   .dbline 782
 0CD9 9135              xcall _Numeros
 0CDB 62D000            mov REG[0xd0],>_Int2_Ndisp
 0CDE 5300              mov [_Int2_Ndisp],A
 0CE0                   .dbline 783
 0CE0           ; }
 0CE0                   .dbline 784
 0CE0           ; }
 0CE0 8018              xjmp L441
 0CE2           L440:
 0CE2                   .dbline 785
 0CE2           ; }
 0CE2 3D0002            cmp [X+0],2
 0CE5 B013              jnz L454
 0CE7                   .dbline 786
 0CE7           ; }
 0CE7                   .dbline 787
 0CE7           ; }
 0CE7 62D000            mov REG[0xd0],>__r0
 0CEA 5201              mov A,[X+1]
 0CEC 1101              sub A,1
 0CEE 3901              cmp A,1
 0CF0 D006              jnc L456
 0CF2           X17:
 0CF2                   .dbline 787
 0CF2 560102            mov [X+1],2
 0CF5 8003              xjmp L457
 0CF7           L456:
 0CF7                   .dbline 788
 0CF7           ; }
 0CF7 7B01              dec [X+1]
 0CF9           L457:
 0CF9                   .dbline 789
 0CF9           ; }
 0CF9           L454:
 0CF9           L441:
 0CF9           L437:
 0CF9                   .dbline 790
 0CF9           L425:
 0CF9                   .dbline 790
 0CF9           ; }
 0CF9 3D0004            cmp [X+0],4
 0CFC BF24              jnz L424
 0CFE                   .dbline -2
 0CFE                   .dbline 792
 0CFE           ; }
 0CFE           ; }
 0CFE           L419:
 0CFE 38FC              add SP,-4
 0D00 20                pop X
 0D01                   .dbline 0 ; func end
 0D01 7F                ret
 0D02                   .dbsym l x 2 i
 0D02                   .dbsym l menu 1 c
 0D02                   .dbsym l pulsat 0 c
 0D02                   .dbsym l camara -4 c
 0D02                   .dbend
 0D02                   .dbfunc e TimeLapse _TimeLapse fV
 0D02           ;              x -> X+2
 0D02           ;           menu -> X+1
 0D02           ;         pulsat -> X+0
 0D02           ;         camara -> X-4
 0D02           _TimeLapse::
 0D02                   .dbline -1
 0D02 10                push X
 0D03 4F                mov X,SP
 0D04 3804              add SP,4
 0D06                   .dbline 800
 0D06           ; }
 0D06           ; }
 0D06           ; }
 0D06           ; }
 0D06           ; }
 0D06           ; }
 0D06           ; }
 0D06           ; }
 0D06                   .dbline 801
 0D06           ; }
 0D06 560101            mov [X+1],1
 0D09                   .dbline 804
 0D09           ; }
 0D09           ; }
 0D09           ; }
 0D09 3DFC01            cmp [X-4],1
 0D0C B009              jnz L459
 0D0E                   .dbline 804
 0D0E 62D000            mov REG[0xd0],>_Cam1
 0D11 550003            mov [_Cam1],3
 0D14 800C              xjmp L460
 0D16           L459:
 0D16                   .dbline 805
 0D16           ; }
 0D16 3DFC02            cmp [X-4],2
 0D19 B007              jnz L461
 0D1B                   .dbline 805
 0D1B 62D000            mov REG[0xd0],>_Cam2
 0D1E 550003            mov [_Cam2],3
 0D21           L461:
 0D21           L460:
 0D21           L463:
 0D21                   .dbline 807
 0D21           ; }
 0D21           ; }
 0D21                   .dbline 808
 0D21           ; }
 0D21 10                push X
 0D22 5001              mov A,1
 0D24 7C0000            xcall _LCD_Control
 0D27                   .dbline 809
 0D27           ; }
 0D27 5003              mov A,>L466
 0D29 08                push A
 0D2A 5003              mov A,<L466
 0D2C 5C                mov X,A
 0D2D 18                pop A
 0D2E 7C0000            xcall _LCD_PrCString
 0D31                   .dbline 810
 0D31           ; }
 0D31 5700              mov X,0
 0D33 5001              mov A,1
 0D35 7C0000            xcall _LCD_Position
 0D38 20                pop X
 0D39                   .dbline 811
 0D39           ; }
 0D39 3D0101            cmp [X+1],1
 0D3C B00F              jnz L467
 0D3E                   .dbline 811
 0D3E 10                push X
 0D3F 50F7              mov A,>L469
 0D41 08                push A
 0D42 50F7              mov A,<L469
 0D44 5C                mov X,A
 0D45 18                pop A
 0D46 7C0000            xcall _LCD_PrCString
 0D49 20                pop X
 0D4A 8012              xjmp L468
 0D4C           L467:
 0D4C                   .dbline 812
 0D4C           ; }
 0D4C 3D0102            cmp [X+1],2
 0D4F B00D              jnz L470
 0D51                   .dbline 812
 0D51 10                push X
 0D52 50EA              mov A,>L472
 0D54 08                push A
 0D55 50EA              mov A,<L472
 0D57 5C                mov X,A
 0D58 18                pop A
 0D59 7C0000            xcall _LCD_PrCString
 0D5C 20                pop X
 0D5D           L470:
 0D5D           L468:
 0D5D                   .dbline 813
 0D5D           ; }
 0D5D 7C0000            xcall _bucle_temp
 0D60                   .dbline 814
 0D60           ; }
 0D60 7C009C            xcall _Pulsador
 0D63 5400              mov [X+0],A
 0D65                   .dbline 815
 0D65           ; }
 0D65 62D000            mov REG[0xd0],>_Buzzer
 0D68 3C0001            cmp [_Buzzer],1
 0D6B B004              jnz L473
 0D6D                   .dbline 815
 0D6D 7C0034            xcall _Pitido
 0D70           L473:
 0D70                   .dbline 816
 0D70           ; }
 0D70 3D0001            cmp [X+0],1
 0D73 B019              jnz L475
 0D75                   .dbline 817
 0D75           ; }
 0D75                   .dbline 818
 0D75           ; }
 0D75 62D000            mov REG[0xd0],>__r0
 0D78 5201              mov A,[X+1]
 0D7A 0101              add A,1
 0D7C 5300              mov [__r0],A
 0D7E 5002              mov A,2
 0D80 3A00              cmp A,[__r0]
 0D82 D006              jnc L477
 0D84           X18:
 0D84                   .dbline 818
 0D84 560101            mov [X+1],1
 0D87 807F              xjmp L476
 0D89           L477:
 0D89                   .dbline 819
 0D89           ; }
 0D89 7701              inc [X+1]
 0D8B                   .dbline 820
 0D8B           ; }
 0D8B 807B              xjmp L476
 0D8D           L475:
 0D8D                   .dbline 821
 0D8D           ; }
 0D8D 3D0003            cmp [X+0],3
 0D90 B05F              jnz L479
 0D92                   .dbline 822
 0D92           ; }
 0D92                   .dbline 823
 0D92           ; }
 0D92 3D0101            cmp [X+1],1
 0D95 B02B              jnz L481
 0D97                   .dbline 824
 0D97           ; }
 0D97                   .dbline 825
 0D97           ; }
 0D97 3DFC01            cmp [X-4],1
 0D9A B011              jnz L483
 0D9C                   .dbline 826
 0D9C           ; }
 0D9C                   .dbline 827
 0D9C           ; }
 0D9C 9072              xcall _Numeros
 0D9E 62D000            mov REG[0xd0],>_TL1_Treal
 0DA1 5300              mov [_TL1_Treal],A
 0DA3                   .dbline 828
 0DA3           ; }
 0DA3 913A              xcall _Tiempos
 0DA5 62D000            mov REG[0xd0],>_TL1_Treal_Uni
 0DA8 5300              mov [_TL1_Treal_Uni],A
 0DAA                   .dbline 829
 0DAA           ; }
 0DAA 805C              xjmp L480
 0DAC           L483:
 0DAC                   .dbline 830
 0DAC           ; }
 0DAC 3DFC02            cmp [X-4],2
 0DAF B057              jnz L480
 0DB1                   .dbline 831
 0DB1           ; }
 0DB1                   .dbline 832
 0DB1           ; }
 0DB1 905D              xcall _Numeros
 0DB3 62D000            mov REG[0xd0],>_TL2_Treal
 0DB6 5300              mov [_TL2_Treal],A
 0DB8                   .dbline 833
 0DB8           ; }
 0DB8 9125              xcall _Tiempos
 0DBA 62D000            mov REG[0xd0],>_TL2_Treal_Uni
 0DBD 5300              mov [_TL2_Treal_Uni],A
 0DBF                   .dbline 834
 0DBF           ; }
 0DBF                   .dbline 835
 0DBF           ; }
 0DBF 8047              xjmp L480
 0DC1           L481:
 0DC1                   .dbline 836
 0DC1           ; }
 0DC1 3D0102            cmp [X+1],2
 0DC4 B042              jnz L480
 0DC6                   .dbline 837
 0DC6           ; }
 0DC6                   .dbline 838
 0DC6           ; }
 0DC6 3DFC01            cmp [X-4],1
 0DC9 B011              jnz L489
 0DCB                   .dbline 839
 0DCB           ; }
 0DCB                   .dbline 840
 0DCB           ; }
 0DCB 9043              xcall _Numeros
 0DCD 62D000            mov REG[0xd0],>_TL1_Tfilm
 0DD0 5300              mov [_TL1_Tfilm],A
 0DD2                   .dbline 841
 0DD2           ; }
 0DD2 910B              xcall _Tiempos
 0DD4 62D000            mov REG[0xd0],>_TL1_Tfilm_Uni
 0DD7 5300              mov [_TL1_Tfilm_Uni],A
 0DD9                   .dbline 842
 0DD9           ; }
 0DD9 802D              xjmp L480
 0DDB           L489:
 0DDB                   .dbline 843
 0DDB           ; }
 0DDB 3DFC02            cmp [X-4],2
 0DDE B028              jnz L480
 0DE0                   .dbline 844
 0DE0           ; }
 0DE0                   .dbline 845
 0DE0           ; }
 0DE0 902E              xcall _Numeros
 0DE2 62D000            mov REG[0xd0],>_TL2_Tfilm
 0DE5 5300              mov [_TL2_Tfilm],A
 0DE7                   .dbline 846
 0DE7           ; }
 0DE7 90F6              xcall _Tiempos
 0DE9 62D000            mov REG[0xd0],>_TL2_Tfilm_Uni
 0DEC 5300              mov [_TL2_Tfilm_Uni],A
 0DEE                   .dbline 847
 0DEE           ; }
 0DEE                   .dbline 848
 0DEE           ; }
 0DEE                   .dbline 849
 0DEE           ; }
 0DEE 8018              xjmp L480
 0DF0           L479:
 0DF0                   .dbline 850
 0DF0           ; }
 0DF0 3D0002            cmp [X+0],2
 0DF3 B013              jnz L493
 0DF5                   .dbline 851
 0DF5           ; }
 0DF5                   .dbline 852
 0DF5           ; }
 0DF5 62D000            mov REG[0xd0],>__r0
 0DF8 5201              mov A,[X+1]
 0DFA 1101              sub A,1
 0DFC 3901              cmp A,1
 0DFE D006              jnc L495
 0E00           X19:
 0E00                   .dbline 852
 0E00 560102            mov [X+1],2
 0E03 8003              xjmp L496
 0E05           L495:
 0E05                   .dbline 853
 0E05           ; }
 0E05 7B01              dec [X+1]
 0E07           L496:
 0E07                   .dbline 854
 0E07           ; }
 0E07           L493:
 0E07           L480:
 0E07           L476:
 0E07                   .dbline 855
 0E07           L464:
 0E07                   .dbline 855
 0E07           ; }
 0E07 3D0004            cmp [X+0],4
 0E0A BF16              jnz L463
 0E0C                   .dbline -2
 0E0C                   .dbline 857
 0E0C           ; }
 0E0C           ; }
 0E0C           L458:
 0E0C 38FC              add SP,-4
 0E0E 20                pop X
 0E0F                   .dbline 0 ; func end
 0E0F 7F                ret
 0E10                   .dbsym l x 2 i
 0E10                   .dbsym l menu 1 c
 0E10                   .dbsym l pulsat 0 c
 0E10                   .dbsym l camara -4 c
 0E10                   .dbend
 0E10                   .dbfunc e Numeros _Numeros fc
 0E10           ;           menu -> X+6
 0E10           ;         pulsat -> X+5
 0E10           ;        mostrar -> X+4
 0E10           ;              x -> X+2
 0E10           ;       recortar -> X+1
 0E10           ;          zeros -> X+0
 0E10           _Numeros::
 0E10                   .dbline -1
 0E10 10                push X
 0E11 4F                mov X,SP
 0E12 3807              add SP,7
 0E14                   .dbline 865
 0E14           ; }
 0E14           ; }
 0E14           ; }
 0E14           ; }
 0E14           ; }
 0E14           ; }
 0E14           ; }
 0E14           ; }
 0E14                   .dbline 866
 0E14           ; }
 0E14 560601            mov [X+6],1
 0E17           L498:
 0E17                   .dbline 870
 0E17           ; }
 0E17           ; }
 0E17           ; }
 0E17           ; }
 0E17                   .dbline 871
 0E17           ; }
 0E17 10                push X
 0E18 5001              mov A,1
 0E1A 7C0000            xcall _LCD_Control
 0E1D                   .dbline 872
 0E1D           ; }
 0E1D 50DC              mov A,>L501
 0E1F 08                push A
 0E20 50DC              mov A,<L501
 0E22 5C                mov X,A
 0E23 18                pop A
 0E24 7C0000            xcall _LCD_PrCString
 0E27                   .dbline 873
 0E27           ; }
 0E27 5700              mov X,0
 0E29 5001              mov A,1
 0E2B 7C0000            xcall _LCD_Position
 0E2E 20                pop X
 0E2F                   .dbline 874
 0E2F           ; }
 0E2F 560300            mov [X+3],0
 0E32 560200            mov [X+2],0
 0E35 560064            mov [X+0],100
 0E38 5206              mov A,[X+6]
 0E3A 5401              mov [X+1],A
 0E3C 803C              xjmp L505
 0E3E           L502:
 0E3E                   .dbline 875
 0E3E                   .dbline 876
 0E3E 5200              mov A,[X+0]
 0E40 08                push A
 0E41 5201              mov A,[X+1]
 0E43 08                push A
 0E44 62D000            mov REG[0xd0],>__r0
 0E47 7C0000            xcall __divmodu_8X8_8
 0E4A 18                pop A
 0E4B 5404              mov [X+4],A
 0E4D 38FF              add SP,-1
 0E4F                   .dbline 877
 0E4F 5200              mov A,[X+0]
 0E51 08                push A
 0E52 5201              mov A,[X+1]
 0E54 08                push A
 0E55 7C0000            xcall __divmodu_8X8_8
 0E58 38FF              add SP,-1
 0E5A 18                pop A
 0E5B 5401              mov [X+1],A
 0E5D                   .dbline 878
 0E5D 500A              mov A,10
 0E5F 08                push A
 0E60 5200              mov A,[X+0]
 0E62 08                push A
 0E63 7C0000            xcall __divmodu_8X8_8
 0E66 18                pop A
 0E67 5400              mov [X+0],A
 0E69 38FF              add SP,-1
 0E6B                   .dbline 879
 0E6B 5204              mov A,[X+4]
 0E6D 0130              add A,48
 0E6F 10                push X
 0E70 7C0000            xcall _LCD_WriteData
 0E73 20                pop X
 0E74                   .dbline 880
 0E74           L503:
 0E74                   .dbline 874
 0E74 7703              inc [X+3]
 0E76 0F0200            adc [X+2],0
 0E79           L505:
 0E79                   .dbline 874
 0E79 5203              mov A,[X+3]
 0E7B 1103              sub A,3
 0E7D 5202              mov A,[X+2]
 0E7F 1900              sbb A,0
 0E81 CFBC              jc L502
 0E83           X20:
 0E83                   .dbline 881
 0E83           ; }
 0E83           ; }
 0E83           ; }
 0E83           ; }
 0E83           ; }
 0E83           ; }
 0E83           ; }
 0E83 7C0000            xcall _bucle_temp
 0E86                   .dbline 882
 0E86           ; }
 0E86 7C009C            xcall _Pulsador
 0E89 5405              mov [X+5],A
 0E8B                   .dbline 883
 0E8B           ; }
 0E8B 62D000            mov REG[0xd0],>_Buzzer
 0E8E 3C0001            cmp [_Buzzer],1
 0E91 B004              jnz L506
 0E93                   .dbline 883
 0E93 7C0034            xcall _Pitido
 0E96           L506:
 0E96                   .dbline 884
 0E96           ; }
 0E96 3D0501            cmp [X+5],1
 0E99 B019              jnz L508
 0E9B                   .dbline 885
 0E9B           ; }
 0E9B                   .dbline 886
 0E9B           ; }
 0E9B 62D000            mov REG[0xd0],>__r0
 0E9E 5206              mov A,[X+6]
 0EA0 0101              add A,1
 0EA2 5300              mov [__r0],A
 0EA4 5064              mov A,100
 0EA6 3A00              cmp A,[__r0]
 0EA8 D006              jnc L510
 0EAA           X21:
 0EAA                   .dbline 886
 0EAA 560601            mov [X+6],1
 0EAD 8028              xjmp L509
 0EAF           L510:
 0EAF                   .dbline 887
 0EAF           ; }
 0EAF 7706              inc [X+6]
 0EB1                   .dbline 888
 0EB1           ; }
 0EB1 8024              xjmp L509
 0EB3           L508:
 0EB3                   .dbline 889
 0EB3           ; }
 0EB3 3D0503            cmp [X+5],3
 0EB6 B008              jnz L512
 0EB8                   .dbline 890
 0EB8           ; }
 0EB8                   .dbline 891
 0EB8           ; }
 0EB8 5206              mov A,[X+6]
 0EBA 62D000            mov REG[0xd0],>__r0
 0EBD 801D              xjmp L497
 0EBF           L512:
 0EBF                   .dbline 893
 0EBF           ; }
 0EBF           ; }
 0EBF 3D0502            cmp [X+5],2
 0EC2 B013              jnz L514
 0EC4                   .dbline 894
 0EC4           ; }
 0EC4                   .dbline 895
 0EC4           ; }
 0EC4 62D000            mov REG[0xd0],>__r0
 0EC7 5206              mov A,[X+6]
 0EC9 1101              sub A,1
 0ECB 3901              cmp A,1
 0ECD D006              jnc L516
 0ECF           X22:
 0ECF                   .dbline 895
 0ECF 560664            mov [X+6],100
 0ED2 8003              xjmp L517
 0ED4           L516:
 0ED4                   .dbline 896
 0ED4           ; }
 0ED4 7B06              dec [X+6]
 0ED6           L517:
 0ED6                   .dbline 897
 0ED6           ; }
 0ED6           L514:
 0ED6           L509:
 0ED6                   .dbline 898
 0ED6           L499:
 0ED6                   .dbline 898
 0ED6           ; }
 0ED6 3D0505            cmp [X+5],5
 0ED9 BF3D              jnz L498
 0EDB                   .dbline -2
 0EDB                   .dbline 899
 0EDB           ; }
 0EDB           L497:
 0EDB 38F9              add SP,-7
 0EDD 20                pop X
 0EDE                   .dbline 0 ; func end
 0EDE 7F                ret
 0EDF                   .dbsym l menu 6 c
 0EDF                   .dbsym l pulsat 5 c
 0EDF                   .dbsym l mostrar 4 c
 0EDF                   .dbsym l x 2 i
 0EDF                   .dbsym l recortar 1 c
 0EDF                   .dbsym l zeros 0 c
 0EDF                   .dbend
 0EDF                   .dbfunc e Tiempos _Tiempos fc
 0EDF           ;              x -> X+2
 0EDF           ;           menu -> X+1
 0EDF           ;         pulsat -> X+0
 0EDF           _Tiempos::
 0EDF                   .dbline -1
 0EDF 10                push X
 0EE0 4F                mov X,SP
 0EE1 3804              add SP,4
 0EE3                   .dbline 907
 0EE3           ; }
 0EE3           ; }
 0EE3           ; }
 0EE3           ; }
 0EE3           ; }
 0EE3           ; }
 0EE3           ; }
 0EE3           ; }
 0EE3                   .dbline 908
 0EE3           ; }
 0EE3 560101            mov [X+1],1
 0EE6           L519:
 0EE6                   .dbline 912
 0EE6           ; }
 0EE6           ; }
 0EE6           ; }
 0EE6           ; }
 0EE6                   .dbline 913
 0EE6           ; }
 0EE6 10                push X
 0EE7 5001              mov A,1
 0EE9 7C0000            xcall _LCD_Control
 0EEC                   .dbline 914
 0EEC           ; }
 0EEC 50CC              mov A,>L522
 0EEE 08                push A
 0EEF 50CC              mov A,<L522
 0EF1 5C                mov X,A
 0EF2 18                pop A
 0EF3 7C0000            xcall _LCD_PrCString
 0EF6                   .dbline 915
 0EF6           ; }
 0EF6 5700              mov X,0
 0EF8 5001              mov A,1
 0EFA 7C0000            xcall _LCD_Position
 0EFD 20                pop X
 0EFE                   .dbline 916
 0EFE           ; }
 0EFE 3D0101            cmp [X+1],1
 0F01 B00F              jnz L523
 0F03                   .dbline 916
 0F03 10                push X
 0F04 50C3              mov A,>L525
 0F06 08                push A
 0F07 50C3              mov A,<L525
 0F09 5C                mov X,A
 0F0A 18                pop A
 0F0B 7C0000            xcall _LCD_PrCString
 0F0E 20                pop X
 0F0F 8025              xjmp L524
 0F11           L523:
 0F11                   .dbline 917
 0F11           ; }
 0F11 3D0102            cmp [X+1],2
 0F14 B00F              jnz L526
 0F16                   .dbline 917
 0F16 10                push X
 0F17 50BB              mov A,>L528
 0F19 08                push A
 0F1A 50BB              mov A,<L528
 0F1C 5C                mov X,A
 0F1D 18                pop A
 0F1E 7C0000            xcall _LCD_PrCString
 0F21 20                pop X
 0F22 8012              xjmp L527
 0F24           L526:
 0F24                   .dbline 918
 0F24           ; }
 0F24 3D0103            cmp [X+1],3
 0F27 B00D              jnz L529
 0F29                   .dbline 918
 0F29 10                push X
 0F2A 50B5              mov A,>L531
 0F2C 08                push A
 0F2D 50B5              mov A,<L531
 0F2F 5C                mov X,A
 0F30 18                pop A
 0F31 7C0000            xcall _LCD_PrCString
 0F34 20                pop X
 0F35           L529:
 0F35           L527:
 0F35           L524:
 0F35                   .dbline 919
 0F35           ; }
 0F35 7C0000            xcall _bucle_temp
 0F38                   .dbline 920
 0F38           ; }
 0F38 7C009C            xcall _Pulsador
 0F3B 5400              mov [X+0],A
 0F3D                   .dbline 921
 0F3D           ; }
 0F3D 62D000            mov REG[0xd0],>_Buzzer
 0F40 3C0001            cmp [_Buzzer],1
 0F43 B004              jnz L532
 0F45                   .dbline 921
 0F45 7C0034            xcall _Pitido
 0F48           L532:
 0F48                   .dbline 922
 0F48           ; }
 0F48 3D0001            cmp [X+0],1
 0F4B B019              jnz L534
 0F4D                   .dbline 923
 0F4D           ; }
 0F4D                   .dbline 924
 0F4D           ; }
 0F4D 62D000            mov REG[0xd0],>__r0
 0F50 5201              mov A,[X+1]
 0F52 0101              add A,1
 0F54 5300              mov [__r0],A
 0F56 5003              mov A,3
 0F58 3A00              cmp A,[__r0]
 0F5A D006              jnc L536
 0F5C           X23:
 0F5C                   .dbline 924
 0F5C 560101            mov [X+1],1
 0F5F 8028              xjmp L535
 0F61           L536:
 0F61                   .dbline 925
 0F61           ; }
 0F61 7701              inc [X+1]
 0F63                   .dbline 926
 0F63           ; }
 0F63 8024              xjmp L535
 0F65           L534:
 0F65                   .dbline 927
 0F65           ; }
 0F65 3D0003            cmp [X+0],3
 0F68 B008              jnz L538
 0F6A                   .dbline 928
 0F6A           ; }
 0F6A                   .dbline 929
 0F6A           ; }
 0F6A 5201              mov A,[X+1]
 0F6C 62D000            mov REG[0xd0],>__r0
 0F6F 801D              xjmp L518
 0F71           L538:
 0F71                   .dbline 931
 0F71           ; }
 0F71           ; }
 0F71 3D0002            cmp [X+0],2
 0F74 B013              jnz L540
 0F76                   .dbline 932
 0F76           ; }
 0F76                   .dbline 933
 0F76           ; }
 0F76 62D000            mov REG[0xd0],>__r0
 0F79 5201              mov A,[X+1]
 0F7B 1101              sub A,1
 0F7D 3901              cmp A,1
 0F7F D006              jnc L542
 0F81           X24:
 0F81                   .dbline 933
 0F81 560103            mov [X+1],3
 0F84 8003              xjmp L543
 0F86           L542:
 0F86                   .dbline 934
 0F86           ; }
 0F86 7B01              dec [X+1]
 0F88           L543:
 0F88                   .dbline 935
 0F88           ; }
 0F88           L540:
 0F88           L535:
 0F88                   .dbline 936
 0F88           L520:
 0F88                   .dbline 936
 0F88           ; }
 0F88 3D0005            cmp [X+0],5
 0F8B BF5A              jnz L519
 0F8D                   .dbline -2
 0F8D                   .dbline 937
 0F8D           ; }
 0F8D           L518:
 0F8D 38FC              add SP,-4
 0F8F 20                pop X
 0F90                   .dbline 0 ; func end
 0F90 7F                ret
 0F91                   .dbsym l x 2 i
 0F91                   .dbsym l menu 1 c
 0F91                   .dbsym l pulsat 0 c
 0F91                   .dbend
 0F91                   .dbfunc e Executar _Executar fV
 0F91           ;              x -> X+2
 0F91           ;           menu -> X+1
 0F91           ;         pulsat -> X+0
 0F91           _Executar::
 0F91                   .dbline -1
 0F91 10                push X
 0F92 4F                mov X,SP
 0F93 3804              add SP,4
 0F95                   .dbline 947
 0F95           ; }
 0F95           ; }
 0F95           ; }
 0F95           ; }
 0F95           ; }
 0F95           ; }
 0F95           ; }
 0F95           ; }
 0F95           ; }
 0F95           ; }
 0F95                   .dbline 948
 0F95           ; }
 0F95 560101            mov [X+1],1
 0F98           L545:
 0F98                   .dbline 952
 0F98           ; }
 0F98           ; }
 0F98           ; }
 0F98           ; }
 0F98                   .dbline 953
 0F98           ; }
 0F98 10                push X
 0F99 5001              mov A,1
 0F9B 7C0000            xcall _LCD_Control
 0F9E                   .dbline 954
 0F9E           ; }
 0F9E 50AB              mov A,>L548
 0FA0 08                push A
 0FA1 50AB              mov A,<L548
 0FA3 5C                mov X,A
 0FA4 18                pop A
 0FA5 7C0000            xcall _LCD_PrCString
 0FA8                   .dbline 955
 0FA8           ; }
 0FA8 5700              mov X,0
 0FAA 5001              mov A,1
 0FAC 7C0000            xcall _LCD_Position
 0FAF                   .dbline 956
 0FAF           ; }
 0FAF 50A3              mov A,>L549
 0FB1 08                push A
 0FB2 50A3              mov A,<L549
 0FB4 5C                mov X,A
 0FB5 18                pop A
 0FB6 7C0000            xcall _LCD_PrCString
 0FB9 20                pop X
 0FBA                   .dbline 957
 0FBA           ; }
 0FBA 7C0000            xcall _bucle_temp
 0FBD                   .dbline 958
 0FBD           ; }
 0FBD 7C009C            xcall _Pulsador
 0FC0 5400              mov [X+0],A
 0FC2                   .dbline 959
 0FC2           ; }
 0FC2 62D000            mov REG[0xd0],>_Buzzer
 0FC5 3C0001            cmp [_Buzzer],1
 0FC8 B006              jnz L550
 0FCA                   .dbline 959
 0FCA 7C0034            xcall _Pitido
 0FCD 800D              xjmp L551
 0FCF           L550:
 0FCF                   .dbline 960
 0FCF           ; }
 0FCF 3D0003            cmp [X+0],3
 0FD2 B008              jnz L552
 0FD4                   .dbline 961
 0FD4           ; }
 0FD4                   .dbline 962
 0FD4           ; }
 0FD4 3D0101            cmp [X+1],1
 0FD7 B003              jnz L554
 0FD9                   .dbline 962
 0FD9 9009              xcall _Ara
 0FDB           L554:
 0FDB                   .dbline 963
 0FDB           ; }
 0FDB           L552:
 0FDB           L551:
 0FDB                   .dbline 964
 0FDB           L546:
 0FDB                   .dbline 964
 0FDB           ; }
 0FDB 3D0004            cmp [X+0],4
 0FDE BFB9              jnz L545
 0FE0                   .dbline -2
 0FE0                   .dbline 965
 0FE0           ; }
 0FE0           L544:
 0FE0 38FC              add SP,-4
 0FE2 20                pop X
 0FE3                   .dbline 0 ; func end
 0FE3 7F                ret
 0FE4                   .dbsym l x 2 i
 0FE4                   .dbsym l menu 1 c
 0FE4                   .dbsym l pulsat 0 c
 0FE4                   .dbend
 0FE4                   .dbfunc e Ara _Ara fV
 0FE4           _Ara::
 0FE4                   .dbline -1
 0FE4                   .dbline 974
 0FE4           ; }
 0FE4           ; }
 0FE4           ; }
 0FE4           ; }
 0FE4           ; }
 0FE4           ; }
 0FE4           ; }
 0FE4           ; }
 0FE4           ; }
 0FE4                   .dbline 975
 0FE4           ; }
 0FE4 7C0060            xcall _Reset_PdT
 0FE7                   .dbline 976
 0FE7           ; }
 0FE7 5009              mov A,9
 0FE9 08                push A
 0FEA 906A              xcall _Envia
 0FEC 38FF              add SP,-1
 0FEE                   .dbline 977
 0FEE           ; }
 0FEE 62D000            mov REG[0xd0],>_Ent1
 0FF1 5100              mov A,[_Ent1]
 0FF3 08                push A
 0FF4 9060              xcall _Envia
 0FF6                   .dbline 978
 0FF6           ; }
 0FF6 62D000            mov REG[0xd0],>_Ent2
 0FF9 5100              mov A,[_Ent2]
 0FFB 08                push A
 0FFC 9058              xcall _Envia
 0FFE 38FE              add SP,-2
 1000                   .dbline 979
 1000           ; }
 1000 62D000            mov REG[0xd0],>_Ent3
 1003 5100              mov A,[_Ent3]
 1005 08                push A
 1006 904E              xcall _Envia
 1008                   .dbline 980
 1008           ; }
 1008 62D000            mov REG[0xd0],>_Ent4
 100B 5100              mov A,[_Ent4]
 100D 08                push A
 100E 9046              xcall _Envia
 1010 38FE              add SP,-2
 1012                   .dbline 981
 1012           ; }
 1012 62D000            mov REG[0xd0],>_Cam1
 1015 5100              mov A,[_Cam1]
 1017 08                push A
 1018 903C              xcall _Envia
 101A                   .dbline 982
 101A           ; }
 101A 62D000            mov REG[0xd0],>_Cam2
 101D 5100              mov A,[_Cam2]
 101F 08                push A
 1020 9034              xcall _Envia
 1022 38FE              add SP,-2
 1024                   .dbline 983
 1024           ; }
 1024 62D000            mov REG[0xd0],>_Fla1
 1027 5100              mov A,[_Fla1]
 1029 08                push A
 102A 902A              xcall _Envia
 102C                   .dbline 984
 102C           ; }
 102C 62D000            mov REG[0xd0],>_Fla2
 102F 5100              mov A,[_Fla2]
 1031 08                push A
 1032 9022              xcall _Envia
 1034 38FE              add SP,-2
 1036                   .dbline 985
 1036           ; }
 1036 62D000            mov REG[0xd0],>_Fla3
 1039 5100              mov A,[_Fla3]
 103B 08                push A
 103C 9018              xcall _Envia
 103E                   .dbline 986
 103E           ; }
 103E 62D000            mov REG[0xd0],>_Fla4
 1041 5100              mov A,[_Fla4]
 1043 08                push A
 1044 9010              xcall _Envia
 1046 38FE              add SP,-2
 1048                   .dbline 987
 1048           ; }
 1048 62D000            mov REG[0xd0],>_Buzzer
 104B 3C0001            cmp [_Buzzer],1
 104E B004              jnz L557
 1050                   .dbline 987
 1050 7C0034            xcall _Pitido
 1053           L557:
 1053                   .dbline 988
 1053           ; }
 1053 9034              xcall _Trabajando
 1055                   .dbline -2
 1055                   .dbline 989
 1055           ; }
 1055           L556:
 1055                   .dbline 0 ; func end
 1055 7F                ret
 1056                   .dbend
 1056                   .dbfunc e Envia _Envia fV
 1056           ;   confirmacion -> X+0
 1056           ;          valor -> X-4
 1056           _Envia::
 1056                   .dbline -1
 1056 10                push X
 1057 4F                mov X,SP
 1058 3801              add SP,1
 105A                   .dbline 999
 105A           ; }
 105A           ; }
 105A           ; }
 105A           ; }
 105A           ; }
 105A           ; }
 105A           ; }
 105A           ; }
 105A           ; }
 105A           ; }
 105A           L560:
 105A                   .dbline 1003
 105A           ; }
 105A           ; }
 105A           ; }
 105A           ; }
 105A                   .dbline 1004
 105A           ; }
 105A 10                push X
 105B 52FC              mov A,[X-4]
 105D 7C0000            xcall _UART_PutChar
 1060                   .dbline 1005
 1060           ; }
 1060 7C0000            xcall _UART_cGetChar
 1063 62D000            mov REG[0xd0],>__r0
 1066 20                pop X
 1067 5400              mov [X+0],A
 1069                   .dbline 1006
 1069           ; }
 1069 52FC              mov A,[X-4]
 106B 3B00              cmp A,[X+0]
 106D B00A              jnz L563
 106F                   .dbline 1006
 106F 10                push X
 1070 5005              mov A,5
 1072 7C0000            xcall _UART_PutChar
 1075 20                pop X
 1076 8008              xjmp L564
 1078           L563:
 1078                   .dbline 1007
 1078           ; }
 1078 10                push X
 1079 5004              mov A,4
 107B 7C0000            xcall _UART_PutChar
 107E 20                pop X
 107F           L564:
 107F                   .dbline 1008
 107F           L561:
 107F                   .dbline 1008
 107F           ; }
 107F 52FC              mov A,[X-4]
 1081 3B00              cmp A,[X+0]
 1083 BFD6              jnz L560
 1085                   .dbline -2
 1085                   .dbline 1009
 1085           ; }
 1085           L559:
 1085 38FF              add SP,-1
 1087 20                pop X
 1088                   .dbline 0 ; func end
 1088 7F                ret
 1089                   .dbsym l confirmacion 0 c
 1089                   .dbsym l valor -4 c
 1089                   .dbend
 1089                   .dbfunc e Trabajando _Trabajando fV
 1089           ;         pulsat -> X+2
 1089           ;              x -> X+0
 1089           _Trabajando::
 1089                   .dbline -1
 1089 10                push X
 108A 4F                mov X,SP
 108B 3803              add SP,3
 108D                   .dbline 1018
 108D           ; }
 108D           ; }
 108D           ; }
 108D           ; }
 108D           ; }
 108D           ; }
 108D           ; }
 108D           ; }
 108D           ; }
 108D                   .dbline 1023
 108D           ; }
 108D           ; }
 108D           ; }
 108D           ; }
 108D           ; }
 108D 10                push X
 108E 5001              mov A,1
 1090 7C0000            xcall _LCD_Control
 1093                   .dbline 1024
 1093           ; }
 1093 5093              mov A,>L566
 1095 08                push A
 1096 5093              mov A,<L566
 1098 5C                mov X,A
 1099 18                pop A
 109A 7C0000            xcall _LCD_PrCString
 109D 20                pop X
 109E                   .dbline 1025
 109E 560100            mov [X+1],0
 10A1 560000            mov [X+0],0
 10A4 8006              xjmp L570
 10A6           L567:
 10A6                   .dbline 1025
 10A6           L568:
 10A6                   .dbline 1025
 10A6 7701              inc [X+1]
 10A8 0F0000            adc [X+0],0
 10AB           L570:
 10AB                   .dbline 1025
 10AB           ; }
 10AB 62D000            mov REG[0xd0],>__r0
 10AE 5201              mov A,[X+1]
 10B0 5300              mov [__r3],A
 10B2 5200              mov A,[X+0]
 10B4 5300              mov [__r2],A
 10B6 5100              mov A,[__r3]
 10B8 1160              sub A,96
 10BA 5100              mov A,[__r2]
 10BC 19EA              sbb A,-22
 10BE 5000              mov A,0
 10C0 1900              sbb A,0
 10C2 5000              mov A,0
 10C4 3180              xor A,-128
 10C6 1980              sbb A,(0 ^ 0x80)
 10C8 CFDD              jc L567
 10CA           X26:
 10CA                   .dbline 1027
 10CA           ; }
 10CA           ; }
 10CA           L571:
 10CA                   .dbline 1028
 10CA           ; }
 10CA                   .dbline 1030
 10CA           ; }
 10CA           ; }
 10CA 10                push X
 10CB 5008              mov A,8
 10CD 7C0000            xcall _LCD_Control
 10D0                   .dbline 1031
 10D0           ; }
 10D0 5001              mov A,1
 10D2 7C0000            xcall _LCD_Control
 10D5 20                pop X
 10D6                   .dbline 1033
 10D6           ; }
 10D6           ; }
 10D6 7C009C            xcall _Pulsador
 10D9 5402              mov [X+2],A
 10DB                   .dbline 1034
 10DB           ; }
 10DB 62D000            mov REG[0xd0],>_Buzzer
 10DE 3C0001            cmp [_Buzzer],1
 10E1 B004              jnz L575
 10E3                   .dbline 1034
 10E3 7C0034            xcall _Pitido
 10E6           L575:
 10E6                   .dbline 1035
 10E6           ; }
 10E6 3D0201            cmp [X+2],1
 10E9 A00B              jz L580
 10EB 3D0202            cmp [X+2],2
 10EE A006              jz L580
 10F0 3D0204            cmp [X+2],4
 10F3 B051              jnz L577
 10F5           L580:
 10F5                   .dbline 1036
 10F5           ; }
 10F5                   .dbline 1037
 10F5           ; }
 10F5 10                push X
 10F6 500E              mov A,14
 10F8 7C0000            xcall _LCD_Control
 10FB                   .dbline 1038
 10FB           ; }
 10FB 5083              mov A,>L581
 10FD 08                push A
 10FE 5083              mov A,<L581
 1100 5C                mov X,A
 1101 18                pop A
 1102 7C0000            xcall _LCD_PrCString
 1105                   .dbline 1039
 1105           ; }
 1105 5700              mov X,0
 1107 5001              mov A,1
 1109 7C0000            xcall _LCD_Position
 110C                   .dbline 1040
 110C           ; }
 110C 5071              mov A,>L582
 110E 08                push A
 110F 5071              mov A,<L582
 1111 5C                mov X,A
 1112 18                pop A
 1113 7C0000            xcall _LCD_PrCString
 1116 20                pop X
 1117                   .dbline 1041
 1117 560100            mov [X+1],0
 111A 560000            mov [X+0],0
 111D 8006              xjmp L586
 111F           L583:
 111F                   .dbline 1041
 111F           L584:
 111F                   .dbline 1041
 111F 7701              inc [X+1]
 1121 0F0000            adc [X+0],0
 1124           L586:
 1124                   .dbline 1041
 1124           ; }
 1124 62D000            mov REG[0xd0],>__r0
 1127 5201              mov A,[X+1]
 1129 5300              mov [__r3],A
 112B 5200              mov A,[X+0]
 112D 5300              mov [__r2],A
 112F 5100              mov A,[__r3]
 1131 1150              sub A,80
 1133 5100              mov A,[__r2]
 1135 19C3              sbb A,-61
 1137 5000              mov A,0
 1139 1900              sbb A,0
 113B 5000              mov A,0
 113D 3180              xor A,-128
 113F 1980              sbb A,(0 ^ 0x80)
 1141 CFDD              jc L583
 1143           X27:
 1143                   .dbline 1042
 1143           ; }
 1143 8F86              xjmp L571
 1145           L577:
 1145                   .dbline 1043
 1145           ; }
 1145 3D0203            cmp [X+2],3
 1148 BF81              jnz L571
 114A                   .dbline 1044
 114A           ; }
 114A                   .dbline 1045
 114A           ; }
 114A 10                push X
 114B 500E              mov A,14
 114D 7C0000            xcall _LCD_Control
 1150                   .dbline 1046
 1150           ; }
 1150 5062              mov A,>L589
 1152 08                push A
 1153 5062              mov A,<L589
 1155 5C                mov X,A
 1156 18                pop A
 1157 7C0000            xcall _LCD_PrCString
 115A 20                pop X
 115B                   .dbline 1047
 115B 560100            mov [X+1],0
 115E 560000            mov [X+0],0
 1161 8006              xjmp L593
 1163           L590:
 1163                   .dbline 1047
 1163           L591:
 1163                   .dbline 1047
 1163 7701              inc [X+1]
 1165 0F0000            adc [X+0],0
 1168           L593:
 1168                   .dbline 1047
 1168 62D000            mov REG[0xd0],>__r0
 116B 5201              mov A,[X+1]
 116D 5300              mov [__r3],A
 116F 5200              mov A,[X+0]
 1171 5300              mov [__r2],A
 1173 5100              mov A,[__r3]
 1175 1150              sub A,80
 1177 5100              mov A,[__r2]
 1179 19C3              sbb A,-61
 117B 5000              mov A,0
 117D 1900              sbb A,0
 117F 5000              mov A,0
 1181 3180              xor A,-128
 1183 1980              sbb A,(0 ^ 0x80)
 1185 CFDD              jc L590
 1187           X28:
 1187                   .dbline 1048
 1187 9006              xcall _Resetear
 1189                   .dbline 1049
 1189                   .dbline 1050
 1189                   .dbline 1027
 1189                   .dbline 1027
 1189 8F40              xjmp L571
 118B           X25:
 118B                   .dbline -2
 118B           L565:
 118B 38FD              add SP,-3
 118D 20                pop X
 118E                   .dbline 0 ; func end
 118E 7F                ret
 118F                   .dbsym l pulsat 2 c
 118F                   .dbsym l x 0 i
 118F                   .dbend
 118F                   .dbfunc e Resetear _Resetear fV
 118F           _Resetear::
 118F                   .dbline -1
 118F                   .dbline 1060
 118F           ; }
 118F           ; }
 118F           ; }
 118F           ; }
 118F           ; }
 118F           ; }
 118F           ; }
 118F           ; }
 118F           ; }
 118F           ; }
 118F           ; }
 118F           ; }
 118F           ; }
 118F           ; }
 118F                   .dbline 1061
 118F           ; }
 118F 5063              mov A,99
 1191 08                push A
 1192 9EC2              xcall _Envia
 1194 38FF              add SP,-1
 1196                   .dbline 1062
 1196           ; }
 1196 7C013E            xcall _Principal
 1199                   .dbline -2
 1199                   .dbline 1063
 1199           ; }
 1199           L594:
 1199                   .dbline 0 ; func end
 1199 7F                ret
 119A                   .dbend
 119A                   .dbfunc e Sistema _Sistema fV
 119A           ;              x -> X+2
 119A           ;           menu -> X+1
 119A           ;         pulsat -> X+0
 119A           _Sistema::
 119A                   .dbline -1
 119A 10                push X
 119B 4F                mov X,SP
 119C 3804              add SP,4
 119E                   .dbline 1073
 119E           ; }
 119E           ; }
 119E           ; }
 119E           ; }
 119E           ; }
 119E           ; }
 119E           ; }
 119E           ; }
 119E           ; }
 119E           ; }
 119E                   .dbline 1074
 119E           ; }
 119E 560101            mov [X+1],1
 11A1           L596:
 11A1                   .dbline 1078
 11A1           ; }
 11A1           ; }
 11A1           ; }
 11A1           ; }
 11A1                   .dbline 1079
 11A1           ; }
 11A1 10                push X
 11A2 5001              mov A,1
 11A4 7C0000            xcall _LCD_Control
 11A7                   .dbline 1080
 11A7           ; }
 11A7 5053              mov A,>L599
 11A9 08                push A
 11AA 5053              mov A,<L599
 11AC 5C                mov X,A
 11AD 18                pop A
 11AE 7C0000            xcall _LCD_PrCString
 11B1                   .dbline 1081
 11B1           ; }
 11B1 5700              mov X,0
 11B3 5001              mov A,1
 11B5 7C0000            xcall _LCD_Position
 11B8 20                pop X
 11B9                   .dbline 1082
 11B9           ; }
 11B9 3D0101            cmp [X+1],1
 11BC B00F              jnz L600
 11BE                   .dbline 1082
 11BE 10                push X
 11BF 5049              mov A,>L602
 11C1 08                push A
 11C2 5049              mov A,<L602
 11C4 5C                mov X,A
 11C5 18                pop A
 11C6 7C0000            xcall _LCD_PrCString
 11C9 20                pop X
 11CA 8025              xjmp L601
 11CC           L600:
 11CC                   .dbline 1083
 11CC           ; }
 11CC 3D0102            cmp [X+1],2
 11CF B00F              jnz L603
 11D1                   .dbline 1083
 11D1 10                push X
 11D2 5038              mov A,>L605
 11D4 08                push A
 11D5 5038              mov A,<L605
 11D7 5C                mov X,A
 11D8 18                pop A
 11D9 7C0000            xcall _LCD_PrCString
 11DC 20                pop X
 11DD 8012              xjmp L604
 11DF           L603:
 11DF                   .dbline 1084
 11DF           ; }
 11DF 3D0103            cmp [X+1],3
 11E2 B00D              jnz L606
 11E4                   .dbline 1084
 11E4 10                push X
 11E5 5028              mov A,>L608
 11E7 08                push A
 11E8 5028              mov A,<L608
 11EA 5C                mov X,A
 11EB 18                pop A
 11EC 7C0000            xcall _LCD_PrCString
 11EF 20                pop X
 11F0           L606:
 11F0           L604:
 11F0           L601:
 11F0                   .dbline 1085
 11F0           ; }
 11F0 7C0000            xcall _bucle_temp
 11F3                   .dbline 1086
 11F3           ; }
 11F3 7C009C            xcall _Pulsador
 11F6 5400              mov [X+0],A
 11F8                   .dbline 1087
 11F8           ; }
 11F8 62D000            mov REG[0xd0],>_Buzzer
 11FB 3C0001            cmp [_Buzzer],1
 11FE B004              jnz L609
 1200                   .dbline 1087
 1200 7C0034            xcall _Pitido
 1203           L609:
 1203                   .dbline 1088
 1203           ; }
 1203 3D0001            cmp [X+0],1
 1206 B019              jnz L611
 1208                   .dbline 1089
 1208           ; }
 1208                   .dbline 1090
 1208           ; }
 1208 62D000            mov REG[0xd0],>__r0
 120B 5201              mov A,[X+1]
 120D 0101              add A,1
 120F 5300              mov [__r0],A
 1211 5003              mov A,3
 1213 3A00              cmp A,[__r0]
 1215 D006              jnc L613
 1217           X29:
 1217                   .dbline 1090
 1217 560101            mov [X+1],1
 121A 803C              xjmp L612
 121C           L613:
 121C                   .dbline 1091
 121C           ; }
 121C 7701              inc [X+1]
 121E                   .dbline 1092
 121E           ; }
 121E 8038              xjmp L612
 1220           L611:
 1220                   .dbline 1093
 1220           ; }
 1220 3D0003            cmp [X+0],3
 1223 B01C              jnz L615
 1225                   .dbline 1094
 1225           ; }
 1225                   .dbline 1095
 1225           ; }
 1225 3D0101            cmp [X+1],1
 1228 B005              jnz L617
 122A                   .dbline 1095
 122A 9034              xcall _Reali_LCD
 122C 802A              xjmp L616
 122E           L617:
 122E                   .dbline 1096
 122E           ; }
 122E 3D0102            cmp [X+1],2
 1231 B005              jnz L619
 1233                   .dbline 1096
 1233 90B6              xcall _Zumbador
 1235 8021              xjmp L616
 1237           L619:
 1237                   .dbline 1097
 1237           ; }
 1237 3D0103            cmp [X+1],3
 123A B01C              jnz L616
 123C                   .dbline 1097
 123C 9132              xcall _Ali_Led
 123E                   .dbline 1098
 123E           ; }
 123E 8018              xjmp L616
 1240           L615:
 1240                   .dbline 1099
 1240           ; }
 1240 3D0002            cmp [X+0],2
 1243 B013              jnz L623
 1245                   .dbline 1100
 1245           ; }
 1245                   .dbline 1101
 1245           ; }
 1245 62D000            mov REG[0xd0],>__r0
 1248 5201              mov A,[X+1]
 124A 1101              sub A,1
 124C 3901              cmp A,1
 124E D006              jnc L625
 1250           X30:
 1250                   .dbline 1101
 1250 560103            mov [X+1],3
 1253 8003              xjmp L626
 1255           L625:
 1255                   .dbline 1102
 1255           ; }
 1255 7B01              dec [X+1]
 1257           L626:
 1257                   .dbline 1103
 1257           ; }
 1257           L623:
 1257           L616:
 1257           L612:
 1257                   .dbline 1104
 1257           L597:
 1257                   .dbline 1104
 1257           ; }
 1257 3D0004            cmp [X+0],4
 125A BF46              jnz L596
 125C                   .dbline -2
 125C                   .dbline 1105
 125C           ; }
 125C           L595:
 125C 38FC              add SP,-4
 125E 20                pop X
 125F                   .dbline 0 ; func end
 125F 7F                ret
 1260                   .dbsym l x 2 i
 1260                   .dbsym l menu 1 c
 1260                   .dbsym l pulsat 0 c
 1260                   .dbend
 1260                   .dbfunc e Reali_LCD _Reali_LCD fV
 1260           ;              x -> X+1
 1260           ;         pulsat -> X+0
 1260           _Reali_LCD::
 1260                   .dbline -1
 1260 10                push X
 1261 4F                mov X,SP
 1262 3803              add SP,3
 1264                   .dbline 1114
 1264           ; }
 1264           ; }
 1264           ; }
 1264           ; }
 1264           ; }
 1264           ; }
 1264           ; }
 1264           ; }
 1264           ; }
 1264           L628:
 1264                   .dbline 1119
 1264           ; }
 1264           ; }
 1264           ; }
 1264           ; }
 1264           ; }
 1264                   .dbline 1120
 1264           ; }
 1264 10                push X
 1265 5001              mov A,1
 1267 7C0000            xcall _LCD_Control
 126A                   .dbline 1121
 126A           ; }
 126A 501F              mov A,>L631
 126C 08                push A
 126D 501F              mov A,<L631
 126F 5C                mov X,A
 1270 18                pop A
 1271 7C0000            xcall _LCD_PrCString
 1274                   .dbline 1122
 1274           ; }
 1274 5700              mov X,0
 1276 5001              mov A,1
 1278 7C0000            xcall _LCD_Position
 127B 20                pop X
 127C                   .dbline 1123
 127C           ; }
 127C 62D000            mov REG[0xd0],>_Luz_LCD
 127F 3C0000            cmp [_Luz_LCD],0
 1282 B00F              jnz L632
 1284                   .dbline 1123
 1284 10                push X
 1285 5053              mov A,>L137
 1287 08                push A
 1288 5053              mov A,<L137
 128A 5C                mov X,A
 128B 18                pop A
 128C 7C0000            xcall _LCD_PrCString
 128F 20                pop X
 1290 800D              xjmp L633
 1292           L632:
 1292                   .dbline 1124
 1292           ; }
 1292 10                push X
 1293 5050              mov A,>L138
 1295 08                push A
 1296 5050              mov A,<L138
 1298 5C                mov X,A
 1299 18                pop A
 129A 7C0000            xcall _LCD_PrCString
 129D 20                pop X
 129E           L633:
 129E                   .dbline 1125
 129E           ; }
 129E 7C0000            xcall _bucle_temp
 12A1                   .dbline 1126
 12A1           ; }
 12A1 7C009C            xcall _Pulsador
 12A4 5400              mov [X+0],A
 12A6                   .dbline 1127
 12A6           ; }
 12A6 62D000            mov REG[0xd0],>_Buzzer
 12A9 3C0001            cmp [_Buzzer],1
 12AC B004              jnz L634
 12AE                   .dbline 1127
 12AE 7C0034            xcall _Pitido
 12B1           L634:
 12B1                   .dbline 1128
 12B1           ; }
 12B1 3D0001            cmp [X+0],1
 12B4 A006              jz L638
 12B6 3D0002            cmp [X+0],2
 12B9 B00A              jnz L636
 12BB           L638:
 12BB                   .dbline 1129
 12BB           ; }
 12BB                   .dbline 1130
 12BB           ; }
 12BB 5D00              mov A,REG[ 0]
 12BD 62D000            mov REG[0xd0],>__r0
 12C0 6000              mov REG[ 0],A
 12C2                   .dbline 1131
 12C2           ; }
 12C2 801F              xjmp L637
 12C4           L636:
 12C4                   .dbline 1132
 12C4           ; }
 12C4 3D0003            cmp [X+0],3
 12C7 B01A              jnz L639
 12C9                   .dbline 1133
 12C9           ; }
 12C9                   .dbline 1134
 12C9           ; }
 12C9 62D000            mov REG[0xd0],>_Luz_LCD
 12CC 3C0000            cmp [_Luz_LCD],0
 12CF B009              jnz L641
 12D1                   .dbline 1135
 12D1           ; }
 12D1                   .dbline 1136
 12D1           ; }
 12D1 430002            or REG[ 0],2
 12D4                   .dbline 1137
 12D4           ; }
 12D4 550001            mov [_Luz_LCD],1
 12D7                   .dbline 1138
 12D7           ; }
 12D7 800A              xjmp L642
 12D9           L641:
 12D9                   .dbline 1140
 12D9           ; }
 12D9           ; }
 12D9                   .dbline 1141
 12D9           ; }
 12D9 4100FD            and REG[ 0],-3
 12DC                   .dbline 1142
 12DC           ; }
 12DC 62D000            mov REG[0xd0],>_Luz_LCD
 12DF 550000            mov [_Luz_LCD],0
 12E2                   .dbline 1143
 12E2           ; }
 12E2           L642:
 12E2                   .dbline 1144
 12E2           ; }
 12E2           L639:
 12E2           L637:
 12E2                   .dbline 1145
 12E2           L629:
 12E2                   .dbline 1145
 12E2           ; }
 12E2 3D0004            cmp [X+0],4
 12E5 BF7E              jnz L628
 12E7                   .dbline -2
 12E7                   .dbline 1146
 12E7           ; }
 12E7           L627:
 12E7 38FD              add SP,-3
 12E9 20                pop X
 12EA                   .dbline 0 ; func end
 12EA 7F                ret
 12EB                   .dbsym l x 1 i
 12EB                   .dbsym l pulsat 0 c
 12EB                   .dbend
 12EB                   .dbfunc e Zumbador _Zumbador fV
 12EB           ;              x -> X+1
 12EB           ;         pulsat -> X+0
 12EB           _Zumbador::
 12EB                   .dbline -1
 12EB 10                push X
 12EC 4F                mov X,SP
 12ED 3803              add SP,3
 12EF                   .dbline 1155
 12EF           ; }
 12EF           ; }
 12EF           ; }
 12EF           ; }
 12EF           ; }
 12EF           ; }
 12EF           ; }
 12EF           ; }
 12EF           ; }
 12EF           L644:
 12EF                   .dbline 1160
 12EF           ; }
 12EF           ; }
 12EF           ; }
 12EF           ; }
 12EF           ; }
 12EF                   .dbline 1161
 12EF           ; }
 12EF 10                push X
 12F0 5001              mov A,1
 12F2 7C0000            xcall _LCD_Control
 12F5                   .dbline 1162
 12F5           ; }
 12F5 500F              mov A,>L647
 12F7 08                push A
 12F8 500F              mov A,<L647
 12FA 5C                mov X,A
 12FB 18                pop A
 12FC 7C0000            xcall _LCD_PrCString
 12FF                   .dbline 1163
 12FF           ; }
 12FF 5700              mov X,0
 1301 5001              mov A,1
 1303 7C0000            xcall _LCD_Position
 1306 20                pop X
 1307                   .dbline 1164
 1307           ; }
 1307 62D000            mov REG[0xd0],>_Buzzer
 130A 3C0000            cmp [_Buzzer],0
 130D B00F              jnz L648
 130F                   .dbline 1164
 130F 10                push X
 1310 5053              mov A,>L137
 1312 08                push A
 1313 5053              mov A,<L137
 1315 5C                mov X,A
 1316 18                pop A
 1317 7C0000            xcall _LCD_PrCString
 131A 20                pop X
 131B 800D              xjmp L649
 131D           L648:
 131D                   .dbline 1165
 131D           ; }
 131D 10                push X
 131E 5050              mov A,>L138
 1320 08                push A
 1321 5050              mov A,<L138
 1323 5C                mov X,A
 1324 18                pop A
 1325 7C0000            xcall _LCD_PrCString
 1328 20                pop X
 1329           L649:
 1329                   .dbline 1166
 1329           ; }
 1329 7C0000            xcall _bucle_temp
 132C                   .dbline 1167
 132C           ; }
 132C 7C009C            xcall _Pulsador
 132F 5400              mov [X+0],A
 1331                   .dbline 1168
 1331           ; }
 1331 62D000            mov REG[0xd0],>_Buzzer
 1334 3C0001            cmp [_Buzzer],1
 1337 B004              jnz L650
 1339                   .dbline 1168
 1339 7C0034            xcall _Pitido
 133C           L650:
 133C                   .dbline 1169
 133C           ; }
 133C 3D0001            cmp [X+0],1
 133F A006              jz L654
 1341 3D0002            cmp [X+0],2
 1344 B00A              jnz L652
 1346           L654:
 1346                   .dbline 1170
 1346           ; }
 1346                   .dbline 1171
 1346           ; }
 1346 5D00              mov A,REG[ 0]
 1348 62D000            mov REG[0xd0],>__r0
 134B 6000              mov REG[ 0],A
 134D                   .dbline 1172
 134D           ; }
 134D 8019              xjmp L653
 134F           L652:
 134F                   .dbline 1173
 134F           ; }
 134F 3D0003            cmp [X+0],3
 1352 B014              jnz L655
 1354                   .dbline 1174
 1354           ; }
 1354                   .dbline 1175
 1354           ; }
 1354 62D000            mov REG[0xd0],>_Buzzer
 1357 3C0000            cmp [_Buzzer],0
 135A B006              jnz L657
 135C                   .dbline 1175
 135C 550001            mov [_Buzzer],1
 135F 8007              xjmp L658
 1361           L657:
 1361                   .dbline 1176
 1361           ; }
 1361 62D000            mov REG[0xd0],>_Buzzer
 1364 550000            mov [_Buzzer],0
 1367           L658:
 1367                   .dbline 1177
 1367           ; }
 1367           L655:
 1367           L653:
 1367                   .dbline 1178
 1367           L645:
 1367                   .dbline 1178
 1367           ; }
 1367 3D0004            cmp [X+0],4
 136A BF84              jnz L644
 136C                   .dbline -2
 136C                   .dbline 1179
 136C           ; }
 136C           L643:
 136C 38FD              add SP,-3
 136E 20                pop X
 136F                   .dbline 0 ; func end
 136F 7F                ret
 1370                   .dbsym l x 1 i
 1370                   .dbsym l pulsat 0 c
 1370                   .dbend
 1370                   .dbfunc e Ali_Led _Ali_Led fV
 1370           ;              x -> X+1
 1370           ;         pulsat -> X+0
 1370           _Ali_Led::
 1370                   .dbline -1
 1370 10                push X
 1371 4F                mov X,SP
 1372 3803              add SP,3
 1374                   .dbline 1188
 1374           ; }
 1374           ; }
 1374           ; }
 1374           ; }
 1374           ; }
 1374           ; }
 1374           ; }
 1374           ; }
 1374           ; }
 1374           L660:
 1374                   .dbline 1193
 1374           ; }
 1374           ; }
 1374           ; }
 1374           ; }
 1374           ; }
 1374                   .dbline 1194
 1374           ; }
 1374 10                push X
 1375 5001              mov A,1
 1377 7C0000            xcall _LCD_Control
 137A                   .dbline 1195
 137A           ; }
 137A 5000              mov A,>L663
 137C 08                push A
 137D 5000              mov A,<L663
 137F 5C                mov X,A
 1380 18                pop A
 1381 7C0000            xcall _LCD_PrCString
 1384                   .dbline 1196
 1384           ; }
 1384 5700              mov X,0
 1386 5001              mov A,1
 1388 7C0000            xcall _LCD_Position
 138B 20                pop X
 138C                   .dbline 1197
 138C           ; }
 138C 62D000            mov REG[0xd0],>_Alimentacion
 138F 3C0000            cmp [_Alimentacion],0
 1392 B00F              jnz L664
 1394                   .dbline 1197
 1394 10                push X
 1395 5053              mov A,>L137
 1397 08                push A
 1398 5053              mov A,<L137
 139A 5C                mov X,A
 139B 18                pop A
 139C 7C0000            xcall _LCD_PrCString
 139F 20                pop X
 13A0 800D              xjmp L665
 13A2           L664:
 13A2                   .dbline 1198
 13A2           ; }
 13A2 10                push X
 13A3 5050              mov A,>L138
 13A5 08                push A
 13A6 5050              mov A,<L138
 13A8 5C                mov X,A
 13A9 18                pop A
 13AA 7C0000            xcall _LCD_PrCString
 13AD 20                pop X
 13AE           L665:
 13AE                   .dbline 1199
 13AE           ; }
 13AE 7C0000            xcall _bucle_temp
 13B1                   .dbline 1200
 13B1           ; }
 13B1 7C009C            xcall _Pulsador
 13B4 5400              mov [X+0],A
 13B6                   .dbline 1201
 13B6           ; }
 13B6 62D000            mov REG[0xd0],>_Buzzer
 13B9 3C0001            cmp [_Buzzer],1
 13BC B004              jnz L666
 13BE                   .dbline 1201
 13BE 7C0034            xcall _Pitido
 13C1           L666:
 13C1                   .dbline 1202
 13C1           ; }
 13C1 3D0001            cmp [X+0],1
 13C4 A006              jz L670
 13C6 3D0002            cmp [X+0],2
 13C9 B00A              jnz L668
 13CB           L670:
 13CB                   .dbline 1203
 13CB           ; }
 13CB                   .dbline 1204
 13CB           ; }
 13CB 5D00              mov A,REG[ 0]
 13CD 62D000            mov REG[0xd0],>__r0
 13D0 6000              mov REG[ 0],A
 13D2                   .dbline 1205
 13D2           ; }
 13D2 801F              xjmp L669
 13D4           L668:
 13D4                   .dbline 1206
 13D4           ; }
 13D4 3D0003            cmp [X+0],3
 13D7 B01A              jnz L671
 13D9                   .dbline 1207
 13D9           ; }
 13D9                   .dbline 1208
 13D9           ; }
 13D9 62D000            mov REG[0xd0],>_Alimentacion
 13DC 3C0000            cmp [_Alimentacion],0
 13DF B009              jnz L673
 13E1                   .dbline 1209
 13E1           ; }
 13E1                   .dbline 1210
 13E1           ; }
 13E1 430010            or REG[ 0],16
 13E4                   .dbline 1211
 13E4           ; }
 13E4 550001            mov [_Alimentacion],1
 13E7                   .dbline 1212
 13E7           ; }
 13E7 800A              xjmp L674
 13E9           L673:
 13E9                   .dbline 1214
 13E9           ; }
 13E9           ; }
 13E9                   .dbline 1215
 13E9           ; }
 13E9 4100EF            and REG[ 0],-17
 13EC                   .dbline 1216
 13EC           ; }
 13EC 62D000            mov REG[0xd0],>_Alimentacion
 13EF 550000            mov [_Alimentacion],0
 13F2                   .dbline 1217
 13F2           ; }
 13F2           L674:
 13F2                   .dbline 1218
 13F2           ; }
 13F2           L671:
 13F2           L669:
 13F2                   .dbline 1219
 13F2           L661:
 13F2                   .dbline 1219
 13F2           ; }
 13F2 3D0004            cmp [X+0],4
 13F5 BF7E              jnz L660
 13F7                   .dbline -2
 13F7                   .dbline 1220
 13F7           ; }
 13F7           L659:
 13F7 38FD              add SP,-3
 13F9 20                pop X
 13FA                   .dbline 0 ; func end
 13FA 7F                ret
 13FB                   .dbsym l x 1 i
 13FB                   .dbsym l pulsat 0 c
 13FB                   .dbend
 13FB                   .dbfile ./main.c
 13FB                   .dbfunc e main _main fV
 13FB           ;             xx -> X+1
 13FB           ;              x -> X+0
 13FB           _main::
 13FB                   .dbline -1
 13FB 10                push X
 13FC 4F                mov X,SP
 13FD 3803              add SP,3
 13FF                   .dbline 13
 13FF                   .dbline 17
 13FF 10                push X
 1400 509C              mov A,-100
 1402 7C0000            xcall _Timer8_WritePeriod
 1405                   .dbline 18
 1405 504E              mov A,78
 1407 7C0000            xcall _Timer8_WriteCompareValue
 140A                   .dbline 19
 140A 7C0000            xcall _Timer8_Start
 140D                   .dbline 21
 140D 7C0000            xcall _LCD_Start
 1410                   .dbline 22
 1410 7C0000            xcall _LCD_Init
 1413                   .dbline 24
 1413 5000              mov A,0
 1415 7C0000            xcall _UART_Start
 1418 20                pop X
 1419                   .dbline 25
 1419 6200A0            mov REG[ 0],-96
 141C                   .dbline 28
 141C 4100E1            and REG[ 0],-31
 141F                   .dbline 32
 141F           L676:
 141F                   .dbline 32
 141F 7C013E            xcall _Principal
 1422                   .dbline 32
 1422                   .dbline 32
 1422 8FFC              xjmp L676
 1424           X31:
 1424                   .dbline -2
 1424           L675:
 1424 38FD              add SP,-3
 1426 20                pop X
 1427                   .dbline 0 ; func end
 1427 8FFF              jmp .
 1429                   .dbsym l xx 1 I
 1429                   .dbsym l x 0 c
 1429                   .dbend
                        .area data(ram, con, rel)
 0000                   .dbfile ./main.c
 0000           _TL2_Tfilm_Uni::
 0000 00                .byte 0
 0001                   .dbfile ./terminal.h
 0001                   .dbsym e TL2_Tfilm_Uni _TL2_Tfilm_Uni c
                        .area data(ram, con, rel)
 0000                   .dbfile ./terminal.h
 0000           _TL2_Tfilm::
 0000 00                .byte 0
 0001                   .dbsym e TL2_Tfilm _TL2_Tfilm c
                        .area data(ram, con, rel)
 0000                   .dbfile ./terminal.h
 0000           _TL2_Treal_Uni::
 0000 00                .byte 0
 0001                   .dbsym e TL2_Treal_Uni _TL2_Treal_Uni c
                        .area data(ram, con, rel)
 0000                   .dbfile ./terminal.h
 0000           _TL2_Treal::
 0000 00                .byte 0
 0001                   .dbsym e TL2_Treal _TL2_Treal c
                        .area data(ram, con, rel)
 0000                   .dbfile ./terminal.h
 0000           _TL1_Tfilm_Uni::
 0000 00                .byte 0
 0001                   .dbsym e TL1_Tfilm_Uni _TL1_Tfilm_Uni c
                        .area data(ram, con, rel)
 0000                   .dbfile ./terminal.h
 0000           _TL1_Tfilm::
 0000 00                .byte 0
 0001                   .dbsym e TL1_Tfilm _TL1_Tfilm c
                        .area data(ram, con, rel)
 0000                   .dbfile ./terminal.h
 0000           _TL1_Treal_Uni::
 0000 00                .byte 0
 0001                   .dbsym e TL1_Treal_Uni _TL1_Treal_Uni c
                        .area data(ram, con, rel)
 0000                   .dbfile ./terminal.h
 0000           _TL1_Treal::
 0000 00                .byte 0
 0001                   .dbsym e TL1_Treal _TL1_Treal c
                        .area lit(rom, con, rel)
 0000           L663:
 0000 3E4C6564206465206D617263686100    .byte 62,'L,'e,'d,32,'d,'e,32,'m,'a,'r,'c,'h,'a,0
 000F           L647:
 000F 3E50697469646F20696E7465726E6F00  .byte 62,'P,'i,'t,'i,'d,'o,32,'i,'n,'t,'e,'r,'n,'o,0
 001F           L631:
 001F 3E4C757A204C434400        .byte 62,'L,'u,'z,32,'L,'C,'D,0
 0028           L608:
 0028 332D4C6564206465206D617263686100  .byte 51,45,'L,'e,'d,32,'d,'e,32,'m,'a,'r,'c,'h,'a,0
 0038           L605:
 0038 322D50697469646F20696E7465726E6F  .byte 50,45,'P,'i,'t,'i,'d,'o,32,'i,'n,'t,'e,'r,'n,'o
 0048 00                .byte 0
 0049           L602:
 0049 312D4C757A204C434400      .byte 49,45,'L,'u,'z,32,'L,'C,'D,0
 0053           L599:
 0053 3E436F6E662E2053697374656D6100    .byte 62,'C,'o,'n,'f,46,32,'S,'i,'s,'t,'e,'m,'a,0
 0062           L589:
 0062 54726162616A6F2070617261646F00    .byte 'T,'r,'a,'b,'a,'j,'o,32,'p,'a,'r,'a,'d,'o,0
 0071           L582:
 0071 4D616E74656E657220416D6172696C6C  .byte 'M,'a,'n,'t,'e,'n,'e,'r,32,'A,'m,'a,'r,'i,'l,'l
 0081 6F00              .byte 'o,0
 0083           L581:
 0083 5175696572652070617261726C6F3F00  .byte 'Q,'u,'i,'e,'r,'e,32,'p,'a,'r,'a,'r,'l,'o,63,0
 0093           L566:
 0093 50686F746F534F432061637469766F00  .byte 'P,'h,'o,'t,'o,'S,'O,'C,32,'a,'c,'t,'i,'v,'o,0
 00A3           L549:
 00A3 312D41686F726100  .byte 49,45,'A,'h,'o,'r,'a,0
 00AB           L548:
 00AB 3E456A65637574617200      .byte 62,'E,'j,'e,'c,'u,'t,'a,'r,0
 00B5           L531:
 00B5 486F72617300      .byte 'H,'o,'r,'a,'s,0
 00BB           L528:
 00BB 4D696E75746F7300  .byte 'M,'i,'n,'u,'t,'o,'s,0
 00C3           L525:
 00C3 536567756E646F7300        .byte 'S,'e,'g,'u,'n,'d,'o,'s,0
 00CC           L522:
 00CC 3E556E692E206465207469656D706F00  .byte 62,'U,'n,'i,46,32,'d,'e,32,'t,'i,'e,'m,'p,'o,0
 00DC           L501:
 00DC 3E4E756D65726F20312D31303000      .byte 62,'N,'u,'m,'e,'r,'o,32,49,45,49,48,48,0
 00EA           L472:
 00EA 5469656D706F20766964656F00        .byte 'T,'i,'e,'m,'p,'o,32,'v,'i,'d,'e,'o,0
 00F7           L469:
 00F7 5469656D706F207265616C00  .byte 'T,'i,'e,'m,'p,'o,32,'r,'e,'a,'l,0
 0103           L466:
 0103 3E54696D65204C6170736500  .byte 62,'T,'i,'m,'e,32,'L,'a,'p,'s,'e,0
 010F           L433:
 010F 4E756D65726F20646520666F746F7300  .byte 'N,'u,'m,'e,'r,'o,32,'d,'e,32,'f,'o,'t,'o,'s,0
 011F           L430:
 011F 5420656E74726520666F746F00        .byte 'T,32,'e,'n,'t,'r,'e,32,'f,'o,'t,'o,0
 012C           L427:
 012C 3E496E74657276616C6F6D6574726F00  .byte 62,'I,'n,'t,'e,'r,'v,'a,'l,'o,'m,'e,'t,'r,'o,0
 013C           L387:
 013C 3E5469706F20646520646973702E00    .byte 62,'T,'i,'p,'o,32,'d,'e,32,'d,'i,'s,'p,46,0
 014B           L363:
 014B 3E43616D617261203200      .byte 62,'C,'a,'m,'a,'r,'a,32,50,0
 0155           L351:
 0155 54696D65204C6170736500    .byte 'T,'i,'m,'e,32,'L,'a,'p,'s,'e,0
 0160           L348:
 0160 496E74657276616C6F6D6574726F00    .byte 'I,'n,'t,'e,'r,'v,'a,'l,'o,'m,'e,'t,'r,'o,0
 016F           L345:
 016F 446973702E20556E69636F00  .byte 'D,'i,'s,'p,46,32,'U,'n,'i,'c,'o,0
 017B           L342:
 017B 4E6F206469737061726100    .byte 'N,'o,32,'d,'i,'s,'p,'a,'r,'a,0
 0186           L339:
 0186 3E43616D617261203100      .byte 62,'C,'a,'m,'a,'r,'a,32,49,0
 0190           L318:
 0190 322D43616D617261203200    .byte 50,45,'C,'a,'m,'a,'r,'a,32,50,0
 019B           L315:
 019B 312D43616D617261203100    .byte 49,45,'C,'a,'m,'a,'r,'a,32,49,0
 01A6           L312:
 01A6 3E436F6E662E204469737061726F00    .byte 62,'C,'o,'n,'f,46,32,'D,'i,'s,'p,'a,'r,'o,0
 01B5           L296:
 01B5 3E466C617368203400        .byte 62,'F,'l,'a,'s,'h,32,52,0
 01BE           L280:
 01BE 3E466C617368203300        .byte 62,'F,'l,'a,'s,'h,32,51,0
 01C7           L264:
 01C7 3E466C617368203200        .byte 62,'F,'l,'a,'s,'h,32,50,0
 01D0           L248:
 01D0 3E466C617368203100        .byte 62,'F,'l,'a,'s,'h,32,49,0
 01D9           L223:
 01D9 2020284F66662900  .byte 32,32,40,'O,'f,'f,41,0
 01E1           L220:
 01E1 342D466C617368203400      .byte 52,45,'F,'l,'a,'s,'h,32,52,0
 01EB           L215:
 01EB 332D466C617368203300      .byte 51,45,'F,'l,'a,'s,'h,32,51,0
 01F5           L210:
 01F5 322D466C617368203200      .byte 50,45,'F,'l,'a,'s,'h,32,50,0
 01FF           L207:
 01FF 20284F6E2900      .byte 32,40,'O,'n,41,0
 0205           L206:
 0205 20284F66662900    .byte 32,40,'O,'f,'f,41,0
 020C           L203:
 020C 312D466C617368203100      .byte 49,45,'F,'l,'a,'s,'h,32,49,0
 0216           L200:
 0216 3E436F6E662E20466C617368657300    .byte 62,'C,'o,'n,'f,46,32,'F,'l,'a,'s,'h,'e,'s,0
 0225           L184:
 0225 3E4469676974616C203220355600      .byte 62,'D,'i,'g,'i,'t,'a,'l,32,50,32,53,'V,0
 0233           L168:
 0233 3E4469676974616C203120355600      .byte 62,'D,'i,'g,'i,'t,'a,'l,32,49,32,53,'V,0
 0241           L152:
 0241 3E4261727265726120322031325600    .byte 62,'B,'a,'r,'r,'e,'r,'a,32,50,32,49,50,'V,0
 0250           L138:
 0250 4F4E00            .byte 'O,'N,0
 0253           L137:
 0253 4F464600          .byte 'O,'F,'F,0
 0257           L134:
 0257 3E4261727265726120312031325600    .byte 62,'B,'a,'r,'r,'e,'r,'a,32,49,32,49,50,'V,0
 0266           L109:
 0266 342D4469676974616C203220355600    .byte 52,45,'D,'i,'g,'i,'t,'a,'l,32,50,32,53,'V,0
 0275           L106:
 0275 332D4469676974616C203120355600    .byte 51,45,'D,'i,'g,'i,'t,'a,'l,32,49,32,53,'V,0
 0284           L103:
 0284 322D4261727265726120322031325600  .byte 50,45,'B,'a,'r,'r,'e,'r,'a,32,50,32,49,50,'V,0
 0294           L100:
 0294 312D4261727265726120312031325600  .byte 49,45,'B,'a,'r,'r,'e,'r,'a,32,49,32,49,50,'V,0
 02A4           L97:
 02A4 3E436F6E662E2053656E736F72657300  .byte 62,'C,'o,'n,'f,46,32,'S,'e,'n,'s,'o,'r,'e,'s,0
 02B4           L70:
 02B4 352D436F6E662E2053697374656D6100  .byte 53,45,'C,'o,'n,'f,46,32,'S,'i,'s,'t,'e,'m,'a,0
 02C4           L67:
 02C4 342D456A65637574617200    .byte 52,45,'E,'j,'e,'c,'u,'t,'a,'r,0
 02CF           L64:
 02CF 332D436F6E662E204469737061726F00  .byte 51,45,'C,'o,'n,'f,46,32,'D,'i,'s,'p,'a,'r,'o,0
 02DF           L61:
 02DF 322D436F6E662E20466C617368657300  .byte 50,45,'C,'o,'n,'f,46,32,'F,'l,'a,'s,'h,'e,'s,0
 02EF           L58:
 02EF 312D436F6E662E2053656E736F726573  .byte 49,45,'C,'o,'n,'f,46,32,'S,'e,'n,'s,'o,'r,'e,'s
 02FF 00                .byte 0
 0300           L55:
 0300 3E4D656E75205072696E636970616C00  .byte 62,'M,'e,'n,'u,32,'P,'r,'i,'n,'c,'i,'p,'a,'l,0
 0310           L46:
 0310 61202050686F746F536F4300  .byte 'a,32,32,'P,'h,'o,'t,'o,'S,'o,'C,0
 031C           L45:
 031C 4269656E76656E69646F7300  .byte 'B,'i,'e,'n,'v,'e,'n,'i,'d,'o,'s,0
