	cpu LMM
	.module main.c
	.area data(ram, con, rel)
_Cam1::
	.byte 0
	.dbfile ./trabajo.h
	.dbsym e Cam1 _Cam1 c
	.area data(ram, con, rel)
	.dbfile ./trabajo.h
	.area data(ram, con, rel)
	.dbfile ./trabajo.h
_Cam2::
	.byte 0
	.dbsym e Cam2 _Cam2 c
	.area data(ram, con, rel)
	.dbfile ./trabajo.h
	.area data(ram, con, rel)
	.dbfile ./trabajo.h
_Ent1::
	.byte 0
	.dbsym e Ent1 _Ent1 c
	.area data(ram, con, rel)
	.dbfile ./trabajo.h
	.area data(ram, con, rel)
	.dbfile ./trabajo.h
_Ent2::
	.byte 0
	.dbsym e Ent2 _Ent2 c
	.area data(ram, con, rel)
	.dbfile ./trabajo.h
	.area data(ram, con, rel)
	.dbfile ./trabajo.h
_Ent3::
	.byte 0
	.dbsym e Ent3 _Ent3 c
	.area data(ram, con, rel)
	.dbfile ./trabajo.h
	.area data(ram, con, rel)
	.dbfile ./trabajo.h
_Ent4::
	.byte 0
	.dbsym e Ent4 _Ent4 c
	.area data(ram, con, rel)
	.dbfile ./trabajo.h
	.area data(ram, con, rel)
	.dbfile ./trabajo.h
_Fla1::
	.byte 0
	.dbsym e Fla1 _Fla1 c
	.area data(ram, con, rel)
	.dbfile ./trabajo.h
	.area data(ram, con, rel)
	.dbfile ./trabajo.h
_Fla2::
	.byte 0
	.dbsym e Fla2 _Fla2 c
	.area data(ram, con, rel)
	.dbfile ./trabajo.h
	.area data(ram, con, rel)
	.dbfile ./trabajo.h
_Fla3::
	.byte 0
	.dbsym e Fla3 _Fla3 c
	.area data(ram, con, rel)
	.dbfile ./trabajo.h
	.area data(ram, con, rel)
	.dbfile ./trabajo.h
_Fla4::
	.byte 0
	.dbsym e Fla4 _Fla4 c
	.area data(ram, con, rel)
	.dbfile ./trabajo.h
	.area data(ram, con, rel)
	.dbfile ./trabajo.h
_Int1_Tdisp::
	.byte 0
	.dbsym e Int1_Tdisp _Int1_Tdisp c
	.area data(ram, con, rel)
	.dbfile ./trabajo.h
	.area data(ram, con, rel)
	.dbfile ./trabajo.h
_Int1_Tdisp_Uni::
	.byte 0
	.dbsym e Int1_Tdisp_Uni _Int1_Tdisp_Uni c
	.area data(ram, con, rel)
	.dbfile ./trabajo.h
	.area data(ram, con, rel)
	.dbfile ./trabajo.h
_Int1_Ndisp::
	.byte 0
	.dbsym e Int1_Ndisp _Int1_Ndisp c
	.area data(ram, con, rel)
	.dbfile ./trabajo.h
	.area data(ram, con, rel)
	.dbfile ./trabajo.h
_Int2_Tdisp::
	.byte 0
	.dbsym e Int2_Tdisp _Int2_Tdisp c
	.area data(ram, con, rel)
	.dbfile ./trabajo.h
	.area data(ram, con, rel)
	.dbfile ./trabajo.h
_Int2_Tdisp_Uni::
	.byte 0
	.dbsym e Int2_Tdisp_Uni _Int2_Tdisp_Uni c
	.area data(ram, con, rel)
	.dbfile ./trabajo.h
	.area data(ram, con, rel)
	.dbfile ./trabajo.h
_Int2_Ndisp::
	.byte 0
	.dbsym e Int2_Ndisp _Int2_Ndisp c
	.area data(ram, con, rel)
	.dbfile ./trabajo.h
	.area data(ram, con, rel)
	.dbfile ./trabajo.h
_TL1_Treal::
	.byte 0
	.dbsym e TL1_Treal _TL1_Treal c
	.area data(ram, con, rel)
	.dbfile ./trabajo.h
	.area data(ram, con, rel)
	.dbfile ./trabajo.h
_TL1_Treal_Uni::
	.byte 0
	.dbsym e TL1_Treal_Uni _TL1_Treal_Uni c
	.area data(ram, con, rel)
	.dbfile ./trabajo.h
	.area data(ram, con, rel)
	.dbfile ./trabajo.h
_TL1_Tfilm::
	.byte 0
	.dbsym e TL1_Tfilm _TL1_Tfilm c
	.area data(ram, con, rel)
	.dbfile ./trabajo.h
	.area data(ram, con, rel)
	.dbfile ./trabajo.h
_TL1_Tfilm_Uni::
	.byte 0
	.dbsym e TL1_Tfilm_Uni _TL1_Tfilm_Uni c
	.area data(ram, con, rel)
	.dbfile ./trabajo.h
	.area data(ram, con, rel)
	.dbfile ./trabajo.h
_TL2_Treal::
	.byte 0
	.dbsym e TL2_Treal _TL2_Treal c
	.area data(ram, con, rel)
	.dbfile ./trabajo.h
	.area data(ram, con, rel)
	.dbfile ./trabajo.h
_TL2_Treal_Uni::
	.byte 0
	.dbsym e TL2_Treal_Uni _TL2_Treal_Uni c
	.area data(ram, con, rel)
	.dbfile ./trabajo.h
	.area data(ram, con, rel)
	.dbfile ./trabajo.h
_TL2_Tfilm::
	.byte 0
	.dbsym e TL2_Tfilm _TL2_Tfilm c
	.area data(ram, con, rel)
	.dbfile ./trabajo.h
	.area data(ram, con, rel)
	.dbfile ./trabajo.h
_TL2_Tfilm_Uni::
	.byte 0
	.dbsym e TL2_Tfilm_Uni _TL2_Tfilm_Uni c
	.area data(ram, con, rel)
	.dbfile ./trabajo.h
	.area text(rom, con, rel)
	.dbfile ./trabajo.h
	.dbfunc e Inicializacion _Inicializacion fV
_Inicializacion::
	.dbline -1
	.dbline 56
; //----------------------------------------------------------------//
; //     Proyecto de GS Desarrollo Productos Electronicos EPSS	  //
; //                   By Albert Sagol & Xavi Vicient			      //
; //                 PhotoSoC - Controlador fotográfico		  	  //
; //----------------------------------------------------------------//
; //              Programa principal del PSoC de trabajo			  //
; //----------------------------------------------------------------//
; 
; 
; #include <m8c.h>        		// part specific constants and macros
; #include "PSoCAPI.h"   	 		// PSoC API definitions for all User Modules
; #include "stdlib.h"
; #include "trabajo.h"			// Libreria creada por Albert y Xavi para el proyecto
; #include "comunicaciones.h" 	// Libreria de comunicaciones creada por Albert y Xavi para el proyecto
; 
; 
; //Prototipos
; void numero_a_LCD (int f_numero);
; 
; //Funciones usuario
; void numero_a_LCD (int f_numero)
; {
; 	char f_num[5],f_i,f_k;
; 	int f_division,f_mod,f_j;
; 	
; 	f_i=0;
; 	f_j=1000;
; 	f_mod=f_numero;
; 
; 	for (f_k=0;f_k<4;f_k++)
; 	{
; 		f_division=f_mod/f_j;	
; 		f_mod=f_mod%f_j;		
; 		
; 		if (f_division>0)
; 			{
; 				f_num[f_i]=f_division+48;
; 				f_i++;
; 			}
; 		if (f_division==0 && f_i>0)
; 			{
; 				f_num[f_i]=48;
; 				f_i++;
; 			}
; 		f_j=f_j/10;
; 	}
; 	
; 	f_num[f_i]=0;
; 	
; 	LCD_PrString (f_num);
; 	
; }
; 
; 
; void main()
; {	
	.dbline 58
; 	unsigned int temp1;
; 	
	push X
	mov A,-100
	xcall _Timer8_WritePeriod
	.dbline 59
; 	Inicializacion ();
	mov A,78
	xcall _Timer8_WriteCompareValue
	.dbline 60
; 		
	xcall _Timer8_Start
	.dbline 63
; 	LCD_Control(0x01);
; 	LCD_PrCString ("Recibiendo");	
; 	for (temp1=0;temp1<50000;temp1++);
	mov A,0
	xcall _UART_Start
	.dbline 66
; 	LCD_Control(0x01);
; 	
; 	Cam1=recibe();
	xcall _LCD_Start
	.dbline 67
; 	Cam2=recibe();
	xcall _LCD_Init
	.dbline 69
; 	Ent1=recibe();
; 	Ent2=recibe();
	mov X,39
	mov A,16
	xcall _Segundos_WritePeriod
	.dbline 70
; 	Ent3=recibe();
	mov A,0
	mov X,A
	xcall _Segundos_WriteCompareValue
	.dbline 71
; 	Ent4=recibe();
	xcall _Segundos_Start
	pop X
	.dbline -2
	.dbline 72
; 	Fla1=recibe();
L1:
	.dbline 0 ; func end
	ret
	.dbend
	.dbfile ./comunicaciones.h
	.dbfunc e envia _envia fV
;   envia_recibe -> X+2
; envia_contador -> X+1
; envia_confirmacion -> X+0
;     envia_dato -> X-4
_envia::
	.dbline -1
	push X
	mov X,SP
	add SP,3
	.dbline 19
	.dbline 22
	mov [X+0],0
	.dbline 23
	mov [X+1],0
	xjmp L4
L3:
	.dbline 26
	.dbline 27
	push X
	mov A,[X-4]
	xcall _UART_PutChar
	.dbline 28
	xcall _UART_cGetChar
	mov REG[0xd0],>__r0
	pop X
	mov [X+2],A
	.dbline 30
	mov A,[X+2]
	cmp A,[X-4]
	jnz L6
	.dbline 30
	mov [X+0],79
L6:
	.dbline 31
	push X
	mov A,[X+0]
	xcall _UART_PutChar
	pop X
	.dbline 32
	mov A,[X+1]
	mov REG[0xd0],>__r0
	mov [__r0],A
	add A,1
	mov [X+1],A
	mov A,[__r0]
	mov [X+1],A
	.dbline 33
	cmp [X+1],10
	jnz L8
	.dbline 33
	mov [X+0],1
L8:
	.dbline 34
L4:
	.dbline 25
	cmp [X+0],0
	jz L3
	.dbline -2
	.dbline 35
L2:
	add SP,-3
	pop X
	.dbline 0 ; func end
	ret
	.dbsym l envia_recibe 2 c
	.dbsym l envia_contador 1 c
	.dbsym l envia_confirmacion 0 c
	.dbsym l envia_dato -4 c
	.dbend
	.dbfunc e recibe _recibe fc
;    recibe_dato -> X+2
; recibe_contador -> X+1
; recibe_confirmacion -> X+0
_recibe::
	.dbline -1
	push X
	mov X,SP
	add SP,3
	.dbline 50
	.dbline 53
	mov [X+0],0
	.dbline 54
	mov [X+1],0
	xjmp L12
L11:
	.dbline 57
	.dbline 58
	push X
	xcall _UART_cGetChar
	mov REG[0xd0],>__r0
	pop X
	mov [X+2],A
	.dbline 59
	push X
	mov A,[X+2]
	xcall _UART_PutChar
	.dbline 61
	xcall _UART_cGetChar
	mov REG[0xd0],>__r0
	pop X
	mov [X+0],A
	.dbline 62
	cmp [X+0],79
	jnz L14
	.dbline 63
	mov A,[X+2]
	xjmp L10
L14:
	.dbline 64
	mov A,[X+1]
	mov REG[0xd0],>__r0
	mov [__r0],A
	add A,1
	mov [X+1],A
	mov A,[__r0]
	mov [X+1],A
	.dbline 65
	cmp [X+1],10
	jnz L16
	.dbline 65
	mov [X+0],1
L16:
	.dbline 66
L12:
	.dbline 56
	cmp [X+0],0
	jz L11
	.dbline 67
	mov REG[0xd0],>__r0
	mov A,-1
	.dbline -2
L10:
	add SP,-3
	pop X
	.dbline 0 ; func end
	ret
	.dbsym l recibe_dato 2 c
	.dbsym l recibe_contador 1 c
	.dbsym l recibe_confirmacion 0 c
	.dbend
	.dbfile ./main.c
	.dbfunc e numero_a_LCD _numero_a_LCD fV
;          f_num -> X+8
;            f_k -> X+7
;          f_mod -> X+5
;            f_i -> X+4
;     f_division -> X+2
;            f_j -> X+0
;       f_numero -> X-5
_numero_a_LCD::
	.dbline -1
	push X
	mov X,SP
	add SP,13
	.dbline 22
	.dbline 26
	mov [X+4],0
	.dbline 27
	mov [X+1],-24
	mov [X+0],3
	.dbline 28
	mov A,[X-4]
	mov [X+6],A
	mov A,[X-5]
	mov [X+5],A
	.dbline 30
	mov [X+7],0
	xjmp L22
L19:
	.dbline 31
	.dbline 32
	mov A,[X+0]
	push A
	mov A,[X+1]
	push A
	mov A,[X+5]
	push A
	mov A,[X+6]
	push A
	mov REG[0xd0],>__r0
	xcall __divmod_16X16_16
	pop A
	mov [X+3],A
	pop A
	mov [X+2],A
	add SP,-2
	.dbline 33
	mov A,[X+0]
	push A
	mov A,[X+1]
	push A
	mov A,[X+5]
	push A
	mov A,[X+6]
	push A
	xcall __divmod_16X16_16
	add SP,-2
	pop A
	mov [X+6],A
	pop A
	mov [X+5],A
	.dbline 35
	mov A,0
	sub A,[X+3]
	mov A,[X+2]
	xor A,-128
	mov [__rX],A
	mov A,(0 ^ 0x80)
	sbb A,[__rX]
	jnc L23
X0:
	.dbline 36
	.dbline 37
	mov REG[0xd0],>__r0
	mov A,[X+3]
	add A,48
	mov [__r0],A
	mov [__r2],7
	mov [__r3],X
	add [__r3],8
	mov A,[X+4]
	add A,[__r3]
	mov [__r3],A
	mov A,0
	adc A,[__r2]
	mov REG[0xd5],A
	mov A,[__r0]
	mvi [__r3],A
	.dbline 38
	inc [X+4]
	.dbline 39
L23:
	.dbline 40
	cmp [X+2],0
	jnz L25
	cmp [X+3],0
	jnz L25
X1:
	mov A,0
	cmp A,[X+4]
	jnc L25
X2:
	.dbline 41
	.dbline 42
	mov REG[0xd0],>__r0
	mov [__r0],7
	mov [__r1],X
	add [__r1],8
	mov A,[X+4]
	add A,[__r1]
	mov [__r1],A
	mov A,0
	adc A,[__r0]
	mov REG[0xd5],A
	mov A,48
	mvi [__r1],A
	.dbline 43
	inc [X+4]
	.dbline 44
L25:
	.dbline 45
	mov A,0
	push A
	mov A,10
	push A
	mov A,[X+0]
	push A
	mov A,[X+1]
	push A
	mov REG[0xd0],>__r0
	xcall __divmod_16X16_16
	pop A
	mov [X+1],A
	pop A
	mov [X+0],A
	add SP,-2
	.dbline 46
L20:
	.dbline 30
	inc [X+7]
L22:
	.dbline 30
	cmp [X+7],4
	jc L19
X3:
	.dbline 48
	mov REG[0xd0],>__r0
	mov [__r0],7
	mov [__r1],X
	add [__r1],8
	mov A,[X+4]
	add A,[__r1]
	mov [__r1],A
	mov A,0
	adc A,[__r0]
	mov REG[0xd5],A
	mov A,0
	mvi [__r1],A
	.dbline 50
	mov [__r1],X
	add [__r1],8
	push X
	mov A,7
	push A
	mov A,[__r1]
	mov X,A
	pop A
	xcall _LCD_PrString
	pop X
	.dbline -2
	.dbline 52
L18:
	add SP,-13
	pop X
	.dbline 0 ; func end
	ret
	.dbsym l f_num 8 A[5:5]c
	.dbsym l f_k 7 c
	.dbsym l f_mod 5 I
	.dbsym l f_i 4 c
	.dbsym l f_division 2 I
	.dbsym l f_j 0 I
	.dbsym l f_numero -5 I
	.dbend
	.dbfunc e main _main fV
;          temp1 -> X+0
_main::
	.dbline -1
	push X
	mov X,SP
	add SP,2
	.dbline 56
	.dbline 59
	xcall _Inicializacion
	.dbline 61
	push X
	mov A,1
	xcall _LCD_Control
	.dbline 62
	mov A,>L28
	push A
	mov A,<L28
	mov X,A
	pop A
	xcall _LCD_PrCString
	pop X
	.dbline 63
	mov [X+1],0
	mov [X+0],0
	xjmp L32
L29:
	.dbline 63
L30:
	.dbline 63
	inc [X+1]
	adc [X+0],0
L32:
	.dbline 63
	mov REG[0xd0],>__r0
	mov A,[X+1]
	mov [__r3],A
	mov A,[X+0]
	mov [__r2],A
	mov A,[__r3]
	sub A,80
	mov A,[__r2]
	sbb A,-61
	mov A,0
	sbb A,0
	mov A,0
	xor A,-128
	sbb A,(0 ^ 0x80)
	jc L29
X4:
	.dbline 64
	push X
	mov A,1
	xcall _LCD_Control
	pop X
	.dbline 66
	xcall _recibe
	mov REG[0xd0],>_Cam1
	mov [_Cam1],A
	.dbline 67
	xcall _recibe
	mov REG[0xd0],>_Cam2
	mov [_Cam2],A
	.dbline 68
	xcall _recibe
	mov REG[0xd0],>_Ent1
	mov [_Ent1],A
	.dbline 69
	xcall _recibe
	mov REG[0xd0],>_Ent2
	mov [_Ent2],A
	.dbline 70
	xcall _recibe
	mov REG[0xd0],>_Ent3
	mov [_Ent3],A
	.dbline 71
	xcall _recibe
	mov REG[0xd0],>_Ent4
	mov [_Ent4],A
	.dbline 72
	xcall _recibe
	mov REG[0xd0],>_Fla1
	mov [_Fla1],A
	.dbline 73
; 	Fla2=recibe();
	xcall _recibe
	mov REG[0xd0],>_Fla2
	mov [_Fla2],A
	.dbline 74
; 	Fla3=recibe();
	xcall _recibe
	mov REG[0xd0],>_Fla3
	mov [_Fla3],A
	.dbline 75
; 	Fla4=recibe();
	xcall _recibe
	mov REG[0xd0],>_Fla4
	mov [_Fla4],A
	.dbline 77
; 	
; 	if (Cam1==2)	//Intervalometro camara 1
	mov REG[0xd0],>_Cam1
	cmp [_Cam1],2
	jnz L33
	.dbline 78
; 	Int1_Tdisp=recibe();
	xcall _recibe
	mov REG[0xd0],>_Int1_Tdisp
	mov [_Int1_Tdisp],A
L33:
	.dbline 79
; 	Int1_Tdisp_Uni=recibe();
	xcall _recibe
	mov REG[0xd0],>_Int1_Tdisp_Uni
	mov [_Int1_Tdisp_Uni],A
	.dbline 80
; 	Int1_Ndisp=recibe();
	xcall _recibe
	mov REG[0xd0],>_Int1_Ndisp
	mov [_Int1_Ndisp],A
	.dbline 82
; 		
; 	if (Cam2==2)	//Intervalometro camara 2
	mov REG[0xd0],>_Cam2
	cmp [_Cam2],2
	jnz L35
	.dbline 83
; 	Int2_Tdisp=recibe();
	xcall _recibe
	mov REG[0xd0],>_Int2_Tdisp
	mov [_Int2_Tdisp],A
L35:
	.dbline 84
; 	Int2_Tdisp_Uni=recibe();
	xcall _recibe
	mov REG[0xd0],>_Int2_Tdisp_Uni
	mov [_Int2_Tdisp_Uni],A
	.dbline 85
; 	Int2_Ndisp=recibe();
	xcall _recibe
	mov REG[0xd0],>_Int2_Ndisp
	mov [_Int2_Ndisp],A
	.dbline 87
; 	
; 	if (Cam1==3)	//Time-lapse camara 1
	mov REG[0xd0],>_Cam1
	cmp [_Cam1],3
	jnz L37
	.dbline 88
; 	TL1_Treal=recibe();
	xcall _recibe
	mov REG[0xd0],>_TL1_Treal
	mov [_TL1_Treal],A
L37:
	.dbline 89
; 	TL1_Treal_Uni=recibe();
	xcall _recibe
	mov REG[0xd0],>_TL1_Treal_Uni
	mov [_TL1_Treal_Uni],A
	.dbline 90
; 	TL1_Tfilm=recibe();
	xcall _recibe
	mov REG[0xd0],>_TL1_Tfilm
	mov [_TL1_Tfilm],A
	.dbline 91
; 	TL1_Tfilm_Uni=recibe();
	xcall _recibe
	mov REG[0xd0],>_TL1_Tfilm_Uni
	mov [_TL1_Tfilm_Uni],A
	.dbline 93
; 	
; 	if (Cam2==3)	//Time-lapse camara 2
	mov REG[0xd0],>_Cam2
	cmp [_Cam2],3
	jnz L39
	.dbline 94
; 	TL2_Treal=recibe();
	xcall _recibe
	mov REG[0xd0],>_TL2_Treal
	mov [_TL2_Treal],A
L39:
	.dbline 95
; 	TL2_Treal_Uni=recibe();
	xcall _recibe
	mov REG[0xd0],>_TL2_Treal_Uni
	mov [_TL2_Treal_Uni],A
	.dbline 96
; 	TL2_Tfilm=recibe();
	xcall _recibe
	mov REG[0xd0],>_TL2_Tfilm
	mov [_TL2_Tfilm],A
	.dbline 97
; 	TL2_Tfilm_Uni=recibe();
	xcall _recibe
	mov REG[0xd0],>_TL2_Tfilm_Uni
	mov [_TL2_Tfilm_Uni],A
	.dbline 100
; 	
; 	//Envio al LCD	
; 		LCD_Control(0x01);
	push X
	mov A,1
	xcall _LCD_Control
	.dbline 101
; 		LCD_PrCString ("Cam1");	
	mov A,>L41
	push A
	mov A,<L41
	mov X,A
	pop A
	xcall _LCD_PrCString
	pop X
	.dbline 102
	mov [X+1],0
	mov [X+0],0
	xjmp L45
L42:
	.dbline 102
L43:
	.dbline 102
	inc [X+1]
	adc [X+0],0
L45:
	.dbline 102
; 		for (temp1=0;temp1<50000;temp1++);
	mov REG[0xd0],>__r0
	mov A,[X+1]
	mov [__r3],A
	mov A,[X+0]
	mov [__r2],A
	mov A,[__r3]
	sub A,80
	mov A,[__r2]
	sbb A,-61
	mov A,0
	sbb A,0
	mov A,0
	xor A,-128
	sbb A,(0 ^ 0x80)
	jc L42
X5:
	.dbline 103
; 		LCD_Control(0x01);
	push X
	mov A,1
	xcall _LCD_Control
	pop X
	.dbline 104
; 		numero_a_LCD(Cam1);		
	mov REG[0xd0],>_Cam1
	mov A,[_Cam1]
	mov REG[0xd0],>__r0
	mov [__r1],A
	mov A,0
	push A
	mov A,[__r1]
	push A
	xcall _numero_a_LCD
	add SP,-2
	.dbline 105
	mov [X+1],0
	mov [X+0],0
	xjmp L49
L46:
	.dbline 105
L47:
	.dbline 105
	inc [X+1]
	adc [X+0],0
L49:
	.dbline 105
; 		for (temp1=0;temp1<50000;temp1++);
	mov REG[0xd0],>__r0
	mov A,[X+1]
	mov [__r3],A
	mov A,[X+0]
	mov [__r2],A
	mov A,[__r3]
	sub A,80
	mov A,[__r2]
	sbb A,-61
	mov A,0
	sbb A,0
	mov A,0
	xor A,-128
	sbb A,(0 ^ 0x80)
	jc L46
X6:
	.dbline 106
; 		LCD_Control(0x01);
	push X
	mov A,1
	xcall _LCD_Control
	.dbline 107
; 		LCD_PrCString ("Cam2");	
	mov A,>L50
	push A
	mov A,<L50
	mov X,A
	pop A
	xcall _LCD_PrCString
	pop X
	.dbline 108
	mov [X+1],0
	mov [X+0],0
	xjmp L54
L51:
	.dbline 108
L52:
	.dbline 108
	inc [X+1]
	adc [X+0],0
L54:
	.dbline 108
; 		for (temp1=0;temp1<50000;temp1++);
	mov REG[0xd0],>__r0
	mov A,[X+1]
	mov [__r3],A
	mov A,[X+0]
	mov [__r2],A
	mov A,[__r3]
	sub A,80
	mov A,[__r2]
	sbb A,-61
	mov A,0
	sbb A,0
	mov A,0
	xor A,-128
	sbb A,(0 ^ 0x80)
	jc L51
X7:
	.dbline 109
; 		LCD_Control(0x01);
	push X
	mov A,1
	xcall _LCD_Control
	pop X
	.dbline 110
; 		numero_a_LCD(Cam2);		
	mov REG[0xd0],>_Cam2
	mov A,[_Cam2]
	mov REG[0xd0],>__r0
	mov [__r1],A
	mov A,0
	push A
	mov A,[__r1]
	push A
	xcall _numero_a_LCD
	add SP,-2
	.dbline 111
	mov [X+1],0
	mov [X+0],0
	xjmp L58
L55:
	.dbline 111
L56:
	.dbline 111
	inc [X+1]
	adc [X+0],0
L58:
	.dbline 111
; 		for (temp1=0;temp1<50000;temp1++);
	mov REG[0xd0],>__r0
	mov A,[X+1]
	mov [__r3],A
	mov A,[X+0]
	mov [__r2],A
	mov A,[__r3]
	sub A,80
	mov A,[__r2]
	sbb A,-61
	mov A,0
	sbb A,0
	mov A,0
	xor A,-128
	sbb A,(0 ^ 0x80)
	jc L55
X8:
	.dbline 113
; 		
; 		LCD_Control(0x01);
	push X
	mov A,1
	xcall _LCD_Control
	.dbline 114
; 		LCD_PrCString ("Ent1");	
	mov A,>L59
	push A
	mov A,<L59
	mov X,A
	pop A
	xcall _LCD_PrCString
	pop X
	.dbline 115
	mov [X+1],0
	mov [X+0],0
	xjmp L63
L60:
	.dbline 115
L61:
	.dbline 115
	inc [X+1]
	adc [X+0],0
L63:
	.dbline 115
; 		for (temp1=0;temp1<50000;temp1++);
	mov REG[0xd0],>__r0
	mov A,[X+1]
	mov [__r3],A
	mov A,[X+0]
	mov [__r2],A
	mov A,[__r3]
	sub A,80
	mov A,[__r2]
	sbb A,-61
	mov A,0
	sbb A,0
	mov A,0
	xor A,-128
	sbb A,(0 ^ 0x80)
	jc L60
X9:
	.dbline 116
; 		LCD_Control(0x01);
	push X
	mov A,1
	xcall _LCD_Control
	pop X
	.dbline 117
; 		numero_a_LCD(Ent1);		
	mov REG[0xd0],>_Ent1
	mov A,[_Ent1]
	mov REG[0xd0],>__r0
	mov [__r1],A
	mov A,0
	push A
	mov A,[__r1]
	push A
	xcall _numero_a_LCD
	add SP,-2
	.dbline 118
	mov [X+1],0
	mov [X+0],0
	xjmp L67
L64:
	.dbline 118
L65:
	.dbline 118
	inc [X+1]
	adc [X+0],0
L67:
	.dbline 118
; 		for (temp1=0;temp1<50000;temp1++);
	mov REG[0xd0],>__r0
	mov A,[X+1]
	mov [__r3],A
	mov A,[X+0]
	mov [__r2],A
	mov A,[__r3]
	sub A,80
	mov A,[__r2]
	sbb A,-61
	mov A,0
	sbb A,0
	mov A,0
	xor A,-128
	sbb A,(0 ^ 0x80)
	jc L64
X10:
	.dbline 119
; 		LCD_Control(0x01);
	push X
	mov A,1
	xcall _LCD_Control
	.dbline 120
; 		LCD_PrCString ("Ent2");	
	mov A,>L68
	push A
	mov A,<L68
	mov X,A
	pop A
	xcall _LCD_PrCString
	pop X
	.dbline 121
	mov [X+1],0
	mov [X+0],0
	xjmp L72
L69:
	.dbline 121
L70:
	.dbline 121
	inc [X+1]
	adc [X+0],0
L72:
	.dbline 121
; 		for (temp1=0;temp1<50000;temp1++);
	mov REG[0xd0],>__r0
	mov A,[X+1]
	mov [__r3],A
	mov A,[X+0]
	mov [__r2],A
	mov A,[__r3]
	sub A,80
	mov A,[__r2]
	sbb A,-61
	mov A,0
	sbb A,0
	mov A,0
	xor A,-128
	sbb A,(0 ^ 0x80)
	jc L69
X11:
	.dbline 122
; 		LCD_Control(0x01);
	push X
	mov A,1
	xcall _LCD_Control
	pop X
	.dbline 123
; 		numero_a_LCD(Ent2);		
	mov REG[0xd0],>_Ent2
	mov A,[_Ent2]
	mov REG[0xd0],>__r0
	mov [__r1],A
	mov A,0
	push A
	mov A,[__r1]
	push A
	xcall _numero_a_LCD
	add SP,-2
	.dbline 124
	mov [X+1],0
	mov [X+0],0
	xjmp L76
L73:
	.dbline 124
L74:
	.dbline 124
	inc [X+1]
	adc [X+0],0
L76:
	.dbline 124
; 		for (temp1=0;temp1<50000;temp1++);
	mov REG[0xd0],>__r0
	mov A,[X+1]
	mov [__r3],A
	mov A,[X+0]
	mov [__r2],A
	mov A,[__r3]
	sub A,80
	mov A,[__r2]
	sbb A,-61
	mov A,0
	sbb A,0
	mov A,0
	xor A,-128
	sbb A,(0 ^ 0x80)
	jc L73
X12:
	.dbline 125
; 		LCD_Control(0x01);
	push X
	mov A,1
	xcall _LCD_Control
	.dbline 126
; 		LCD_PrCString ("Ent3");	
	mov A,>L77
	push A
	mov A,<L77
	mov X,A
	pop A
	xcall _LCD_PrCString
	pop X
	.dbline 127
	mov [X+1],0
	mov [X+0],0
	xjmp L81
L78:
	.dbline 127
L79:
	.dbline 127
	inc [X+1]
	adc [X+0],0
L81:
	.dbline 127
; 		for (temp1=0;temp1<50000;temp1++);
	mov REG[0xd0],>__r0
	mov A,[X+1]
	mov [__r3],A
	mov A,[X+0]
	mov [__r2],A
	mov A,[__r3]
	sub A,80
	mov A,[__r2]
	sbb A,-61
	mov A,0
	sbb A,0
	mov A,0
	xor A,-128
	sbb A,(0 ^ 0x80)
	jc L78
X13:
	.dbline 128
; 		LCD_Control(0x01);
	push X
	mov A,1
	xcall _LCD_Control
	pop X
	.dbline 129
; 		numero_a_LCD(Ent3);		
	mov REG[0xd0],>_Ent3
	mov A,[_Ent3]
	mov REG[0xd0],>__r0
	mov [__r1],A
	mov A,0
	push A
	mov A,[__r1]
	push A
	xcall _numero_a_LCD
	add SP,-2
	.dbline 130
	mov [X+1],0
	mov [X+0],0
	xjmp L85
L82:
	.dbline 130
L83:
	.dbline 130
	inc [X+1]
	adc [X+0],0
L85:
	.dbline 130
; 		for (temp1=0;temp1<50000;temp1++);
	mov REG[0xd0],>__r0
	mov A,[X+1]
	mov [__r3],A
	mov A,[X+0]
	mov [__r2],A
	mov A,[__r3]
	sub A,80
	mov A,[__r2]
	sbb A,-61
	mov A,0
	sbb A,0
	mov A,0
	xor A,-128
	sbb A,(0 ^ 0x80)
	jc L82
X14:
	.dbline 131
; 		LCD_Control(0x01);
	push X
	mov A,1
	xcall _LCD_Control
	.dbline 132
; 		LCD_PrCString ("Ent4");	
	mov A,>L86
	push A
	mov A,<L86
	mov X,A
	pop A
	xcall _LCD_PrCString
	pop X
	.dbline 133
	mov [X+1],0
	mov [X+0],0
	xjmp L90
L87:
	.dbline 133
L88:
	.dbline 133
	inc [X+1]
	adc [X+0],0
L90:
	.dbline 133
; 		for (temp1=0;temp1<50000;temp1++);
	mov REG[0xd0],>__r0
	mov A,[X+1]
	mov [__r3],A
	mov A,[X+0]
	mov [__r2],A
	mov A,[__r3]
	sub A,80
	mov A,[__r2]
	sbb A,-61
	mov A,0
	sbb A,0
	mov A,0
	xor A,-128
	sbb A,(0 ^ 0x80)
	jc L87
X15:
	.dbline 134
; 		LCD_Control(0x01);
	push X
	mov A,1
	xcall _LCD_Control
	pop X
	.dbline 135
; 		numero_a_LCD(Ent4);		
	mov REG[0xd0],>_Ent4
	mov A,[_Ent4]
	mov REG[0xd0],>__r0
	mov [__r1],A
	mov A,0
	push A
	mov A,[__r1]
	push A
	xcall _numero_a_LCD
	add SP,-2
	.dbline 136
	mov [X+1],0
	mov [X+0],0
	xjmp L94
L91:
	.dbline 136
L92:
	.dbline 136
	inc [X+1]
	adc [X+0],0
L94:
	.dbline 136
; 		for (temp1=0;temp1<50000;temp1++);
	mov REG[0xd0],>__r0
	mov A,[X+1]
	mov [__r3],A
	mov A,[X+0]
	mov [__r2],A
	mov A,[__r3]
	sub A,80
	mov A,[__r2]
	sbb A,-61
	mov A,0
	sbb A,0
	mov A,0
	xor A,-128
	sbb A,(0 ^ 0x80)
	jc L91
X16:
	.dbline 138
; 		
; 		LCD_Control(0x01);
	push X
	mov A,1
	xcall _LCD_Control
	.dbline 139
; 		LCD_PrCString ("Fla1");	
	mov A,>L95
	push A
	mov A,<L95
	mov X,A
	pop A
	xcall _LCD_PrCString
	pop X
	.dbline 140
	mov [X+1],0
	mov [X+0],0
	xjmp L99
L96:
	.dbline 140
L97:
	.dbline 140
	inc [X+1]
	adc [X+0],0
L99:
	.dbline 140
; 		for (temp1=0;temp1<50000;temp1++);
	mov REG[0xd0],>__r0
	mov A,[X+1]
	mov [__r3],A
	mov A,[X+0]
	mov [__r2],A
	mov A,[__r3]
	sub A,80
	mov A,[__r2]
	sbb A,-61
	mov A,0
	sbb A,0
	mov A,0
	xor A,-128
	sbb A,(0 ^ 0x80)
	jc L96
X17:
	.dbline 141
; 		LCD_Control(0x01);
	push X
	mov A,1
	xcall _LCD_Control
	pop X
	.dbline 142
; 		numero_a_LCD(Fla1);		
	mov REG[0xd0],>_Fla1
	mov A,[_Fla1]
	mov REG[0xd0],>__r0
	mov [__r1],A
	mov A,0
	push A
	mov A,[__r1]
	push A
	xcall _numero_a_LCD
	add SP,-2
	.dbline 143
	mov [X+1],0
	mov [X+0],0
	xjmp L103
L100:
	.dbline 143
L101:
	.dbline 143
	inc [X+1]
	adc [X+0],0
L103:
	.dbline 143
; 		for (temp1=0;temp1<50000;temp1++);
	mov REG[0xd0],>__r0
	mov A,[X+1]
	mov [__r3],A
	mov A,[X+0]
	mov [__r2],A
	mov A,[__r3]
	sub A,80
	mov A,[__r2]
	sbb A,-61
	mov A,0
	sbb A,0
	mov A,0
	xor A,-128
	sbb A,(0 ^ 0x80)
	jc L100
X18:
	.dbline 144
; 		LCD_Control(0x01);
	push X
	mov A,1
	xcall _LCD_Control
	.dbline 145
; 		LCD_PrCString ("Fla2");	
	mov A,>L104
	push A
	mov A,<L104
	mov X,A
	pop A
	xcall _LCD_PrCString
	pop X
	.dbline 146
	mov [X+1],0
	mov [X+0],0
	xjmp L108
L105:
	.dbline 146
L106:
	.dbline 146
	inc [X+1]
	adc [X+0],0
L108:
	.dbline 146
; 		for (temp1=0;temp1<50000;temp1++);
	mov REG[0xd0],>__r0
	mov A,[X+1]
	mov [__r3],A
	mov A,[X+0]
	mov [__r2],A
	mov A,[__r3]
	sub A,80
	mov A,[__r2]
	sbb A,-61
	mov A,0
	sbb A,0
	mov A,0
	xor A,-128
	sbb A,(0 ^ 0x80)
	jc L105
X19:
	.dbline 147
; 		LCD_Control(0x01);
	push X
	mov A,1
	xcall _LCD_Control
	pop X
	.dbline 148
; 		numero_a_LCD(Fla2);		
	mov REG[0xd0],>_Fla2
	mov A,[_Fla2]
	mov REG[0xd0],>__r0
	mov [__r1],A
	mov A,0
	push A
	mov A,[__r1]
	push A
	xcall _numero_a_LCD
	add SP,-2
	.dbline 149
	mov [X+1],0
	mov [X+0],0
	xjmp L112
L109:
	.dbline 149
L110:
	.dbline 149
	inc [X+1]
	adc [X+0],0
L112:
	.dbline 149
; 		for (temp1=0;temp1<50000;temp1++);
	mov REG[0xd0],>__r0
	mov A,[X+1]
	mov [__r3],A
	mov A,[X+0]
	mov [__r2],A
	mov A,[__r3]
	sub A,80
	mov A,[__r2]
	sbb A,-61
	mov A,0
	sbb A,0
	mov A,0
	xor A,-128
	sbb A,(0 ^ 0x80)
	jc L109
X20:
	.dbline 150
; 		LCD_Control(0x01);
	push X
	mov A,1
	xcall _LCD_Control
	.dbline 151
; 		LCD_PrCString ("Fla3");	
	mov A,>L113
	push A
	mov A,<L113
	mov X,A
	pop A
	xcall _LCD_PrCString
	pop X
	.dbline 152
	mov [X+1],0
	mov [X+0],0
	xjmp L117
L114:
	.dbline 152
L115:
	.dbline 152
	inc [X+1]
	adc [X+0],0
L117:
	.dbline 152
; 		for (temp1=0;temp1<50000;temp1++);
	mov REG[0xd0],>__r0
	mov A,[X+1]
	mov [__r3],A
	mov A,[X+0]
	mov [__r2],A
	mov A,[__r3]
	sub A,80
	mov A,[__r2]
	sbb A,-61
	mov A,0
	sbb A,0
	mov A,0
	xor A,-128
	sbb A,(0 ^ 0x80)
	jc L114
X21:
	.dbline 153
; 		LCD_Control(0x01);
	push X
	mov A,1
	xcall _LCD_Control
	pop X
	.dbline 154
; 		numero_a_LCD(Fla3);		
	mov REG[0xd0],>_Fla3
	mov A,[_Fla3]
	mov REG[0xd0],>__r0
	mov [__r1],A
	mov A,0
	push A
	mov A,[__r1]
	push A
	xcall _numero_a_LCD
	add SP,-2
	.dbline 155
	mov [X+1],0
	mov [X+0],0
	xjmp L121
L118:
	.dbline 155
L119:
	.dbline 155
	inc [X+1]
	adc [X+0],0
L121:
	.dbline 155
; 		for (temp1=0;temp1<50000;temp1++);
	mov REG[0xd0],>__r0
	mov A,[X+1]
	mov [__r3],A
	mov A,[X+0]
	mov [__r2],A
	mov A,[__r3]
	sub A,80
	mov A,[__r2]
	sbb A,-61
	mov A,0
	sbb A,0
	mov A,0
	xor A,-128
	sbb A,(0 ^ 0x80)
	jc L118
X22:
	.dbline 156
; 		LCD_Control(0x01);
	push X
	mov A,1
	xcall _LCD_Control
	.dbline 157
; 		LCD_PrCString ("Fla4");	
	mov A,>L122
	push A
	mov A,<L122
	mov X,A
	pop A
	xcall _LCD_PrCString
	pop X
	.dbline 158
	mov [X+1],0
	mov [X+0],0
	xjmp L126
L123:
	.dbline 158
L124:
	.dbline 158
	inc [X+1]
	adc [X+0],0
L126:
	.dbline 158
; 		for (temp1=0;temp1<50000;temp1++);
	mov REG[0xd0],>__r0
	mov A,[X+1]
	mov [__r3],A
	mov A,[X+0]
	mov [__r2],A
	mov A,[__r3]
	sub A,80
	mov A,[__r2]
	sbb A,-61
	mov A,0
	sbb A,0
	mov A,0
	xor A,-128
	sbb A,(0 ^ 0x80)
	jc L123
X23:
	.dbline 159
; 		LCD_Control(0x01);
	push X
	mov A,1
	xcall _LCD_Control
	pop X
	.dbline 160
; 		numero_a_LCD(Fla4);		
	mov REG[0xd0],>_Fla4
	mov A,[_Fla4]
	mov REG[0xd0],>__r0
	mov [__r1],A
	mov A,0
	push A
	mov A,[__r1]
	push A
	xcall _numero_a_LCD
	add SP,-2
	.dbline 161
	mov [X+1],0
	mov [X+0],0
	xjmp L130
L127:
	.dbline 161
L128:
	.dbline 161
	inc [X+1]
	adc [X+0],0
L130:
	.dbline 161
; 		for (temp1=0;temp1<50000;temp1++);
	mov REG[0xd0],>__r0
	mov A,[X+1]
	mov [__r3],A
	mov A,[X+0]
	mov [__r2],A
	mov A,[__r3]
	sub A,80
	mov A,[__r2]
	sbb A,-61
	mov A,0
	sbb A,0
	mov A,0
	xor A,-128
	sbb A,(0 ^ 0x80)
	jc L127
X24:
	.dbline 163
; 		
; 		if (Cam1==2)	//Intervalometro camara 1
	mov REG[0xd0],>_Cam1
	cmp [_Cam1],2
	jnz L131
	.dbline 164
; 		LCD_Control(0x01);
	push X
	mov A,1
	xcall _LCD_Control
	pop X
L131:
	.dbline 165
; 		LCD_PrCString ("Int1_Tdisp");	
	push X
	mov A,>L133
	push A
	mov A,<L133
	mov X,A
	pop A
	xcall _LCD_PrCString
	pop X
	.dbline 166
	mov [X+1],0
	mov [X+0],0
	xjmp L137
L134:
	.dbline 166
L135:
	.dbline 166
	inc [X+1]
	adc [X+0],0
L137:
	.dbline 166
; 		for (temp1=0;temp1<50000;temp1++);
	mov REG[0xd0],>__r0
	mov A,[X+1]
	mov [__r3],A
	mov A,[X+0]
	mov [__r2],A
	mov A,[__r3]
	sub A,80
	mov A,[__r2]
	sbb A,-61
	mov A,0
	sbb A,0
	mov A,0
	xor A,-128
	sbb A,(0 ^ 0x80)
	jc L134
X25:
	.dbline 167
; 		LCD_Control(0x01);
	push X
	mov A,1
	xcall _LCD_Control
	pop X
	.dbline 168
; 		numero_a_LCD(Int1_Tdisp);		
	mov REG[0xd0],>_Int1_Tdisp
	mov A,[_Int1_Tdisp]
	mov REG[0xd0],>__r0
	mov [__r1],A
	mov A,0
	push A
	mov A,[__r1]
	push A
	xcall _numero_a_LCD
	add SP,-2
	.dbline 169
	mov [X+1],0
	mov [X+0],0
	xjmp L141
L138:
	.dbline 169
L139:
	.dbline 169
	inc [X+1]
	adc [X+0],0
L141:
	.dbline 169
; 		for (temp1=0;temp1<50000;temp1++);
	mov REG[0xd0],>__r0
	mov A,[X+1]
	mov [__r3],A
	mov A,[X+0]
	mov [__r2],A
	mov A,[__r3]
	sub A,80
	mov A,[__r2]
	sbb A,-61
	mov A,0
	sbb A,0
	mov A,0
	xor A,-128
	sbb A,(0 ^ 0x80)
	jc L138
X26:
	.dbline 170
; 		LCD_Control(0x01);
	push X
	mov A,1
	xcall _LCD_Control
	.dbline 171
; 		LCD_PrCString ("Int1_Tdisp_Uni");	
	mov A,>L142
	push A
	mov A,<L142
	mov X,A
	pop A
	xcall _LCD_PrCString
	pop X
	.dbline 172
	mov [X+1],0
	mov [X+0],0
	xjmp L146
L143:
	.dbline 172
L144:
	.dbline 172
	inc [X+1]
	adc [X+0],0
L146:
	.dbline 172
; 		for (temp1=0;temp1<50000;temp1++);
	mov REG[0xd0],>__r0
	mov A,[X+1]
	mov [__r3],A
	mov A,[X+0]
	mov [__r2],A
	mov A,[__r3]
	sub A,80
	mov A,[__r2]
	sbb A,-61
	mov A,0
	sbb A,0
	mov A,0
	xor A,-128
	sbb A,(0 ^ 0x80)
	jc L143
X27:
	.dbline 173
; 		LCD_Control(0x01);
	push X
	mov A,1
	xcall _LCD_Control
	pop X
	.dbline 174
; 		numero_a_LCD(Int1_Tdisp_Uni);		
	mov REG[0xd0],>_Int1_Tdisp_Uni
	mov A,[_Int1_Tdisp_Uni]
	mov REG[0xd0],>__r0
	mov [__r1],A
	mov A,0
	push A
	mov A,[__r1]
	push A
	xcall _numero_a_LCD
	add SP,-2
	.dbline 175
	mov [X+1],0
	mov [X+0],0
	xjmp L150
L147:
	.dbline 175
L148:
	.dbline 175
	inc [X+1]
	adc [X+0],0
L150:
	.dbline 175
; 		for (temp1=0;temp1<50000;temp1++);
	mov REG[0xd0],>__r0
	mov A,[X+1]
	mov [__r3],A
	mov A,[X+0]
	mov [__r2],A
	mov A,[__r3]
	sub A,80
	mov A,[__r2]
	sbb A,-61
	mov A,0
	sbb A,0
	mov A,0
	xor A,-128
	sbb A,(0 ^ 0x80)
	jc L147
X28:
	.dbline 176
; 		LCD_Control(0x01);
	push X
	mov A,1
	xcall _LCD_Control
	.dbline 177
; 		LCD_PrCString ("Int1_Ndisp");	
	mov A,>L151
	push A
	mov A,<L151
	mov X,A
	pop A
	xcall _LCD_PrCString
	pop X
	.dbline 178
	mov [X+1],0
	mov [X+0],0
	xjmp L155
L152:
	.dbline 178
L153:
	.dbline 178
	inc [X+1]
	adc [X+0],0
L155:
	.dbline 178
; 		for (temp1=0;temp1<50000;temp1++);
	mov REG[0xd0],>__r0
	mov A,[X+1]
	mov [__r3],A
	mov A,[X+0]
	mov [__r2],A
	mov A,[__r3]
	sub A,80
	mov A,[__r2]
	sbb A,-61
	mov A,0
	sbb A,0
	mov A,0
	xor A,-128
	sbb A,(0 ^ 0x80)
	jc L152
X29:
	.dbline 179
; 		LCD_Control(0x01);
	push X
	mov A,1
	xcall _LCD_Control
	pop X
	.dbline 180
; 		numero_a_LCD(Int1_Ndisp);		
	mov REG[0xd0],>_Int1_Ndisp
	mov A,[_Int1_Ndisp]
	mov REG[0xd0],>__r0
	mov [__r1],A
	mov A,0
	push A
	mov A,[__r1]
	push A
	xcall _numero_a_LCD
	add SP,-2
	.dbline 181
	mov [X+1],0
	mov [X+0],0
	xjmp L159
L156:
	.dbline 181
L157:
	.dbline 181
	inc [X+1]
	adc [X+0],0
L159:
	.dbline 181
; 		for (temp1=0;temp1<50000;temp1++);
	mov REG[0xd0],>__r0
	mov A,[X+1]
	mov [__r3],A
	mov A,[X+0]
	mov [__r2],A
	mov A,[__r3]
	sub A,80
	mov A,[__r2]
	sbb A,-61
	mov A,0
	sbb A,0
	mov A,0
	xor A,-128
	sbb A,(0 ^ 0x80)
	jc L156
X30:
	.dbline 183
; 			
; 		if (Cam2==2)	//Intervalometro camara 2
	mov REG[0xd0],>_Cam2
	cmp [_Cam2],2
	jnz L160
	.dbline 184
; 		LCD_Control(0x01);
	push X
	mov A,1
	xcall _LCD_Control
	pop X
L160:
	.dbline 185
; 		LCD_PrCString ("Int2_Tdisp");	
	push X
	mov A,>L162
	push A
	mov A,<L162
	mov X,A
	pop A
	xcall _LCD_PrCString
	pop X
	.dbline 186
	mov [X+1],0
	mov [X+0],0
	xjmp L166
L163:
	.dbline 186
L164:
	.dbline 186
	inc [X+1]
	adc [X+0],0
L166:
	.dbline 186
; 		for (temp1=0;temp1<50000;temp1++);
	mov REG[0xd0],>__r0
	mov A,[X+1]
	mov [__r3],A
	mov A,[X+0]
	mov [__r2],A
	mov A,[__r3]
	sub A,80
	mov A,[__r2]
	sbb A,-61
	mov A,0
	sbb A,0
	mov A,0
	xor A,-128
	sbb A,(0 ^ 0x80)
	jc L163
X31:
	.dbline 187
; 		LCD_Control(0x01);
	push X
	mov A,1
	xcall _LCD_Control
	pop X
	.dbline 188
; 		numero_a_LCD(Int2_Tdisp);		
	mov REG[0xd0],>_Int2_Tdisp
	mov A,[_Int2_Tdisp]
	mov REG[0xd0],>__r0
	mov [__r1],A
	mov A,0
	push A
	mov A,[__r1]
	push A
	xcall _numero_a_LCD
	add SP,-2
	.dbline 189
	mov [X+1],0
	mov [X+0],0
	xjmp L170
L167:
	.dbline 189
L168:
	.dbline 189
	inc [X+1]
	adc [X+0],0
L170:
	.dbline 189
; 		for (temp1=0;temp1<50000;temp1++);
	mov REG[0xd0],>__r0
	mov A,[X+1]
	mov [__r3],A
	mov A,[X+0]
	mov [__r2],A
	mov A,[__r3]
	sub A,80
	mov A,[__r2]
	sbb A,-61
	mov A,0
	sbb A,0
	mov A,0
	xor A,-128
	sbb A,(0 ^ 0x80)
	jc L167
X32:
	.dbline 190
; 		LCD_Control(0x01);
	push X
	mov A,1
	xcall _LCD_Control
	.dbline 191
; 		LCD_PrCString ("Int2_Tdisp_Uni");	
	mov A,>L171
	push A
	mov A,<L171
	mov X,A
	pop A
	xcall _LCD_PrCString
	pop X
	.dbline 192
	mov [X+1],0
	mov [X+0],0
	xjmp L175
L172:
	.dbline 192
L173:
	.dbline 192
	inc [X+1]
	adc [X+0],0
L175:
	.dbline 192
; 		for (temp1=0;temp1<50000;temp1++);
	mov REG[0xd0],>__r0
	mov A,[X+1]
	mov [__r3],A
	mov A,[X+0]
	mov [__r2],A
	mov A,[__r3]
	sub A,80
	mov A,[__r2]
	sbb A,-61
	mov A,0
	sbb A,0
	mov A,0
	xor A,-128
	sbb A,(0 ^ 0x80)
	jc L172
X33:
	.dbline 193
; 		LCD_Control(0x01);
	push X
	mov A,1
	xcall _LCD_Control
	pop X
	.dbline 194
; 		numero_a_LCD(Int2_Tdisp_Uni);		
	mov REG[0xd0],>_Int2_Tdisp_Uni
	mov A,[_Int2_Tdisp_Uni]
	mov REG[0xd0],>__r0
	mov [__r1],A
	mov A,0
	push A
	mov A,[__r1]
	push A
	xcall _numero_a_LCD
	add SP,-2
	.dbline 195
	mov [X+1],0
	mov [X+0],0
	xjmp L179
L176:
	.dbline 195
L177:
	.dbline 195
	inc [X+1]
	adc [X+0],0
L179:
	.dbline 195
; 		for (temp1=0;temp1<50000;temp1++);
	mov REG[0xd0],>__r0
	mov A,[X+1]
	mov [__r3],A
	mov A,[X+0]
	mov [__r2],A
	mov A,[__r3]
	sub A,80
	mov A,[__r2]
	sbb A,-61
	mov A,0
	sbb A,0
	mov A,0
	xor A,-128
	sbb A,(0 ^ 0x80)
	jc L176
X34:
	.dbline 196
; 		LCD_Control(0x01);
	push X
	mov A,1
	xcall _LCD_Control
	.dbline 197
; 		LCD_PrCString ("Int2_Ndisp");	
	mov A,>L180
	push A
	mov A,<L180
	mov X,A
	pop A
	xcall _LCD_PrCString
	pop X
	.dbline 198
	mov [X+1],0
	mov [X+0],0
	xjmp L184
L181:
	.dbline 198
L182:
	.dbline 198
	inc [X+1]
	adc [X+0],0
L184:
	.dbline 198
; 		for (temp1=0;temp1<50000;temp1++);
	mov REG[0xd0],>__r0
	mov A,[X+1]
	mov [__r3],A
	mov A,[X+0]
	mov [__r2],A
	mov A,[__r3]
	sub A,80
	mov A,[__r2]
	sbb A,-61
	mov A,0
	sbb A,0
	mov A,0
	xor A,-128
	sbb A,(0 ^ 0x80)
	jc L181
X35:
	.dbline 199
; 		LCD_Control(0x01);
	push X
	mov A,1
	xcall _LCD_Control
	pop X
	.dbline 200
; 		numero_a_LCD(Int2_Ndisp);		
	mov REG[0xd0],>_Int2_Ndisp
	mov A,[_Int2_Ndisp]
	mov REG[0xd0],>__r0
	mov [__r1],A
	mov A,0
	push A
	mov A,[__r1]
	push A
	xcall _numero_a_LCD
	add SP,-2
	.dbline 201
	mov [X+1],0
	mov [X+0],0
	xjmp L188
L185:
	.dbline 201
L186:
	.dbline 201
	inc [X+1]
	adc [X+0],0
L188:
	.dbline 201
; 		for (temp1=0;temp1<50000;temp1++);
	mov REG[0xd0],>__r0
	mov A,[X+1]
	mov [__r3],A
	mov A,[X+0]
	mov [__r2],A
	mov A,[__r3]
	sub A,80
	mov A,[__r2]
	sbb A,-61
	mov A,0
	sbb A,0
	mov A,0
	xor A,-128
	sbb A,(0 ^ 0x80)
	jc L185
X36:
	.dbline 203
; 		
; 		if (Cam1==3)	//Time-lapse camara 1
	mov REG[0xd0],>_Cam1
	cmp [_Cam1],3
	jnz L189
	.dbline 204
; 		LCD_Control(0x01);
	push X
	mov A,1
	xcall _LCD_Control
	pop X
L189:
	.dbline 205
; 		LCD_PrCString ("TL1_Treal");	
	push X
	mov A,>L191
	push A
	mov A,<L191
	mov X,A
	pop A
	xcall _LCD_PrCString
	pop X
	.dbline 206
	mov [X+1],0
	mov [X+0],0
	xjmp L195
L192:
	.dbline 206
L193:
	.dbline 206
	inc [X+1]
	adc [X+0],0
L195:
	.dbline 206
; 		for (temp1=0;temp1<50000;temp1++);
	mov REG[0xd0],>__r0
	mov A,[X+1]
	mov [__r3],A
	mov A,[X+0]
	mov [__r2],A
	mov A,[__r3]
	sub A,80
	mov A,[__r2]
	sbb A,-61
	mov A,0
	sbb A,0
	mov A,0
	xor A,-128
	sbb A,(0 ^ 0x80)
	jc L192
X37:
	.dbline 207
; 		LCD_Control(0x01);
	push X
	mov A,1
	xcall _LCD_Control
	pop X
	.dbline 208
; 		numero_a_LCD(TL1_Treal);		
	mov REG[0xd0],>_TL1_Treal
	mov A,[_TL1_Treal]
	mov REG[0xd0],>__r0
	mov [__r1],A
	mov A,0
	push A
	mov A,[__r1]
	push A
	xcall _numero_a_LCD
	add SP,-2
	.dbline 209
	mov [X+1],0
	mov [X+0],0
	xjmp L199
L196:
	.dbline 209
L197:
	.dbline 209
	inc [X+1]
	adc [X+0],0
L199:
	.dbline 209
; 		for (temp1=0;temp1<50000;temp1++);
	mov REG[0xd0],>__r0
	mov A,[X+1]
	mov [__r3],A
	mov A,[X+0]
	mov [__r2],A
	mov A,[__r3]
	sub A,80
	mov A,[__r2]
	sbb A,-61
	mov A,0
	sbb A,0
	mov A,0
	xor A,-128
	sbb A,(0 ^ 0x80)
	jc L196
X38:
	.dbline 210
; 		LCD_Control(0x01);
	push X
	mov A,1
	xcall _LCD_Control
	.dbline 211
; 		LCD_PrCString ("TL1_Treal_Uni");	
	mov A,>L200
	push A
	mov A,<L200
	mov X,A
	pop A
	xcall _LCD_PrCString
	pop X
	.dbline 212
	mov [X+1],0
	mov [X+0],0
	xjmp L204
L201:
	.dbline 212
L202:
	.dbline 212
	inc [X+1]
	adc [X+0],0
L204:
	.dbline 212
; 		for (temp1=0;temp1<50000;temp1++);
	mov REG[0xd0],>__r0
	mov A,[X+1]
	mov [__r3],A
	mov A,[X+0]
	mov [__r2],A
	mov A,[__r3]
	sub A,80
	mov A,[__r2]
	sbb A,-61
	mov A,0
	sbb A,0
	mov A,0
	xor A,-128
	sbb A,(0 ^ 0x80)
	jc L201
X39:
	.dbline 213
; 		LCD_Control(0x01);
	push X
	mov A,1
	xcall _LCD_Control
	pop X
	.dbline 214
; 		numero_a_LCD(TL1_Treal_Uni);		
	mov REG[0xd0],>_TL1_Treal_Uni
	mov A,[_TL1_Treal_Uni]
	mov REG[0xd0],>__r0
	mov [__r1],A
	mov A,0
	push A
	mov A,[__r1]
	push A
	xcall _numero_a_LCD
	add SP,-2
	.dbline 215
	mov [X+1],0
	mov [X+0],0
	xjmp L208
L205:
	.dbline 215
L206:
	.dbline 215
	inc [X+1]
	adc [X+0],0
L208:
	.dbline 215
; 		for (temp1=0;temp1<50000;temp1++);
	mov REG[0xd0],>__r0
	mov A,[X+1]
	mov [__r3],A
	mov A,[X+0]
	mov [__r2],A
	mov A,[__r3]
	sub A,80
	mov A,[__r2]
	sbb A,-61
	mov A,0
	sbb A,0
	mov A,0
	xor A,-128
	sbb A,(0 ^ 0x80)
	jc L205
X40:
	.dbline 216
; 		LCD_Control(0x01);
	push X
	mov A,1
	xcall _LCD_Control
	.dbline 217
; 		LCD_PrCString ("TL1_Tfilm");	
	mov A,>L209
	push A
	mov A,<L209
	mov X,A
	pop A
	xcall _LCD_PrCString
	pop X
	.dbline 218
	mov [X+1],0
	mov [X+0],0
	xjmp L213
L210:
	.dbline 218
L211:
	.dbline 218
	inc [X+1]
	adc [X+0],0
L213:
	.dbline 218
; 		for (temp1=0;temp1<50000;temp1++);
	mov REG[0xd0],>__r0
	mov A,[X+1]
	mov [__r3],A
	mov A,[X+0]
	mov [__r2],A
	mov A,[__r3]
	sub A,80
	mov A,[__r2]
	sbb A,-61
	mov A,0
	sbb A,0
	mov A,0
	xor A,-128
	sbb A,(0 ^ 0x80)
	jc L210
X41:
	.dbline 219
; 		LCD_Control(0x01);
	push X
	mov A,1
	xcall _LCD_Control
	pop X
	.dbline 220
; 		numero_a_LCD(TL1_Tfilm);		
	mov REG[0xd0],>_TL1_Tfilm
	mov A,[_TL1_Tfilm]
	mov REG[0xd0],>__r0
	mov [__r1],A
	mov A,0
	push A
	mov A,[__r1]
	push A
	xcall _numero_a_LCD
	add SP,-2
	.dbline 221
	mov [X+1],0
	mov [X+0],0
	xjmp L217
L214:
	.dbline 221
L215:
	.dbline 221
	inc [X+1]
	adc [X+0],0
L217:
	.dbline 221
; 		for (temp1=0;temp1<50000;temp1++);
	mov REG[0xd0],>__r0
	mov A,[X+1]
	mov [__r3],A
	mov A,[X+0]
	mov [__r2],A
	mov A,[__r3]
	sub A,80
	mov A,[__r2]
	sbb A,-61
	mov A,0
	sbb A,0
	mov A,0
	xor A,-128
	sbb A,(0 ^ 0x80)
	jc L214
X42:
	.dbline 222
; 		LCD_Control(0x01);
	push X
	mov A,1
	xcall _LCD_Control
	.dbline 223
; 		LCD_PrCString ("TL1_Tfilm_Uni");	
	mov A,>L218
	push A
	mov A,<L218
	mov X,A
	pop A
	xcall _LCD_PrCString
	pop X
	.dbline 224
	mov [X+1],0
	mov [X+0],0
	xjmp L222
L219:
	.dbline 224
L220:
	.dbline 224
	inc [X+1]
	adc [X+0],0
L222:
	.dbline 224
; 		for (temp1=0;temp1<50000;temp1++);
	mov REG[0xd0],>__r0
	mov A,[X+1]
	mov [__r3],A
	mov A,[X+0]
	mov [__r2],A
	mov A,[__r3]
	sub A,80
	mov A,[__r2]
	sbb A,-61
	mov A,0
	sbb A,0
	mov A,0
	xor A,-128
	sbb A,(0 ^ 0x80)
	jc L219
X43:
	.dbline 225
; 		LCD_Control(0x01);
	push X
	mov A,1
	xcall _LCD_Control
	pop X
	.dbline 226
; 		numero_a_LCD(TL1_Tfilm_Uni);		
	mov REG[0xd0],>_TL1_Tfilm_Uni
	mov A,[_TL1_Tfilm_Uni]
	mov REG[0xd0],>__r0
	mov [__r1],A
	mov A,0
	push A
	mov A,[__r1]
	push A
	xcall _numero_a_LCD
	add SP,-2
	.dbline 227
	mov [X+1],0
	mov [X+0],0
	xjmp L226
L223:
	.dbline 227
L224:
	.dbline 227
	inc [X+1]
	adc [X+0],0
L226:
	.dbline 227
; 		for (temp1=0;temp1<50000;temp1++);
	mov REG[0xd0],>__r0
	mov A,[X+1]
	mov [__r3],A
	mov A,[X+0]
	mov [__r2],A
	mov A,[__r3]
	sub A,80
	mov A,[__r2]
	sbb A,-61
	mov A,0
	sbb A,0
	mov A,0
	xor A,-128
	sbb A,(0 ^ 0x80)
	jc L223
X44:
	.dbline 229
; 		
; 		if (Cam2==3)	//Time-lapse camara 2
	mov REG[0xd0],>_Cam2
	cmp [_Cam2],3
	jnz L227
	.dbline 230
; 		LCD_Control(0x01);
	push X
	mov A,1
	xcall _LCD_Control
	pop X
L227:
	.dbline 231
; 		LCD_PrCString ("TL2_Treal");	
	push X
	mov A,>L229
	push A
	mov A,<L229
	mov X,A
	pop A
	xcall _LCD_PrCString
	pop X
	.dbline 232
	mov [X+1],0
	mov [X+0],0
	xjmp L233
L230:
	.dbline 232
L231:
	.dbline 232
	inc [X+1]
	adc [X+0],0
L233:
	.dbline 232
; 		for (temp1=0;temp1<50000;temp1++);
	mov REG[0xd0],>__r0
	mov A,[X+1]
	mov [__r3],A
	mov A,[X+0]
	mov [__r2],A
	mov A,[__r3]
	sub A,80
	mov A,[__r2]
	sbb A,-61
	mov A,0
	sbb A,0
	mov A,0
	xor A,-128
	sbb A,(0 ^ 0x80)
	jc L230
X45:
	.dbline 233
; 		LCD_Control(0x01);
	push X
	mov A,1
	xcall _LCD_Control
	pop X
	.dbline 234
; 		numero_a_LCD(TL2_Treal);		
	mov REG[0xd0],>_TL2_Treal
	mov A,[_TL2_Treal]
	mov REG[0xd0],>__r0
	mov [__r1],A
	mov A,0
	push A
	mov A,[__r1]
	push A
	xcall _numero_a_LCD
	add SP,-2
	.dbline 235
	mov [X+1],0
	mov [X+0],0
	xjmp L237
L234:
	.dbline 235
L235:
	.dbline 235
	inc [X+1]
	adc [X+0],0
L237:
	.dbline 235
; 		for (temp1=0;temp1<50000;temp1++);
	mov REG[0xd0],>__r0
	mov A,[X+1]
	mov [__r3],A
	mov A,[X+0]
	mov [__r2],A
	mov A,[__r3]
	sub A,80
	mov A,[__r2]
	sbb A,-61
	mov A,0
	sbb A,0
	mov A,0
	xor A,-128
	sbb A,(0 ^ 0x80)
	jc L234
X46:
	.dbline 236
; 		LCD_Control(0x01);
	push X
	mov A,1
	xcall _LCD_Control
	.dbline 237
; 		LCD_PrCString ("TL2_Treal_Uni");	
	mov A,>L238
	push A
	mov A,<L238
	mov X,A
	pop A
	xcall _LCD_PrCString
	pop X
	.dbline 238
	mov [X+1],0
	mov [X+0],0
	xjmp L242
L239:
	.dbline 238
L240:
	.dbline 238
	inc [X+1]
	adc [X+0],0
L242:
	.dbline 238
; 		for (temp1=0;temp1<50000;temp1++);
	mov REG[0xd0],>__r0
	mov A,[X+1]
	mov [__r3],A
	mov A,[X+0]
	mov [__r2],A
	mov A,[__r3]
	sub A,80
	mov A,[__r2]
	sbb A,-61
	mov A,0
	sbb A,0
	mov A,0
	xor A,-128
	sbb A,(0 ^ 0x80)
	jc L239
X47:
	.dbline 239
; 		LCD_Control(0x01);
	push X
	mov A,1
	xcall _LCD_Control
	pop X
	.dbline 240
; 		numero_a_LCD(TL2_Treal_Uni);		
	mov REG[0xd0],>_TL2_Treal_Uni
	mov A,[_TL2_Treal_Uni]
	mov REG[0xd0],>__r0
	mov [__r1],A
	mov A,0
	push A
	mov A,[__r1]
	push A
	xcall _numero_a_LCD
	add SP,-2
	.dbline 241
	mov [X+1],0
	mov [X+0],0
	xjmp L246
L243:
	.dbline 241
L244:
	.dbline 241
	inc [X+1]
	adc [X+0],0
L246:
	.dbline 241
; 		for (temp1=0;temp1<50000;temp1++);
	mov REG[0xd0],>__r0
	mov A,[X+1]
	mov [__r3],A
	mov A,[X+0]
	mov [__r2],A
	mov A,[__r3]
	sub A,80
	mov A,[__r2]
	sbb A,-61
	mov A,0
	sbb A,0
	mov A,0
	xor A,-128
	sbb A,(0 ^ 0x80)
	jc L243
X48:
	.dbline 242
; 		LCD_Control(0x01);
	push X
	mov A,1
	xcall _LCD_Control
	.dbline 243
; 		LCD_PrCString ("TL2_Tfilm");	
	mov A,>L247
	push A
	mov A,<L247
	mov X,A
	pop A
	xcall _LCD_PrCString
	pop X
	.dbline 244
	mov [X+1],0
	mov [X+0],0
	xjmp L251
L248:
	.dbline 244
L249:
	.dbline 244
	inc [X+1]
	adc [X+0],0
L251:
	.dbline 244
; 		for (temp1=0;temp1<50000;temp1++);
	mov REG[0xd0],>__r0
	mov A,[X+1]
	mov [__r3],A
	mov A,[X+0]
	mov [__r2],A
	mov A,[__r3]
	sub A,80
	mov A,[__r2]
	sbb A,-61
	mov A,0
	sbb A,0
	mov A,0
	xor A,-128
	sbb A,(0 ^ 0x80)
	jc L248
X49:
	.dbline 245
; 		LCD_Control(0x01);
	push X
	mov A,1
	xcall _LCD_Control
	pop X
	.dbline 246
; 		numero_a_LCD(TL2_Tfilm);		
	mov REG[0xd0],>_TL2_Tfilm
	mov A,[_TL2_Tfilm]
	mov REG[0xd0],>__r0
	mov [__r1],A
	mov A,0
	push A
	mov A,[__r1]
	push A
	xcall _numero_a_LCD
	add SP,-2
	.dbline 247
	mov [X+1],0
	mov [X+0],0
	xjmp L255
L252:
	.dbline 247
L253:
	.dbline 247
	inc [X+1]
	adc [X+0],0
L255:
	.dbline 247
; 		for (temp1=0;temp1<50000;temp1++);
	mov REG[0xd0],>__r0
	mov A,[X+1]
	mov [__r3],A
	mov A,[X+0]
	mov [__r2],A
	mov A,[__r3]
	sub A,80
	mov A,[__r2]
	sbb A,-61
	mov A,0
	sbb A,0
	mov A,0
	xor A,-128
	sbb A,(0 ^ 0x80)
	jc L252
X50:
	.dbline 248
; 		LCD_Control(0x01);
	push X
	mov A,1
	xcall _LCD_Control
	.dbline 249
; 		LCD_PrCString ("TL2_Tfilm_Uni");	
	mov A,>L256
	push A
	mov A,<L256
	mov X,A
	pop A
	xcall _LCD_PrCString
	pop X
	.dbline 250
	mov [X+1],0
	mov [X+0],0
	xjmp L260
L257:
	.dbline 250
L258:
	.dbline 250
	inc [X+1]
	adc [X+0],0
L260:
	.dbline 250
; 		for (temp1=0;temp1<50000;temp1++);
	mov REG[0xd0],>__r0
	mov A,[X+1]
	mov [__r3],A
	mov A,[X+0]
	mov [__r2],A
	mov A,[__r3]
	sub A,80
	mov A,[__r2]
	sbb A,-61
	mov A,0
	sbb A,0
	mov A,0
	xor A,-128
	sbb A,(0 ^ 0x80)
	jc L257
X51:
	.dbline 251
; 		LCD_Control(0x01);
	push X
	mov A,1
	xcall _LCD_Control
	pop X
	.dbline 252
; 		numero_a_LCD(TL2_Tfilm_Uni);		
	mov REG[0xd0],>_TL2_Tfilm_Uni
	mov A,[_TL2_Tfilm_Uni]
	mov REG[0xd0],>__r0
	mov [__r1],A
	mov A,0
	push A
	mov A,[__r1]
	push A
	xcall _numero_a_LCD
	add SP,-2
	.dbline 253
	mov [X+1],0
	mov [X+0],0
	xjmp L264
L261:
	.dbline 253
L262:
	.dbline 253
	inc [X+1]
	adc [X+0],0
L264:
	.dbline 253
; 		for (temp1=0;temp1<50000;temp1++);
	mov REG[0xd0],>__r0
	mov A,[X+1]
	mov [__r3],A
	mov A,[X+0]
	mov [__r2],A
	mov A,[__r3]
	sub A,80
	mov A,[__r2]
	sbb A,-61
	mov A,0
	sbb A,0
	mov A,0
	xor A,-128
	sbb A,(0 ^ 0x80)
	jc L261
X52:
	.dbline 255
; 		
; 		LCD_Control(0x01);
	push X
	mov A,1
	xcall _LCD_Control
	.dbline 256
; 		LCD_PrCString ("Fin programa");	
	mov A,>L265
	push A
	mov A,<L265
	mov X,A
	pop A
	xcall _LCD_PrCString
	pop X
	.dbline 257
	mov [X+1],0
	mov [X+0],0
	xjmp L269
L266:
	.dbline 257
L267:
	.dbline 257
	inc [X+1]
	adc [X+0],0
L269:
	.dbline 257
; 		for (temp1=0;temp1<50000;temp1++);
	mov REG[0xd0],>__r0
	mov A,[X+1]
	mov [__r3],A
	mov A,[X+0]
	mov [__r2],A
	mov A,[__r3]
	sub A,80
	mov A,[__r2]
	sbb A,-61
	mov A,0
	sbb A,0
	mov A,0
	xor A,-128
	sbb A,(0 ^ 0x80)
	jc L266
X53:
	.dbline -2
	.dbline 260
; 	
; 	//for(;;) Inicio();
; }		
L27:
	add SP,-2
	pop X
	.dbline 0 ; func end
	jmp .
	.dbsym l temp1 0 i
	.dbend
	.area data(ram, con, rel)
	.dbfile ./main.c
_Td_tl2::
	.byte 0
	.dbfile ./trabajo.h
	.dbsym e Td_tl2 _Td_tl2 c
	.area data(ram, con, rel)
	.dbfile ./trabajo.h
_D_t12::
	.byte 0
	.dbsym e D_t12 _D_t12 c
	.area data(ram, con, rel)
	.dbfile ./trabajo.h
_Td_tl1::
	.byte 0
	.dbsym e Td_tl1 _Td_tl1 c
	.area data(ram, con, rel)
	.dbfile ./trabajo.h
_D_tl1::
	.byte 0
	.dbsym e D_tl1 _D_tl1 c
	.area data(ram, con, rel)
	.dbfile ./trabajo.h
_Td_int2::
	.byte 0
	.dbsym e Td_int2 _Td_int2 c
	.area data(ram, con, rel)
	.dbfile ./trabajo.h
_Td_int1::
	.byte 0
	.dbsym e Td_int1 _Td_int1 c
	.area data(ram, con, rel)
	.dbfile ./trabajo.h
_listo_tl2::
	.byte 0
	.dbsym e listo_tl2 _listo_tl2 c
	.area data(ram, con, rel)
	.dbfile ./trabajo.h
_listo_tl1::
	.byte 0
	.dbsym e listo_tl1 _listo_tl1 c
	.area data(ram, con, rel)
	.dbfile ./trabajo.h
_listo_int2::
	.byte 0
	.dbsym e listo_int2 _listo_int2 c
	.area data(ram, con, rel)
	.dbfile ./trabajo.h
_listo_int1::
	.byte 0
	.dbsym e listo_int1 _listo_int1 c
	.area data(ram, con, rel)
	.dbfile ./trabajo.h
_inici::
	.byte 0
	.dbsym e inici _inici c
	.area lit(rom, con, rel)
L265:
	.byte 'F,'i,'n,32,'p,'r,'o,'g,'r,'a,'m,'a,0
L256:
	.byte 'T,'L,50,95,'T,'f,'i,'l,'m,95,'U,'n,'i,0
L247:
	.byte 'T,'L,50,95,'T,'f,'i,'l,'m,0
L238:
	.byte 'T,'L,50,95,'T,'r,'e,'a,'l,95,'U,'n,'i,0
L229:
	.byte 'T,'L,50,95,'T,'r,'e,'a,'l,0
L218:
	.byte 'T,'L,49,95,'T,'f,'i,'l,'m,95,'U,'n,'i,0
L209:
	.byte 'T,'L,49,95,'T,'f,'i,'l,'m,0
L200:
	.byte 'T,'L,49,95,'T,'r,'e,'a,'l,95,'U,'n,'i,0
L191:
	.byte 'T,'L,49,95,'T,'r,'e,'a,'l,0
L180:
	.byte 'I,'n,'t,50,95,'N,'d,'i,'s,'p,0
L171:
	.byte 'I,'n,'t,50,95,'T,'d,'i,'s,'p,95,'U,'n,'i,0
L162:
	.byte 'I,'n,'t,50,95,'T,'d,'i,'s,'p,0
L151:
	.byte 'I,'n,'t,49,95,'N,'d,'i,'s,'p,0
L142:
	.byte 'I,'n,'t,49,95,'T,'d,'i,'s,'p,95,'U,'n,'i,0
L133:
	.byte 'I,'n,'t,49,95,'T,'d,'i,'s,'p,0
L122:
	.byte 'F,'l,'a,52,0
L113:
	.byte 'F,'l,'a,51,0
L104:
	.byte 'F,'l,'a,50,0
L95:
	.byte 'F,'l,'a,49,0
L86:
	.byte 'E,'n,'t,52,0
L77:
	.byte 'E,'n,'t,51,0
L68:
	.byte 'E,'n,'t,50,0
L59:
	.byte 'E,'n,'t,49,0
L50:
	.byte 'C,'a,'m,50,0
L41:
	.byte 'C,'a,'m,49,0
L28:
	.byte 'R,'e,'c,'i,'b,'i,'e,'n,'d,'o,0
